
out.elf:     file format elf32-tradlittlemips


Disassembly of section .config_BFC02FF0:

bfc02ff0 <__config_BFC02FF0>:
bfc02ff0:	ff ff fe fa                                         ....

Disassembly of section .config_BFC02FF4:

bfc02ff4 <__config_BFC02FF4>:
bfc02ff4:	d9 79 f8 ff                                         .y..

Disassembly of section .config_BFC02FF8:

bfc02ff8 <__config_BFC02FF8>:
bfc02ff8:	db ce 6c ff                                         ..l.

Disassembly of section .config_BFC02FFC:

bfc02ffc <__config_BFC02FFC>:
bfc02ffc:	ff ff ff 7e                                         ...~

Disassembly of section .reset:

bd001970 <_reset>:
bd001970:	0f40065e 	jal	bd001978 <_startup>
bd001974:	00000000 	nop

bd001978 <_startup>:
bd001978:	401a6000 	mfc0	k0,c0_status
bd00197c:	7f5a04c0 	ext	k0,k0,0x13,0x1
bd001980:	13400005 	beqz	k0,bd001998 <_no_nmi>
bd001984:	00000000 	nop
bd001988:	3c1a9d01 	lui	k0,0x9d01
bd00198c:	275a0120 	addiu	k0,k0,288
bd001990:	03400008 	jr	k0
bd001994:	00000000 	nop

bd001998 <_no_nmi>:
bd001998:	3c1da002 	lui	sp,0xa002
bd00199c:	27bdfff8 	addiu	sp,sp,-8
bd0019a0:	3c1ca000 	lui	gp,0xa000
bd0019a4:	279c7ff0 	addiu	gp,gp,32752
bd0019a8:	40096002 	mfc0	t1,c0_srsctl
bd0019ac:	01205820 	add	t3,t1,zero
bd0019b0:	7d2a1e80 	ext	t2,t1,0x1a,0x4
bd0019b4:	7d494984 	ins	t1,t2,0x6,0x4
bd0019b8:	40896002 	mtc0	t1,c0_srsctl
bd0019bc:	000000c0 	ehb
bd0019c0:	41dce000 	wrpgpr	gp,gp
bd0019c4:	408b6002 	mtc0	t3,c0_srsctl
bd0019c8:	000000c0 	ehb
bd0019cc:	3c089d01 	lui	t0,0x9d01
bd0019d0:	250801c4 	addiu	t0,t0,452
bd0019d4:	0100f809 	jalr	t0
bd0019d8:	00000000 	nop

bd0019dc <_start_bss_init>:
bd0019dc:	3c08a000 	lui	t0,0xa000
bd0019e0:	2508000c 	addiu	t0,t0,12
bd0019e4:	3c09a001 	lui	t1,0xa001
bd0019e8:	25299d04 	addiu	t1,t1,-25340
bd0019ec:	10000003 	b	bd0019fc <_bss_check>
bd0019f0:	00000000 	nop

bd0019f4 <_bss_init>:
bd0019f4:	ad000000 	sw	zero,0(t0)
bd0019f8:	25080004 	addiu	t0,t0,4

bd0019fc <_bss_check>:
bd0019fc:	0109082b 	sltu	at,t0,t1
bd001a00:	1420fffc 	bnez	at,bd0019f4 <_bss_init>
bd001a04:	00000000 	nop
bd001a08:	3c089d01 	lui	t0,0x9d01
bd001a0c:	2508e5fc 	addiu	t0,t0,-6660
bd001a10:	0100f809 	jalr	t0
bd001a14:	00000000 	nop
bd001a18:	3c090000 	lui	t1,0x0
bd001a1c:	25290000 	addiu	t1,t1,0
bd001a20:	11200010 	beqz	t1,bd001a64 <_ramfunc_done>
bd001a24:	00000000 	nop
bd001a28:	3c090002 	lui	t1,0x2
bd001a2c:	25290000 	addiu	t1,t1,0
bd001a30:	3c0abf88 	lui	t2,0xbf88
bd001a34:	254a2010 	addiu	t2,t2,8208
bd001a38:	ad490000 	sw	t1,0(t2)
bd001a3c:	3c090002 	lui	t1,0x2
bd001a40:	25290000 	addiu	t1,t1,0
bd001a44:	3c0abf88 	lui	t2,0xbf88
bd001a48:	254a2020 	addiu	t2,t2,8224
bd001a4c:	ad490000 	sw	t1,0(t2)
bd001a50:	3c090002 	lui	t1,0x2
bd001a54:	25290000 	addiu	t1,t1,0
bd001a58:	3c0abf88 	lui	t2,0xbf88
bd001a5c:	254a2030 	addiu	t2,t2,8240
bd001a60:	ad490000 	sw	t1,0(t2)

bd001a64 <_ramfunc_done>:
bd001a64:	40804800 	mtc0	zero,c0_count
bd001a68:	240affff 	li	t2,-1
bd001a6c:	408a5800 	mtc0	t2,c0_compare
bd001a70:	3c080040 	lui	t0,0x40
bd001a74:	400a6000 	mfc0	t2,c0_status
bd001a78:	010a5025 	or	t2,t0,t2
bd001a7c:	408a6000 	mtc0	t2,c0_status
bd001a80:	3c099d00 	lui	t1,0x9d00
bd001a84:	25290000 	addiu	t1,t1,0
bd001a88:	000000c0 	ehb
bd001a8c:	40897801 	mtc0	t1,c0_ebase
bd001a90:	3c090000 	lui	t1,0x0
bd001a94:	25290001 	addiu	t1,t1,1
bd001a98:	240a0000 	li	t2,0
bd001a9c:	7d2a4944 	ins	t2,t1,0x5,0x5
bd001aa0:	408a6001 	mtc0	t2,c0_intctl
bd001aa4:	3c090080 	lui	t1,0x80
bd001aa8:	40896800 	mtc0	t1,c0_cause
bd001aac:	40088000 	mfc0	t0,c0_config
bd001ab0:	7d090580 	ext	t1,t0,0x16,0x1
bd001ab4:	00094c40 	sll	t1,t1,0x11
bd001ab8:	40086000 	mfc0	t0,c0_status
bd001abc:	3c010058 	lui	at,0x58
bd001ac0:	01014024 	and	t0,t0,at
bd001ac4:	01284025 	or	t0,t1,t0
bd001ac8:	40886000 	mtc0	t0,c0_status
bd001acc:	000000c0 	ehb
bd001ad0:	3c089d01 	lui	t0,0x9d01
bd001ad4:	250801cc 	addiu	t0,t0,460
bd001ad8:	0100f809 	jalr	t0
bd001adc:	00000000 	nop
bd001ae0:	40086000 	mfc0	t0,c0_status
bd001ae4:	3c01ffbf 	lui	at,0xffbf
bd001ae8:	3421ffff 	ori	at,at,0xffff
bd001aec:	01014024 	and	t0,t0,at
bd001af0:	40886000 	mtc0	t0,c0_status
bd001af4:	30840000 	andi	a0,a0,0x0
bd001af8:	30a50000 	andi	a1,a1,0x0
bd001afc:	3c089d01 	lui	t0,0x9d01
bd001b00:	2508f358 	addiu	t0,t0,-3240
bd001b04:	01000008 	jr	t0
bd001b08:	00000000 	nop

Disassembly of section .bev_excpt:

bd001cf0 <_bev_exception>:
bd001cf0:	3c1a9d01 	lui	k0,0x9d01
bd001cf4:	275af5d4 	addiu	k0,k0,-2604
bd001cf8:	03400008 	jr	k0
bd001cfc:	00000000 	nop

Disassembly of section .app_excpt:

9d000180 <_gen_exception>:
9d000180:	3c1a9d01 	lui	k0,0x9d01
9d000184:	275ad7f0 	addiu	k0,k0,-10256
9d000188:	03400008 	jr	k0
9d00018c:	00000000 	nop

Disassembly of section .vector_0:

9d000200 <__vector_dispatch_0>:
9d000200:	0b403d99 	j	9d00f664 <_DefaultInterrupt>
9d000204:	00000000 	nop

Disassembly of section .vector_1:

9d000220 <__vector_dispatch_1>:
9d000220:	0b403d99 	j	9d00f664 <_DefaultInterrupt>
9d000224:	00000000 	nop

Disassembly of section .vector_2:

9d000240 <__vector_dispatch_2>:
9d000240:	0b403d99 	j	9d00f664 <_DefaultInterrupt>
9d000244:	00000000 	nop

Disassembly of section .vector_3:

9d000260 <__vector_dispatch_3>:
9d000260:	0b403d99 	j	9d00f664 <_DefaultInterrupt>
9d000264:	00000000 	nop

Disassembly of section .vector_4:

9d000280 <__vector_dispatch_4>:
9d000280:	0b403d99 	j	9d00f664 <_DefaultInterrupt>
9d000284:	00000000 	nop

Disassembly of section .vector_5:

9d0002a0 <__vector_dispatch_5>:
9d0002a0:	0b403d99 	j	9d00f664 <_DefaultInterrupt>
9d0002a4:	00000000 	nop

Disassembly of section .vector_6:

9d0002c0 <__vector_dispatch_6>:
9d0002c0:	0b403d99 	j	9d00f664 <_DefaultInterrupt>
9d0002c4:	00000000 	nop

Disassembly of section .vector_7:

9d0002e0 <__vector_dispatch_7>:
9d0002e0:	0b403d99 	j	9d00f664 <_DefaultInterrupt>
9d0002e4:	00000000 	nop

Disassembly of section .vector_8:

9d000300 <__vector_dispatch_8>:
9d000300:	0b400e7d 	j	9d0039f4 <CController>
9d000304:	00000000 	nop

Disassembly of section .vector_9:

9d000320 <__vector_dispatch_9>:
9d000320:	0b403d99 	j	9d00f664 <_DefaultInterrupt>
9d000324:	00000000 	nop

Disassembly of section .vector_10:

9d000340 <__vector_dispatch_10>:
9d000340:	0b403d99 	j	9d00f664 <_DefaultInterrupt>
9d000344:	00000000 	nop

Disassembly of section .vector_11:

9d000360 <__vector_dispatch_11>:
9d000360:	0b403d99 	j	9d00f664 <_DefaultInterrupt>
9d000364:	00000000 	nop

Disassembly of section .vector_12:

9d000380 <__vector_dispatch_12>:
9d000380:	0b403d99 	j	9d00f664 <_DefaultInterrupt>
9d000384:	00000000 	nop

Disassembly of section .vector_13:

9d0003a0 <__vector_dispatch_13>:
9d0003a0:	0b403d99 	j	9d00f664 <_DefaultInterrupt>
9d0003a4:	00000000 	nop

Disassembly of section .vector_14:

9d0003c0 <__vector_dispatch_14>:
9d0003c0:	0b403d99 	j	9d00f664 <_DefaultInterrupt>
9d0003c4:	00000000 	nop

Disassembly of section .vector_15:

9d0003e0 <__vector_dispatch_15>:
9d0003e0:	0b403d99 	j	9d00f664 <_DefaultInterrupt>
9d0003e4:	00000000 	nop

Disassembly of section .vector_16:

9d000400 <__vector_dispatch_16>:
9d000400:	0b401ac0 	j	9d006b00 <PController>
9d000404:	00000000 	nop

Disassembly of section .vector_17:

9d000420 <__vector_dispatch_17>:
9d000420:	0b403d99 	j	9d00f664 <_DefaultInterrupt>
9d000424:	00000000 	nop

Disassembly of section .vector_18:

9d000440 <__vector_dispatch_18>:
9d000440:	0b403d99 	j	9d00f664 <_DefaultInterrupt>
9d000444:	00000000 	nop

Disassembly of section .vector_19:

9d000460 <__vector_dispatch_19>:
9d000460:	0b403d99 	j	9d00f664 <_DefaultInterrupt>
9d000464:	00000000 	nop

Disassembly of section .vector_20:

9d000480 <__vector_dispatch_20>:
9d000480:	0b403d99 	j	9d00f664 <_DefaultInterrupt>
9d000484:	00000000 	nop

Disassembly of section .vector_21:

9d0004a0 <__vector_dispatch_21>:
9d0004a0:	0b403d99 	j	9d00f664 <_DefaultInterrupt>
9d0004a4:	00000000 	nop

Disassembly of section .vector_22:

9d0004c0 <__vector_dispatch_22>:
9d0004c0:	0b403d99 	j	9d00f664 <_DefaultInterrupt>
9d0004c4:	00000000 	nop

Disassembly of section .vector_23:

9d0004e0 <__vector_dispatch_23>:
9d0004e0:	0b403d99 	j	9d00f664 <_DefaultInterrupt>
9d0004e4:	00000000 	nop

Disassembly of section .vector_24:

9d000500 <__vector_dispatch_24>:
9d000500:	0b403d99 	j	9d00f664 <_DefaultInterrupt>
9d000504:	00000000 	nop

Disassembly of section .vector_25:

9d000520 <__vector_dispatch_25>:
9d000520:	0b403d99 	j	9d00f664 <_DefaultInterrupt>
9d000524:	00000000 	nop

Disassembly of section .vector_26:

9d000540 <__vector_dispatch_26>:
9d000540:	0b403d99 	j	9d00f664 <_DefaultInterrupt>
9d000544:	00000000 	nop

Disassembly of section .vector_27:

9d000560 <__vector_dispatch_27>:
9d000560:	0b403d99 	j	9d00f664 <_DefaultInterrupt>
9d000564:	00000000 	nop

Disassembly of section .vector_28:

9d000580 <__vector_dispatch_28>:
9d000580:	0b403d99 	j	9d00f664 <_DefaultInterrupt>
9d000584:	00000000 	nop

Disassembly of section .vector_29:

9d0005a0 <__vector_dispatch_29>:
9d0005a0:	0b403d99 	j	9d00f664 <_DefaultInterrupt>
9d0005a4:	00000000 	nop

Disassembly of section .vector_30:

9d0005c0 <__vector_dispatch_30>:
9d0005c0:	0b403d99 	j	9d00f664 <_DefaultInterrupt>
9d0005c4:	00000000 	nop

Disassembly of section .vector_31:

9d0005e0 <__vector_dispatch_31>:
9d0005e0:	0b403d99 	j	9d00f664 <_DefaultInterrupt>
9d0005e4:	00000000 	nop

Disassembly of section .vector_32:

9d000600 <__vector_dispatch_32>:
9d000600:	0b402792 	j	9d009e48 <U2ISR>
9d000604:	00000000 	nop

Disassembly of section .vector_33:

9d000620 <__vector_dispatch_33>:
9d000620:	0b403d99 	j	9d00f664 <_DefaultInterrupt>
9d000624:	00000000 	nop

Disassembly of section .vector_34:

9d000640 <__vector_dispatch_34>:
9d000640:	0b403d99 	j	9d00f664 <_DefaultInterrupt>
9d000644:	00000000 	nop

Disassembly of section .vector_35:

9d000660 <__vector_dispatch_35>:
9d000660:	0b403d99 	j	9d00f664 <_DefaultInterrupt>
9d000664:	00000000 	nop

Disassembly of section .vector_36:

9d000680 <__vector_dispatch_36>:
9d000680:	0b403d99 	j	9d00f664 <_DefaultInterrupt>
9d000684:	00000000 	nop

Disassembly of section .vector_37:

9d0006a0 <__vector_dispatch_37>:
9d0006a0:	0b403d99 	j	9d00f664 <_DefaultInterrupt>
9d0006a4:	00000000 	nop

Disassembly of section .vector_38:

9d0006c0 <__vector_dispatch_38>:
9d0006c0:	0b403d99 	j	9d00f664 <_DefaultInterrupt>
9d0006c4:	00000000 	nop

Disassembly of section .vector_39:

9d0006e0 <__vector_dispatch_39>:
9d0006e0:	0b403d99 	j	9d00f664 <_DefaultInterrupt>
9d0006e4:	00000000 	nop

Disassembly of section .vector_40:

9d000700 <__vector_dispatch_40>:
9d000700:	0b403d99 	j	9d00f664 <_DefaultInterrupt>
9d000704:	00000000 	nop

Disassembly of section .vector_41:

9d000720 <__vector_dispatch_41>:
9d000720:	0b403d99 	j	9d00f664 <_DefaultInterrupt>
9d000724:	00000000 	nop

Disassembly of section .vector_42:

9d000740 <__vector_dispatch_42>:
9d000740:	0b403d99 	j	9d00f664 <_DefaultInterrupt>
9d000744:	00000000 	nop

Disassembly of section .vector_43:

9d000760 <__vector_dispatch_43>:
9d000760:	0b403d99 	j	9d00f664 <_DefaultInterrupt>
9d000764:	00000000 	nop

Disassembly of section .vector_44:

9d000780 <__vector_dispatch_44>:
9d000780:	0b403d99 	j	9d00f664 <_DefaultInterrupt>
9d000784:	00000000 	nop

Disassembly of section .vector_45:

9d0007a0 <__vector_dispatch_45>:
9d0007a0:	0b403d99 	j	9d00f664 <_DefaultInterrupt>
9d0007a4:	00000000 	nop

Disassembly of section .vector_46:

9d0007c0 <__vector_dispatch_46>:
9d0007c0:	0b403d99 	j	9d00f664 <_DefaultInterrupt>
9d0007c4:	00000000 	nop

Disassembly of section .vector_47:

9d0007e0 <__vector_dispatch_47>:
9d0007e0:	0b403d99 	j	9d00f664 <_DefaultInterrupt>
9d0007e4:	00000000 	nop

Disassembly of section .vector_48:

9d000800 <__vector_dispatch_48>:
9d000800:	0b403d99 	j	9d00f664 <_DefaultInterrupt>
9d000804:	00000000 	nop

Disassembly of section .vector_49:

9d000820 <__vector_dispatch_49>:
9d000820:	0b403d99 	j	9d00f664 <_DefaultInterrupt>
9d000824:	00000000 	nop

Disassembly of section .vector_50:

9d000840 <__vector_dispatch_50>:
9d000840:	0b403d99 	j	9d00f664 <_DefaultInterrupt>
9d000844:	00000000 	nop

Disassembly of section .vector_51:

9d000860 <__vector_dispatch_51>:
9d000860:	0b403d99 	j	9d00f664 <_DefaultInterrupt>
9d000864:	00000000 	nop

Disassembly of section .rodata:

9d001e00 <.rodata>:
9d001e00:	0d303031 	jal	94c0c0c4 <_bmxdudba_address+0x94bec0c4>
9d001e04:	0000000a 	movz	zero,zero,zero
9d001e08:	25206625 	addiu	zero,t1,26149
9d001e0c:	000a0d66 	0xa0d66
9d001e10:	00000000 	nop
9d001e14:	40590000 	cfc0	t9,c0_index
9d001e18:	00000000 	nop
9d001e1c:	40af4000 	0x40af4000
9d001e20:	00000000 	nop
9d001e24:	40af3e00 	0x40af3e00
9d001e28:	43480000 	c0	0x1480000
9d001e2c:	c3480000 	ll	t0,0(k0)
9d001e30:	4579f000 	0x4579f000
9d001e34:	42c80000 	c0	0xc80000
9d001e38:	c2c80000 	ll	t0,0(s6)
9d001e3c:	3dcccccd 	0x3dcccccd
9d001e40:	3d23d70a 	0x3d23d70a
9d001e44:	00006425 	0x6425
9d001e48:	32433249 	andi	v1,s2,0x3249
9d001e4c:	73614d20 	0x73614d20
9d001e50:	3a726574 	xori	s2,s3,0x6574
9d001e54:	69616620 	0x69616620
9d001e58:	2064656c 	addi	a0,v1,25964
9d001e5c:	72206f74 	0x72206f74
9d001e60:	69656365 	0x69656365
9d001e64:	41206576 	0x41206576
9d001e68:	0a0d4b43 	j	98352d0c <_bmxdudba_address+0x98332d0c>
9d001e6c:	00000000 	nop
9d001e70:	00000000 	nop
9d001e74:	40080000 	mfc0	t0,c0_index
9d001e78:	0a0d6625 	j	98359894 <_bmxdudba_address+0x98339894>
9d001e7c:	0c000000 	jal	90000000 <_bmxdudba_address+0x8ffe0000>
9d001e80:	0c000061 	jal	90000184 <_bmxdudba_address+0x8ffe0184>
9d001e84:	0a0d6425 	j	98359094 <_bmxdudba_address+0x98339094>
9d001e88:	0c000000 	jal	90000000 <_bmxdudba_address+0x8ffe0000>
9d001e8c:	0c000062 	jal	90000188 <_bmxdudba_address+0x8ffe0188>
9d001e90:	00006425 	0x6425
9d001e94:	25206625 	addiu	zero,t1,26149
9d001e98:	0c000066 	jal	90000198 <_bmxdudba_address+0x8ffe0198>
9d001e9c:	25206625 	addiu	zero,t1,26149
9d001ea0:	66252066 	0x66252066
9d001ea4:	0c000000 	jal	90000000 <_bmxdudba_address+0x8ffe0000>
9d001ea8:	00006625 	0x6625
9d001eac:	53455449 	beql	k0,a1,9d016fd4 <close+0x6d98>
9d001eb0:	000a0d54 	0xa0d54
9d001eb4:	43415254 	c0	0x1415254
9d001eb8:	000a0d4b 	0xa0d4b
	...
9d001ec4:	4094e000 	mtc0	s4,c0_taglo
9d001ec8:	00000000 	nop
9d001ecc:	40768000 	0x40768000
9d001ed0:	00000061 	0x61
9d001ed4:	0a0d6425 	j	98359094 <_bmxdudba_address+0x98339094>
9d001ed8:	00000000 	nop
9d001edc:	25206625 	addiu	zero,t1,26149
9d001ee0:	000a0d66 	0xa0d66
9d001ee4:	47434f00 	c1	0x1434f00
9d001ee8:	00000000 	nop
9d001eec:	4094e000 	mtc0	s4,c0_taglo
9d001ef0:	00000000 	nop
9d001ef4:	40768000 	0x40768000
9d001ef8:	00464e49 	0x464e49
9d001efc:	00666e69 	0x666e69
9d001f00:	004e414e 	0x4e414e
9d001f04:	006e616e 	0x6e616e
9d001f08:	00000000 	nop
9d001f0c:	3ff00000 	0x3ff00000
9d001f10:	00000000 	nop
9d001f14:	40240000 	0x40240000
9d001f18:	00000000 	nop
9d001f1c:	43500000 	c0	0x1500000
9d001f20:	00000000 	nop
9d001f24:	40140000 	mfc0	s4,c0_index
9d001f28:	6c696e28 	0x6c696e28
9d001f2c:	00000029 	0x29
9d001f30:	00666e69 	0x666e69
9d001f34:	006e616e 	0x6e616e
9d001f38:	69666e69 	0x69666e69
9d001f3c:	7974696e 	0x7974696e
9d001f40:	00000000 	nop
9d001f44:	006e616e 	0x6e616e
9d001f48:	ffffffff 	sdc3	$31,-1(ra)
9d001f4c:	7fefffff 	0x7fefffff
9d001f50:	00000000 	nop
9d001f54:	00100000 	sll	zero,s0,0x0
9d001f58:	00000000 	nop
9d001f5c:	41cdcd65 	0x41cdcd65
9d001f60:	00000000 	nop
9d001f64:	3ff00000 	0x3ff00000
9d001f68:	00000000 	nop
9d001f6c:	3fd00000 	0x3fd00000
9d001f70:	00000000 	nop
9d001f74:	3fe80000 	0x3fe80000
9d001f78:	00000000 	nop
9d001f7c:	3fe00000 	0x3fe00000
9d001f80:	00000000 	nop
9d001f84:	43400000 	c0	0x1400000
9d001f88:	00000000 	nop
9d001f8c:	fff00000 	sdc3	$16,0(ra)
9d001f90:	ffffffff 	sdc3	$31,-1(ra)
9d001f94:	7ff7ffff 	0x7ff7ffff
9d001f98:	00000000 	nop
9d001f9c:	7ff00000 	ext	s0,ra,0x0,0x1
9d001fa0:	00000000 	nop
9d001fa4:	3fb00000 	0x3fb00000
9d001fa8:	00000000 	nop
9d001fac:	c08ff000 	ll	t7,-4096(a0)
9d001fb0:	00000000 	nop
9d001fb4:	3ff00000 	0x3ff00000
9d001fb8:	00000000 	nop
9d001fbc:	3fe00000 	0x3fe00000
9d001fc0:	30773b76 	andi	s7,v1,0x3b76
9d001fc4:	7fde42d1 	pick.ph	t0,s8,s8
9d001fc8:	00000000 	nop
9d001fcc:	43e00000 	c0	0x1e00000
9d001fd0:	00000000 	nop
9d001fd4:	c3e00000 	ll	zero,0(ra)
9d001fd8:	f0000000 	0xf0000000
9d001fdc:	341fffff 	li	ra,0xffff
9d001fe0:	00000000 	nop
9d001fe4:	07f00000 	bltzal	ra,9d001fe8 <__vector_dispatch_51+0x1788>
9d001fe8:	00000000 	nop
9d001fec:	7fe00000 	ext	zero,ra,0x0,0x1
9d001ff0:	00000000 	nop
9d001ff4:	03600000 	0x3600000
9d001ff8:	00000000 	nop
9d001ffc:	41f00000 	0x41f00000

Disassembly of section ._debug_exception:

bfc00480 <__DbgExecReturn>:
bfc00480:	409bf800 	mtc0	k1,c0_desave
bfc00484:	000000c0 	ehb
bfc00488:	3c1b9d01 	lui	k1,0x9d01
bfc0048c:	277bf6ac 	addiu	k1,k1,-2388
bfc00490:	13600002 	beqz	k1,bfc0049c <__DbgExecReturn+0x1c>
bfc00494:	00000000 	nop
bfc00498:	409bc000 	mtc0	k1,c0_depc
bfc0049c:	401bf800 	mfc0	k1,c0_desave
bfc004a0:	000000c0 	ehb
bfc004a4:	4200001f 	deret
bfc004a8:	00000000 	nop

Disassembly of section .text.decfloat:

9d002000 <decfloat>:
9d002000:	27bdfdb0 	addiu	sp,sp,-592
9d002004:	afb30234 	sw	s3,564(sp)
9d002008:	afb1022c 	sw	s1,556(sp)
9d00200c:	afb00228 	sw	s0,552(sp)
9d002010:	afbf024c 	sw	ra,588(sp)
9d002014:	afbe0248 	sw	s8,584(sp)
9d002018:	afb70244 	sw	s7,580(sp)
9d00201c:	afb60240 	sw	s6,576(sp)
9d002020:	afb5023c 	sw	s5,572(sp)
9d002024:	afb40238 	sw	s4,568(sp)
9d002028:	afb20230 	sw	s2,560(sp)
9d00202c:	00808825 	move	s1,a0
9d002030:	00a01025 	move	v0,a1
9d002034:	afa60258 	sw	a2,600(sp)
9d002038:	afa7025c 	sw	a3,604(sp)
9d00203c:	00009825 	move	s3,zero
9d002040:	24100030 	li	s0,48
9d002044:	5050004e 	beql	v0,s0,9d002180 <decfloat+0x180>
9d002048:	8e22003c 	lw	v0,60(s1)
9d00204c:	2403002e 	li	v1,46
9d002050:	1443006c 	bne	v0,v1,9d002204 <decfloat+0x204>
9d002054:	00009025 	move	s2,zero
9d002058:	8e22003c 	lw	v0,60(s1)
9d00205c:	8e23004c 	lw	v1,76(s1)
9d002060:	0043182b 	sltu	v1,v0,v1
9d002064:	10600052 	beqz	v1,9d0021b0 <decfloat+0x1b0>
9d002068:	24430001 	addiu	v1,v0,1
9d00206c:	ae23003c 	sw	v1,60(s1)
9d002070:	90420000 	lbu	v0,0(v0)
9d002074:	00008025 	move	s0,zero
9d002078:	0000a025 	move	s4,zero
9d00207c:	24150030 	li	s5,48
9d002080:	5055004f 	beql	v0,s5,9d0021c0 <decfloat+0x1c0>
9d002084:	2602ffff 	addiu	v0,s0,-1
9d002088:	24120001 	li	s2,1
9d00208c:	afa00010 	sw	zero,16(sp)
9d002090:	0000b825 	move	s7,zero
9d002094:	0000f025 	move	s8,zero
9d002098:	00003025 	move	a2,zero
9d00209c:	0000b025 	move	s6,zero
9d0020a0:	0000a825 	move	s5,zero
9d0020a4:	2407002e 	li	a3,46
9d0020a8:	24090030 	li	t1,48
9d0020ac:	240a0009 	li	t2,9
9d0020b0:	244bffd0 	addiu	t3,v0,-48
9d0020b4:	2d64000a 	sltiu	a0,t3,10
9d0020b8:	14800055 	bnez	a0,9d002210 <decfloat+0x210>
9d0020bc:	00000000 	nop
9d0020c0:	10470055 	beq	v0,a3,9d002218 <decfloat+0x218>
9d0020c4:	00000000 	nop
9d0020c8:	03d2800a 	movz	s0,s8,s2
9d0020cc:	00d2a00a 	movz	s4,a2,s2
9d0020d0:	12600314 	beqz	s3,9d002d24 <decfloat+0xd24>
9d0020d4:	34430020 	ori	v1,v0,0x20
9d0020d8:	24040065 	li	a0,101
9d0020dc:	14640330 	bne	v1,a0,9d002da0 <decfloat+0xda0>
9d0020e0:	8fa50264 	lw	a1,612(sp)
9d0020e4:	02202025 	move	a0,s1
9d0020e8:	0f402832 	jal	9d00a0c8 <scanexp>
9d0020ec:	afa60210 	sw	a2,528(sp)
9d0020f0:	1440000e 	bnez	v0,9d00212c <decfloat+0x12c>
9d0020f4:	8fa60210 	lw	a2,528(sp)
9d0020f8:	3c048000 	lui	a0,0x8000
9d0020fc:	5464000c 	bnel	v1,a0,9d002130 <decfloat+0x130>
9d002100:	02021021 	addu	v0,s0,v0
9d002104:	8fa30264 	lw	v1,612(sp)
9d002108:	50600314 	beqzl	v1,9d002d5c <decfloat+0xd5c>
9d00210c:	00003025 	move	a2,zero
9d002110:	8e24004c 	lw	a0,76(s1)
9d002114:	10800005 	beqz	a0,9d00212c <decfloat+0x12c>
9d002118:	00001825 	move	v1,zero
9d00211c:	8e23003c 	lw	v1,60(s1)
9d002120:	2463ffff 	addiu	v1,v1,-1
9d002124:	ae23003c 	sw	v1,60(s1)
9d002128:	00001825 	move	v1,zero
9d00212c:	02021021 	addu	v0,s0,v0
9d002130:	0050202b 	sltu	a0,v0,s0
9d002134:	0283a021 	addu	s4,s4,v1
9d002138:	00408025 	move	s0,v0
9d00213c:	0094a021 	addu	s4,a0,s4
9d002140:	8fa40260 	lw	a0,608(sp)
9d002144:	8fb10010 	lw	s1,16(sp)
9d002148:	0f403aee 	jal	9d00ebb8 <__floatsidf>
9d00214c:	afa60210 	sw	a2,528(sp)
9d002150:	00409025 	move	s2,v0
9d002154:	00609825 	move	s3,v1
9d002158:	16200063 	bnez	s1,9d0022e8 <decfloat+0x2e8>
9d00215c:	8fa60210 	lw	a2,528(sp)
9d002160:	00003025 	move	a2,zero
9d002164:	00003825 	move	a3,zero
9d002168:	00402025 	move	a0,v0
9d00216c:	00602825 	move	a1,v1
9d002170:	0f402611 	jal	9d009844 <__muldf3>
9d002174:	00000000 	nop
9d002178:	100002fe 	b	9d002d74 <decfloat+0xd74>
9d00217c:	8fbf024c 	lw	ra,588(sp)
9d002180:	8e23004c 	lw	v1,76(s1)
9d002184:	0043182b 	sltu	v1,v0,v1
9d002188:	10600005 	beqz	v1,9d0021a0 <decfloat+0x1a0>
9d00218c:	24430001 	addiu	v1,v0,1
9d002190:	ae23003c 	sw	v1,60(s1)
9d002194:	90420000 	lbu	v0,0(v0)
9d002198:	1000ffaa 	b	9d002044 <decfloat+0x44>
9d00219c:	24130001 	li	s3,1
9d0021a0:	0f403330 	jal	9d00ccc0 <__shgetc>
9d0021a4:	02202025 	move	a0,s1
9d0021a8:	1000ffa6 	b	9d002044 <decfloat+0x44>
9d0021ac:	24130001 	li	s3,1
9d0021b0:	0f403330 	jal	9d00ccc0 <__shgetc>
9d0021b4:	02202025 	move	a0,s1
9d0021b8:	1000ffaf 	b	9d002078 <decfloat+0x78>
9d0021bc:	00008025 	move	s0,zero
9d0021c0:	0050182b 	sltu	v1,v0,s0
9d0021c4:	2694ffff 	addiu	s4,s4,-1
9d0021c8:	00408025 	move	s0,v0
9d0021cc:	0074a021 	addu	s4,v1,s4
9d0021d0:	8e22003c 	lw	v0,60(s1)
9d0021d4:	8e23004c 	lw	v1,76(s1)
9d0021d8:	0043182b 	sltu	v1,v0,v1
9d0021dc:	10600005 	beqz	v1,9d0021f4 <decfloat+0x1f4>
9d0021e0:	24430001 	addiu	v1,v0,1
9d0021e4:	ae23003c 	sw	v1,60(s1)
9d0021e8:	90420000 	lbu	v0,0(v0)
9d0021ec:	1000ffa4 	b	9d002080 <decfloat+0x80>
9d0021f0:	24130001 	li	s3,1
9d0021f4:	0f403330 	jal	9d00ccc0 <__shgetc>
9d0021f8:	02202025 	move	a0,s1
9d0021fc:	1000ffa0 	b	9d002080 <decfloat+0x80>
9d002200:	24130001 	li	s3,1
9d002204:	00008025 	move	s0,zero
9d002208:	1000ffa0 	b	9d00208c <decfloat+0x8c>
9d00220c:	0000a025 	move	s4,zero
9d002210:	1447000d 	bne	v0,a3,9d002248 <decfloat+0x248>
9d002214:	27c40001 	addiu	a0,s8,1
9d002218:	16400031 	bnez	s2,9d0022e0 <decfloat+0x2e0>
9d00221c:	24120001 	li	s2,1
9d002220:	03c08025 	move	s0,s8
9d002224:	00c0a025 	move	s4,a2
9d002228:	8e22003c 	lw	v0,60(s1)
9d00222c:	8e24004c 	lw	a0,76(s1)
9d002230:	0044202b 	sltu	a0,v0,a0
9d002234:	10800022 	beqz	a0,9d0022c0 <decfloat+0x2c0>
9d002238:	24440001 	addiu	a0,v0,1
9d00223c:	ae24003c 	sw	a0,60(s1)
9d002240:	1000ff9b 	b	9d0020b0 <decfloat+0xb0>
9d002244:	90420000 	lbu	v0,0(v0)
9d002248:	009e282b 	sltu	a1,a0,s8
9d00224c:	0080f025 	move	s8,a0
9d002250:	2ac4007d 	slti	a0,s6,125
9d002254:	10800014 	beqz	a0,9d0022a8 <decfloat+0x2a8>
9d002258:	00a63021 	addu	a2,a1,a2
9d00225c:	38420030 	xori	v0,v0,0x30
9d002260:	03c2b80b 	movn	s7,s8,v0
9d002264:	12a00007 	beqz	s5,9d002284 <decfloat+0x284>
9d002268:	00161080 	sll	v0,s6,0x2
9d00226c:	27a30010 	addiu	v1,sp,16
9d002270:	00622021 	addu	a0,v1,v0
9d002274:	8c840000 	lw	a0,0(a0)
9d002278:	2405000a 	li	a1,10
9d00227c:	70a41802 	mul	v1,a1,a0
9d002280:	006b5821 	addu	t3,v1,t3
9d002284:	27a30010 	addiu	v1,sp,16
9d002288:	00621021 	addu	v0,v1,v0
9d00228c:	26b50001 	addiu	s5,s5,1
9d002290:	ac4b0000 	sw	t3,0(v0)
9d002294:	16aaffe4 	bne	s5,t2,9d002228 <decfloat+0x228>
9d002298:	24130001 	li	s3,1
9d00229c:	26d60001 	addiu	s6,s6,1
9d0022a0:	1000ffe1 	b	9d002228 <decfloat+0x228>
9d0022a4:	0000a825 	move	s5,zero
9d0022a8:	1049ffdf 	beq	v0,t1,9d002228 <decfloat+0x228>
9d0022ac:	8fa20200 	lw	v0,512(sp)
9d0022b0:	2417045c 	li	s7,1116
9d0022b4:	34420001 	ori	v0,v0,0x1
9d0022b8:	1000ffdb 	b	9d002228 <decfloat+0x228>
9d0022bc:	afa20200 	sw	v0,512(sp)
9d0022c0:	02202025 	move	a0,s1
9d0022c4:	0f403330 	jal	9d00ccc0 <__shgetc>
9d0022c8:	afa60210 	sw	a2,528(sp)
9d0022cc:	240a0009 	li	t2,9
9d0022d0:	24090030 	li	t1,48
9d0022d4:	2407002e 	li	a3,46
9d0022d8:	1000ff75 	b	9d0020b0 <decfloat+0xb0>
9d0022dc:	8fa60210 	lw	a2,528(sp)
9d0022e0:	1000ff7b 	b	9d0020d0 <decfloat+0xd0>
9d0022e4:	2402002e 	li	v0,46
9d0022e8:	17d00017 	bne	s8,s0,9d002348 <decfloat+0x348>
9d0022ec:	8fa2025c 	lw	v0,604(sp)
9d0022f0:	14d40016 	bne	a2,s4,9d00234c <decfloat+0x34c>
9d0022f4:	8fa3025c 	lw	v1,604(sp)
9d0022f8:	1e800015 	bgtz	s4,9d002350 <decfloat+0x350>
9d0022fc:	000217c2 	srl	v0,v0,0x1f
9d002300:	16800005 	bnez	s4,9d002318 <decfloat+0x318>
9d002304:	8fa20258 	lw	v0,600(sp)
9d002308:	2e02000a 	sltiu	v0,s0,10
9d00230c:	1040000f 	beqz	v0,9d00234c <decfloat+0x34c>
9d002310:	8fa2025c 	lw	v0,604(sp)
9d002314:	8fa20258 	lw	v0,600(sp)
9d002318:	2842001f 	slti	v0,v0,31
9d00231c:	10400005 	beqz	v0,9d002334 <decfloat+0x334>
9d002320:	00000000 	nop
9d002324:	8fa20258 	lw	v0,600(sp)
9d002328:	00511006 	srlv	v0,s1,v0
9d00232c:	54400006 	bnezl	v0,9d002348 <decfloat+0x348>
9d002330:	8fa2025c 	lw	v0,604(sp)
9d002334:	0f403def 	jal	9d00f7bc <__floatunsidf>
9d002338:	02202025 	move	a0,s1
9d00233c:	02403025 	move	a2,s2
9d002340:	1000ff89 	b	9d002168 <decfloat+0x168>
9d002344:	02603825 	move	a3,s3
9d002348:	8fa3025c 	lw	v1,604(sp)
9d00234c:	000217c2 	srl	v0,v0,0x1f
9d002350:	00431021 	addu	v0,v0,v1
9d002354:	00021043 	sra	v0,v0,0x1
9d002358:	00021023 	negu	v0,v0
9d00235c:	00021fc3 	sra	v1,v0,0x1f
9d002360:	0074202a 	slt	a0,v1,s4
9d002364:	54800007 	bnezl	a0,9d002384 <decfloat+0x384>
9d002368:	3c109d00 	lui	s0,0x9d00
9d00236c:	56830010 	bnel	s4,v1,9d0023b0 <decfloat+0x3b0>
9d002370:	8fa2025c 	lw	v0,604(sp)
9d002374:	0050102b 	sltu	v0,v0,s0
9d002378:	5040000d 	beqzl	v0,9d0023b0 <decfloat+0x3b0>
9d00237c:	8fa2025c 	lw	v0,604(sp)
9d002380:	3c109d00 	lui	s0,0x9d00
9d002384:	8e061f48 	lw	a2,8008(s0)
9d002388:	8e071f4c 	lw	a3,8012(s0)
9d00238c:	3c02a001 	lui	v0,0xa001
9d002390:	24030022 	li	v1,34
9d002394:	ac433fbc 	sw	v1,16316(v0)
9d002398:	02402025 	move	a0,s2
9d00239c:	0f402611 	jal	9d009844 <__muldf3>
9d0023a0:	02602825 	move	a1,s3
9d0023a4:	8e061f48 	lw	a2,8008(s0)
9d0023a8:	1000ff6f 	b	9d002168 <decfloat+0x168>
9d0023ac:	8e071f4c 	lw	a3,8012(s0)
9d0023b0:	2442ff96 	addiu	v0,v0,-106
9d0023b4:	00021fc3 	sra	v1,v0,0x1f
9d0023b8:	0283202a 	slt	a0,s4,v1
9d0023bc:	54800006 	bnezl	a0,9d0023d8 <decfloat+0x3d8>
9d0023c0:	3c109d00 	lui	s0,0x9d00
9d0023c4:	1474000f 	bne	v1,s4,9d002404 <decfloat+0x404>
9d0023c8:	0202102b 	sltu	v0,s0,v0
9d0023cc:	1040000d 	beqz	v0,9d002404 <decfloat+0x404>
9d0023d0:	00000000 	nop
9d0023d4:	3c109d00 	lui	s0,0x9d00
9d0023d8:	8e061f50 	lw	a2,8016(s0)
9d0023dc:	8e071f54 	lw	a3,8020(s0)
9d0023e0:	3c02a001 	lui	v0,0xa001
9d0023e4:	24030022 	li	v1,34
9d0023e8:	ac433fbc 	sw	v1,16316(v0)
9d0023ec:	02402025 	move	a0,s2
9d0023f0:	0f402611 	jal	9d009844 <__muldf3>
9d0023f4:	02602825 	move	a1,s3
9d0023f8:	8e061f50 	lw	a2,8016(s0)
9d0023fc:	1000ff5a 	b	9d002168 <decfloat+0x168>
9d002400:	8e071f54 	lw	a3,8020(s0)
9d002404:	12a0000a 	beqz	s5,9d002430 <decfloat+0x430>
9d002408:	2ae20009 	slti	v0,s7,9
9d00240c:	00161080 	sll	v0,s6,0x2
9d002410:	27a30010 	addiu	v1,sp,16
9d002414:	00621021 	addu	v0,v1,v0
9d002418:	2404000a 	li	a0,10
9d00241c:	2aa30009 	slti	v1,s5,9
9d002420:	54600029 	bnezl	v1,9d0024c8 <decfloat+0x4c8>
9d002424:	8c430000 	lw	v1,0(v0)
9d002428:	26d60001 	addiu	s6,s6,1
9d00242c:	2ae20009 	slti	v0,s7,9
9d002430:	10400048 	beqz	v0,9d002554 <decfloat+0x554>
9d002434:	0200a025 	move	s4,s0
9d002438:	0217b82a 	slt	s7,s0,s7
9d00243c:	16e00046 	bnez	s7,9d002558 <decfloat+0x558>
9d002440:	26c3ffff 	addiu	v1,s6,-1
9d002444:	2a020012 	slti	v0,s0,18
9d002448:	10400044 	beqz	v0,9d00255c <decfloat+0x55c>
9d00244c:	00031080 	sll	v0,v1,0x2
9d002450:	24020009 	li	v0,9
9d002454:	1202ffb7 	beq	s0,v0,9d002334 <decfloat+0x334>
9d002458:	8fb10010 	lw	s1,16(sp)
9d00245c:	2a020009 	slti	v0,s0,9
9d002460:	5040001d 	beqzl	v0,9d0024d8 <decfloat+0x4d8>
9d002464:	2602fff7 	addiu	v0,s0,-9
9d002468:	0f403def 	jal	9d00f7bc <__floatunsidf>
9d00246c:	02202025 	move	a0,s1
9d002470:	00602825 	move	a1,v1
9d002474:	02403025 	move	a2,s2
9d002478:	02603825 	move	a3,s3
9d00247c:	0f402611 	jal	9d009844 <__muldf3>
9d002480:	00402025 	move	a0,v0
9d002484:	00409025 	move	s2,v0
9d002488:	24020008 	li	v0,8
9d00248c:	00508023 	subu	s0,v0,s0
9d002490:	3c029d01 	lui	v0,0x9d01
9d002494:	2442fc30 	addiu	v0,v0,-976
9d002498:	00108080 	sll	s0,s0,0x2
9d00249c:	02028021 	addu	s0,s0,v0
9d0024a0:	8e040000 	lw	a0,0(s0)
9d0024a4:	0f403aee 	jal	9d00ebb8 <__floatsidf>
9d0024a8:	00609825 	move	s3,v1
9d0024ac:	00403025 	move	a2,v0
9d0024b0:	00603825 	move	a3,v1
9d0024b4:	02402025 	move	a0,s2
9d0024b8:	0f401da9 	jal	9d0076a4 <__divdf3>
9d0024bc:	02602825 	move	a1,s3
9d0024c0:	1000022c 	b	9d002d74 <decfloat+0xd74>
9d0024c4:	8fbf024c 	lw	ra,588(sp)
9d0024c8:	26b50001 	addiu	s5,s5,1
9d0024cc:	70641802 	mul	v1,v1,a0
9d0024d0:	1000ffd2 	b	9d00241c <decfloat+0x41c>
9d0024d4:	ac430000 	sw	v1,0(v0)
9d0024d8:	00021880 	sll	v1,v0,0x2
9d0024dc:	00431023 	subu	v0,v0,v1
9d0024e0:	8fa30258 	lw	v1,600(sp)
9d0024e4:	00431021 	addu	v0,v0,v1
9d0024e8:	2843001f 	slti	v1,v0,31
9d0024ec:	50600005 	beqzl	v1,9d002504 <decfloat+0x504>
9d0024f0:	2610fff6 	addiu	s0,s0,-10
9d0024f4:	00511006 	srlv	v0,s1,v0
9d0024f8:	54400017 	bnezl	v0,9d002558 <decfloat+0x558>
9d0024fc:	26c3ffff 	addiu	v1,s6,-1
9d002500:	2610fff6 	addiu	s0,s0,-10
9d002504:	3c029d01 	lui	v0,0x9d01
9d002508:	2442fc30 	addiu	v0,v0,-976
9d00250c:	00108080 	sll	s0,s0,0x2
9d002510:	02028021 	addu	s0,s0,v0
9d002514:	0f403aee 	jal	9d00ebb8 <__floatsidf>
9d002518:	8e040000 	lw	a0,0(s0)
9d00251c:	02202025 	move	a0,s1
9d002520:	0040a025 	move	s4,v0
9d002524:	0f403def 	jal	9d00f7bc <__floatunsidf>
9d002528:	0060a825 	move	s5,v1
9d00252c:	00402025 	move	a0,v0
9d002530:	02403025 	move	a2,s2
9d002534:	02603825 	move	a3,s3
9d002538:	0f402611 	jal	9d009844 <__muldf3>
9d00253c:	00602825 	move	a1,v1
9d002540:	00403025 	move	a2,v0
9d002544:	00603825 	move	a3,v1
9d002548:	02802025 	move	a0,s4
9d00254c:	1000ff08 	b	9d002170 <decfloat+0x170>
9d002550:	02a02825 	move	a1,s5
9d002554:	26c3ffff 	addiu	v1,s6,-1
9d002558:	00031080 	sll	v0,v1,0x2
9d00255c:	27a40010 	addiu	a0,sp,16
9d002560:	00821021 	addu	v0,a0,v0
9d002564:	8c420000 	lw	v0,0(v0)
9d002568:	5040fffa 	beqzl	v0,9d002554 <decfloat+0x554>
9d00256c:	0060b025 	move	s6,v1
9d002570:	24090009 	li	t1,9
9d002574:	0209001a 	div	zero,s0,t1
9d002578:	012001f4 	teq	t1,zero,0x7
9d00257c:	00004810 	mfhi	t1
9d002580:	1120001c 	beqz	t1,9d0025f4 <decfloat+0x5f4>
9d002584:	3c0c0089 	lui	t4,0x89
9d002588:	06020001 	bltzl	s0,9d002590 <decfloat+0x590>
9d00258c:	25290009 	addiu	t1,t1,9
9d002590:	24020008 	li	v0,8
9d002594:	00491023 	subu	v0,v0,t1
9d002598:	3c039d01 	lui	v1,0x9d01
9d00259c:	2463fc30 	addiu	v1,v1,-976
9d0025a0:	00021080 	sll	v0,v0,0x2
9d0025a4:	00431021 	addu	v0,v0,v1
9d0025a8:	8c460000 	lw	a2,0(v0)
9d0025ac:	3c073b9a 	lui	a3,0x3b9a
9d0025b0:	27a50010 	addiu	a1,sp,16
9d0025b4:	00001825 	move	v1,zero
9d0025b8:	00005025 	move	t2,zero
9d0025bc:	00002025 	move	a0,zero
9d0025c0:	34e7ca00 	ori	a3,a3,0xca00
9d0025c4:	54960014 	bnel	a0,s6,9d002618 <decfloat+0x618>
9d0025c8:	8ca20000 	lw	v0,0(a1)
9d0025cc:	10600006 	beqz	v1,9d0025e8 <decfloat+0x5e8>
9d0025d0:	0289a023 	subu	s4,s4,t1
9d0025d4:	00161080 	sll	v0,s6,0x2
9d0025d8:	27a40010 	addiu	a0,sp,16
9d0025dc:	00821021 	addu	v0,a0,v0
9d0025e0:	ac430000 	sw	v1,0(v0)
9d0025e4:	26d60001 	addiu	s6,s6,1
9d0025e8:	26940009 	addiu	s4,s4,9
9d0025ec:	01404825 	move	t1,t2
9d0025f0:	3c0c0089 	lui	t4,0x89
9d0025f4:	3c103b9a 	lui	s0,0x3b9a
9d0025f8:	3c0d3b9a 	lui	t5,0x3b9a
9d0025fc:	0000b825 	move	s7,zero
9d002600:	240e0012 	li	t6,18
9d002604:	258c705f 	addiu	t4,t4,28767
9d002608:	3610ca00 	ori	s0,s0,0xca00
9d00260c:	00008825 	move	s1,zero
9d002610:	10000062 	b	9d00279c <decfloat+0x79c>
9d002614:	35adca01 	ori	t5,t5,0xca01
9d002618:	0046001b 	divu	zero,v0,a2
9d00261c:	00c001f4 	teq	a2,zero,0x7
9d002620:	00005810 	mfhi	t3
9d002624:	00001012 	mflo	v0
9d002628:	00431021 	addu	v0,v0,v1
9d00262c:	aca20000 	sw	v0,0(a1)
9d002630:	00e6001a 	div	zero,a3,a2
9d002634:	00c001f4 	teq	a2,zero,0x7
9d002638:	00001812 	mflo	v1
9d00263c:	706b1802 	mul	v1,v1,t3
9d002640:	148a0005 	bne	a0,t2,9d002658 <decfloat+0x658>
9d002644:	248b0001 	addiu	t3,a0,1
9d002648:	54400004 	bnezl	v0,9d00265c <decfloat+0x65c>
9d00264c:	01602025 	move	a0,t3
9d002650:	316a007f 	andi	t2,t3,0x7f
9d002654:	2694fff7 	addiu	s4,s4,-9
9d002658:	01602025 	move	a0,t3
9d00265c:	1000ffd9 	b	9d0025c4 <decfloat+0x5c4>
9d002660:	24a50004 	addiu	a1,a1,4
9d002664:	26f7ffe3 	addiu	s7,s7,-29
9d002668:	32b5007f 	andi	s5,s5,0x7f
9d00266c:	00005025 	move	t2,zero
9d002670:	00155880 	sll	t3,s5,0x2
9d002674:	27a20010 	addiu	v0,sp,16
9d002678:	004b1021 	addu	v0,v0,t3
9d00267c:	8c5e0000 	lw	s8,0(v0)
9d002680:	001e10c2 	srl	v0,s8,0x3
9d002684:	001ef740 	sll	s8,s8,0x1d
9d002688:	03ca7821 	addu	t7,s8,t2
9d00268c:	01fef02b 	sltu	s8,t7,s8
9d002690:	03c2f021 	addu	s8,s8,v0
9d002694:	17c00005 	bnez	s8,9d0026ac <decfloat+0x6ac>
9d002698:	01e02025 	move	a0,t7
9d00269c:	01ed102b 	sltu	v0,t7,t5
9d0026a0:	14400024 	bnez	v0,9d002734 <decfloat+0x734>
9d0026a4:	01e01025 	move	v0,t7
9d0026a8:	01e02025 	move	a0,t7
9d0026ac:	02003025 	move	a2,s0
9d0026b0:	02203825 	move	a3,s1
9d0026b4:	03c02825 	move	a1,s8
9d0026b8:	afab0220 	sw	t3,544(sp)
9d0026bc:	afa90218 	sw	t1,536(sp)
9d0026c0:	0f402516 	jal	9d009458 <__udivdi3>
9d0026c4:	afaf0214 	sw	t7,532(sp)
9d0026c8:	8faf0214 	lw	t7,532(sp)
9d0026cc:	02003025 	move	a2,s0
9d0026d0:	02203825 	move	a3,s1
9d0026d4:	01e02025 	move	a0,t7
9d0026d8:	03c02825 	move	a1,s8
9d0026dc:	0f402418 	jal	9d009060 <__umoddi3>
9d0026e0:	afa20210 	sw	v0,528(sp)
9d0026e4:	3c030089 	lui	v1,0x89
9d0026e8:	8faa0210 	lw	t2,528(sp)
9d0026ec:	8fa90218 	lw	t1,536(sp)
9d0026f0:	8fab0220 	lw	t3,544(sp)
9d0026f4:	346c705f 	ori	t4,v1,0x705f
9d0026f8:	3c033b9a 	lui	v1,0x3b9a
9d0026fc:	240e0012 	li	t6,18
9d002700:	346dca01 	ori	t5,v1,0xca01
9d002704:	27a30010 	addiu	v1,sp,16
9d002708:	006b5821 	addu	t3,v1,t3
9d00270c:	26c3ffff 	addiu	v1,s6,-1
9d002710:	3063007f 	andi	v1,v1,0x7f
9d002714:	14750009 	bne	v1,s5,9d00273c <decfloat+0x73c>
9d002718:	ad620000 	sw	v0,0(t3)
9d00271c:	52a90009 	beql	s5,t1,9d002744 <decfloat+0x744>
9d002720:	01201825 	move	v1,t1
9d002724:	02a2b00a 	movz	s6,s5,v0
9d002728:	26b5ffff 	addiu	s5,s5,-1
9d00272c:	1000ffd0 	b	9d002670 <decfloat+0x670>
9d002730:	32b5007f 	andi	s5,s5,0x7f
9d002734:	1000fff3 	b	9d002704 <decfloat+0x704>
9d002738:	00005025 	move	t2,zero
9d00273c:	56a9fffb 	bnel	s5,t1,9d00272c <decfloat+0x72c>
9d002740:	26b5ffff 	addiu	s5,s5,-1
9d002744:	11400016 	beqz	t2,9d0027a0 <decfloat+0x7a0>
9d002748:	2a820012 	slti	v0,s4,18
9d00274c:	2529ffff 	addiu	t1,t1,-1
9d002750:	3129007f 	andi	t1,t1,0x7f
9d002754:	16c9000d 	bne	s6,t1,9d00278c <decfloat+0x78c>
9d002758:	26940009 	addiu	s4,s4,9
9d00275c:	2462ffff 	addiu	v0,v1,-1
9d002760:	3042007f 	andi	v0,v0,0x7f
9d002764:	27a40010 	addiu	a0,sp,16
9d002768:	00021080 	sll	v0,v0,0x2
9d00276c:	00032880 	sll	a1,v1,0x2
9d002770:	00821021 	addu	v0,a0,v0
9d002774:	00852821 	addu	a1,a0,a1
9d002778:	8ca50000 	lw	a1,0(a1)
9d00277c:	8c440000 	lw	a0,0(v0)
9d002780:	0060b025 	move	s6,v1
9d002784:	00852025 	or	a0,a0,a1
9d002788:	ac440000 	sw	a0,0(v0)
9d00278c:	00091080 	sll	v0,t1,0x2
9d002790:	27a30010 	addiu	v1,sp,16
9d002794:	00621021 	addu	v0,v1,v0
9d002798:	ac4a0000 	sw	t2,0(v0)
9d00279c:	2a820012 	slti	v0,s4,18
9d0027a0:	5440ffb0 	bnezl	v0,9d002664 <decfloat+0x664>
9d0027a4:	26d5ffff 	addiu	s5,s6,-1
9d0027a8:	168e0007 	bne	s4,t6,9d0027c8 <decfloat+0x7c8>
9d0027ac:	00091080 	sll	v0,t1,0x2
9d0027b0:	27a30010 	addiu	v1,sp,16
9d0027b4:	00621021 	addu	v0,v1,v0
9d0027b8:	8c420000 	lw	v0,0(v0)
9d0027bc:	004c102b 	sltu	v0,v0,t4
9d0027c0:	5440ffa8 	bnezl	v0,9d002664 <decfloat+0x664>
9d0027c4:	26d5ffff 	addiu	s5,s6,-1
9d0027c8:	3c040089 	lui	a0,0x89
9d0027cc:	3c050f2f 	lui	a1,0xf2f
9d0027d0:	3c063b9a 	lui	a2,0x3b9a
9d0027d4:	240a0012 	li	t2,18
9d0027d8:	2484705f 	addiu	a0,a0,28767
9d0027dc:	24a50a00 	addiu	a1,a1,2560
9d0027e0:	24070001 	li	a3,1
9d0027e4:	240b0009 	li	t3,9
9d0027e8:	34c6ca00 	ori	a2,a2,0xca00
9d0027ec:	11360012 	beq	t1,s6,9d002838 <decfloat+0x838>
9d0027f0:	27a30010 	addiu	v1,sp,16
9d0027f4:	00091080 	sll	v0,t1,0x2
9d0027f8:	00621021 	addu	v0,v1,v0
9d0027fc:	8c420000 	lw	v0,0(v0)
9d002800:	0044182b 	sltu	v1,v0,a0
9d002804:	1460000c 	bnez	v1,9d002838 <decfloat+0x838>
9d002808:	00000000 	nop
9d00280c:	1444000c 	bne	v0,a0,9d002840 <decfloat+0x840>
9d002810:	25220001 	addiu	v0,t1,1
9d002814:	3042007f 	andi	v0,v0,0x7f
9d002818:	12c20007 	beq	s6,v0,9d002838 <decfloat+0x838>
9d00281c:	00021080 	sll	v0,v0,0x2
9d002820:	27a30010 	addiu	v1,sp,16
9d002824:	00621021 	addu	v0,v1,v0
9d002828:	8c420000 	lw	v0,0(v0)
9d00282c:	0045102b 	sltu	v0,v0,a1
9d002830:	10400004 	beqz	v0,9d002844 <decfloat+0x844>
9d002834:	2a82001c 	slti	v0,s4,28
9d002838:	128a0030 	beq	s4,t2,9d0028fc <decfloat+0x8fc>
9d00283c:	00000000 	nop
9d002840:	2a82001c 	slti	v0,s4,28
9d002844:	01601825 	move	v1,t3
9d002848:	00e2180b 	movn	v1,a3,v0
9d00284c:	0067c004 	sllv	t8,a3,v1
9d002850:	00601025 	move	v0,v1
9d002854:	02e3b821 	addu	s7,s7,v1
9d002858:	0066c807 	srav	t9,a2,v1
9d00285c:	2718ffff 	addiu	t8,t8,-1
9d002860:	01201825 	move	v1,t1
9d002864:	00006025 	move	t4,zero
9d002868:	1476000b 	bne	v1,s6,9d002898 <decfloat+0x898>
9d00286c:	00037880 	sll	t7,v1,0x2
9d002870:	1180ffde 	beqz	t4,9d0027ec <decfloat+0x7ec>
9d002874:	26c20001 	addiu	v0,s6,1
9d002878:	3042007f 	andi	v0,v0,0x7f
9d00287c:	10490016 	beq	v0,t1,9d0028d8 <decfloat+0x8d8>
9d002880:	00164080 	sll	t0,s6,0x2
9d002884:	27a30010 	addiu	v1,sp,16
9d002888:	00684021 	addu	t0,v1,t0
9d00288c:	ad0c0000 	sw	t4,0(t0)
9d002890:	1000ffd6 	b	9d0027ec <decfloat+0x7ec>
9d002894:	0040b025 	move	s6,v0
9d002898:	27a80010 	addiu	t0,sp,16
9d00289c:	010f7821 	addu	t7,t0,t7
9d0028a0:	8dee0000 	lw	t6,0(t7)
9d0028a4:	004e6806 	srlv	t5,t6,v0
9d0028a8:	01ac6821 	addu	t5,t5,t4
9d0028ac:	030e6024 	and	t4,t8,t6
9d0028b0:	aded0000 	sw	t5,0(t7)
9d0028b4:	71996002 	mul	t4,t4,t9
9d0028b8:	14690005 	bne	v1,t1,9d0028d0 <decfloat+0x8d0>
9d0028bc:	246e0001 	addiu	t6,v1,1
9d0028c0:	55a0ffe9 	bnezl	t5,9d002868 <decfloat+0x868>
9d0028c4:	31c3007f 	andi	v1,t6,0x7f
9d0028c8:	31c9007f 	andi	t1,t6,0x7f
9d0028cc:	2694fff7 	addiu	s4,s4,-9
9d0028d0:	1000ffe5 	b	9d002868 <decfloat+0x868>
9d0028d4:	31c3007f 	andi	v1,t6,0x7f
9d0028d8:	26c2ffff 	addiu	v0,s6,-1
9d0028dc:	3042007f 	andi	v0,v0,0x7f
9d0028e0:	27a30010 	addiu	v1,sp,16
9d0028e4:	00021080 	sll	v0,v0,0x2
9d0028e8:	00621021 	addu	v0,v1,v0
9d0028ec:	8c430000 	lw	v1,0(v0)
9d0028f0:	34630001 	ori	v1,v1,0x1
9d0028f4:	1000ffbd 	b	9d0027ec <decfloat+0x7ec>
9d0028f8:	ac430000 	sw	v1,0(v0)
9d0028fc:	15360007 	bne	t1,s6,9d00291c <decfloat+0x91c>
9d002900:	25340001 	addiu	s4,t1,1
9d002904:	3296007f 	andi	s6,s4,0x7f
9d002908:	26c2ffff 	addiu	v0,s6,-1
9d00290c:	00021080 	sll	v0,v0,0x2
9d002910:	27a30010 	addiu	v1,sp,16
9d002914:	00621021 	addu	v0,v1,v0
9d002918:	ac400000 	sw	zero,0(v0)
9d00291c:	00091080 	sll	v0,t1,0x2
9d002920:	27a30010 	addiu	v1,sp,16
9d002924:	00621021 	addu	v0,v1,v0
9d002928:	8c440000 	lw	a0,0(v0)
9d00292c:	afa90210 	sw	t1,528(sp)
9d002930:	0f403def 	jal	9d00f7bc <__floatunsidf>
9d002934:	3294007f 	andi	s4,s4,0x7f
9d002938:	00402025 	move	a0,v0
9d00293c:	00602825 	move	a1,v1
9d002940:	00003025 	move	a2,zero
9d002944:	0f402210 	jal	9d008840 <__adddf3>
9d002948:	00003825 	move	a3,zero
9d00294c:	00402025 	move	a0,v0
9d002950:	00602825 	move	a1,v1
9d002954:	16d40008 	bne	s6,s4,9d002978 <decfloat+0x978>
9d002958:	8fa90210 	lw	t1,528(sp)
9d00295c:	26c80001 	addiu	t0,s6,1
9d002960:	3116007f 	andi	s6,t0,0x7f
9d002964:	26c3ffff 	addiu	v1,s6,-1
9d002968:	00031880 	sll	v1,v1,0x2
9d00296c:	27a20010 	addiu	v0,sp,16
9d002970:	00431821 	addu	v1,v0,v1
9d002974:	ac600000 	sw	zero,0(v1)
9d002978:	3c029d00 	lui	v0,0x9d00
9d00297c:	8c461f58 	lw	a2,8024(v0)
9d002980:	8c471f5c 	lw	a3,8028(v0)
9d002984:	afa90210 	sw	t1,528(sp)
9d002988:	0f402611 	jal	9d009844 <__muldf3>
9d00298c:	0014a080 	sll	s4,s4,0x2
9d002990:	00408025 	move	s0,v0
9d002994:	27a20010 	addiu	v0,sp,16
9d002998:	0054a021 	addu	s4,v0,s4
9d00299c:	8e840000 	lw	a0,0(s4)
9d0029a0:	0f403def 	jal	9d00f7bc <__floatunsidf>
9d0029a4:	00608825 	move	s1,v1
9d0029a8:	00402025 	move	a0,v0
9d0029ac:	02003025 	move	a2,s0
9d0029b0:	02203825 	move	a3,s1
9d0029b4:	0f402210 	jal	9d008840 <__adddf3>
9d0029b8:	00602825 	move	a1,v1
9d0029bc:	00403025 	move	a2,v0
9d0029c0:	00603825 	move	a3,v1
9d0029c4:	02402025 	move	a0,s2
9d0029c8:	0f402611 	jal	9d009844 <__muldf3>
9d0029cc:	02602825 	move	a1,s3
9d0029d0:	0060a825 	move	s5,v1
9d0029d4:	8fa3025c 	lw	v1,604(sp)
9d0029d8:	0040a025 	move	s4,v0
9d0029dc:	26e20035 	addiu	v0,s7,53
9d0029e0:	00431023 	subu	v0,v0,v1
9d0029e4:	8fa30258 	lw	v1,600(sp)
9d0029e8:	afa20214 	sw	v0,532(sp)
9d0029ec:	0043102a 	slt	v0,v0,v1
9d0029f0:	104000b5 	beqz	v0,9d002cc8 <decfloat+0xcc8>
9d0029f4:	8fa90210 	lw	t1,528(sp)
9d0029f8:	8fa20214 	lw	v0,532(sp)
9d0029fc:	044200b5 	bltzl	v0,9d002cd4 <decfloat+0xcd4>
9d002a00:	24020001 	li	v0,1
9d002a04:	0040f025 	move	s8,v0
9d002a08:	24020001 	li	v0,1
9d002a0c:	afa20210 	sw	v0,528(sp)
9d002a10:	2bc20035 	slti	v0,s8,53
9d002a14:	504000b2 	beqzl	v0,9d002ce0 <decfloat+0xce0>
9d002a18:	afa00218 	sw	zero,536(sp)
9d002a1c:	3c029d00 	lui	v0,0x9d00
9d002a20:	8c501f60 	lw	s0,8032(v0)
9d002a24:	8c511f64 	lw	s1,8036(v0)
9d002a28:	24060069 	li	a2,105
9d002a2c:	02002025 	move	a0,s0
9d002a30:	02202825 	move	a1,s1
9d002a34:	00de3023 	subu	a2,a2,s8
9d002a38:	0f40354c 	jal	9d00d530 <scalbn>
9d002a3c:	afa90220 	sw	t1,544(sp)
9d002a40:	00402025 	move	a0,v0
9d002a44:	02a03825 	move	a3,s5
9d002a48:	02803025 	move	a2,s4
9d002a4c:	0f403f1f 	jal	9d00fc7c <copysignl>
9d002a50:	00602825 	move	a1,v1
9d002a54:	24060035 	li	a2,53
9d002a58:	02002025 	move	a0,s0
9d002a5c:	02202825 	move	a1,s1
9d002a60:	00de3023 	subu	a2,a2,s8
9d002a64:	afa20218 	sw	v0,536(sp)
9d002a68:	0f40354c 	jal	9d00d530 <scalbn>
9d002a6c:	afa3021c 	sw	v1,540(sp)
9d002a70:	00403025 	move	a2,v0
9d002a74:	02802025 	move	a0,s4
9d002a78:	02a02825 	move	a1,s5
9d002a7c:	0f4028db 	jal	9d00a36c <dpfmod>
9d002a80:	00603825 	move	a3,v1
9d002a84:	00403025 	move	a2,v0
9d002a88:	02802025 	move	a0,s4
9d002a8c:	02a02825 	move	a1,s5
9d002a90:	00603825 	move	a3,v1
9d002a94:	00408025 	move	s0,v0
9d002a98:	0f40220e 	jal	9d008838 <__subdf3>
9d002a9c:	00608825 	move	s1,v1
9d002aa0:	8fa40218 	lw	a0,536(sp)
9d002aa4:	8fa5021c 	lw	a1,540(sp)
9d002aa8:	00403025 	move	a2,v0
9d002aac:	0f402210 	jal	9d008840 <__adddf3>
9d002ab0:	00603825 	move	a3,v1
9d002ab4:	8fa90220 	lw	t1,544(sp)
9d002ab8:	0040a025 	move	s4,v0
9d002abc:	0060a825 	move	s5,v1
9d002ac0:	25220002 	addiu	v0,t1,2
9d002ac4:	3042007f 	andi	v0,v0,0x7f
9d002ac8:	10560036 	beq	v0,s6,9d002ba4 <decfloat+0xba4>
9d002acc:	27a30010 	addiu	v1,sp,16
9d002ad0:	00021080 	sll	v0,v0,0x2
9d002ad4:	00621021 	addu	v0,v1,v0
9d002ad8:	8c430000 	lw	v1,0(v0)
9d002adc:	3c021dcd 	lui	v0,0x1dcd
9d002ae0:	24426500 	addiu	v0,v0,25856
9d002ae4:	0062202b 	sltu	a0,v1,v0
9d002ae8:	10800081 	beqz	a0,9d002cf0 <decfloat+0xcf0>
9d002aec:	00000000 	nop
9d002af0:	14600005 	bnez	v1,9d002b08 <decfloat+0xb08>
9d002af4:	3c029d00 	lui	v0,0x9d00
9d002af8:	25290003 	addiu	t1,t1,3
9d002afc:	3129007f 	andi	t1,t1,0x7f
9d002b00:	5136000e 	beql	t1,s6,9d002b3c <decfloat+0xb3c>
9d002b04:	24020035 	li	v0,53
9d002b08:	8c461f68 	lw	a2,8040(v0)
9d002b0c:	8c471f6c 	lw	a3,8044(v0)
9d002b10:	02402025 	move	a0,s2
9d002b14:	0f402611 	jal	9d009844 <__muldf3>
9d002b18:	02602825 	move	a1,s3
9d002b1c:	00403025 	move	a2,v0
9d002b20:	02002025 	move	a0,s0
9d002b24:	02202825 	move	a1,s1
9d002b28:	0f402210 	jal	9d008840 <__adddf3>
9d002b2c:	00603825 	move	a3,v1
9d002b30:	00408025 	move	s0,v0
9d002b34:	00608825 	move	s1,v1
9d002b38:	24020035 	li	v0,53
9d002b3c:	005e1023 	subu	v0,v0,s8
9d002b40:	28420002 	slti	v0,v0,2
9d002b44:	14400018 	bnez	v0,9d002ba8 <decfloat+0xba8>
9d002b48:	8fa2025c 	lw	v0,604(sp)
9d002b4c:	3c029d00 	lui	v0,0x9d00
9d002b50:	8c521f60 	lw	s2,8032(v0)
9d002b54:	8c531f64 	lw	s3,8036(v0)
9d002b58:	02002025 	move	a0,s0
9d002b5c:	02403025 	move	a2,s2
9d002b60:	02603825 	move	a3,s3
9d002b64:	0f4028db 	jal	9d00a36c <dpfmod>
9d002b68:	02202825 	move	a1,s1
9d002b6c:	00402025 	move	a0,v0
9d002b70:	00003025 	move	a2,zero
9d002b74:	00003825 	move	a3,zero
9d002b78:	0f403250 	jal	9d00c940 <__eqdf2>
9d002b7c:	00602825 	move	a1,v1
9d002b80:	14400009 	bnez	v0,9d002ba8 <decfloat+0xba8>
9d002b84:	8fa2025c 	lw	v0,604(sp)
9d002b88:	02002025 	move	a0,s0
9d002b8c:	02202825 	move	a1,s1
9d002b90:	02403025 	move	a2,s2
9d002b94:	0f402210 	jal	9d008840 <__adddf3>
9d002b98:	02603825 	move	a3,s3
9d002b9c:	00408025 	move	s0,v0
9d002ba0:	00608825 	move	s1,v1
9d002ba4:	8fa2025c 	lw	v0,604(sp)
9d002ba8:	8fa30258 	lw	v1,600(sp)
9d002bac:	02003025 	move	a2,s0
9d002bb0:	00021023 	negu	v0,v0
9d002bb4:	02203825 	move	a3,s1
9d002bb8:	02802025 	move	a0,s4
9d002bbc:	02a02825 	move	a1,s5
9d002bc0:	0f402210 	jal	9d008840 <__adddf3>
9d002bc4:	0043b023 	subu	s6,v0,v1
9d002bc8:	8fa60218 	lw	a2,536(sp)
9d002bcc:	8fa7021c 	lw	a3,540(sp)
9d002bd0:	00402025 	move	a0,v0
9d002bd4:	0f40220e 	jal	9d008838 <__subdf3>
9d002bd8:	00602825 	move	a1,v1
9d002bdc:	00409025 	move	s2,v0
9d002be0:	26e20035 	addiu	v0,s7,53
9d002be4:	00609825 	move	s3,v1
9d002be8:	7c42f000 	ext	v0,v0,0x0,0x1f
9d002bec:	26c3ffff 	addiu	v1,s6,-1
9d002bf0:	0043102a 	slt	v0,v0,v1
9d002bf4:	1440002f 	bnez	v0,9d002cb4 <decfloat+0xcb4>
9d002bf8:	02e03025 	move	a2,s7
9d002bfc:	02402025 	move	a0,s2
9d002c00:	0f40402e 	jal	9d0100b8 <fabsl>
9d002c04:	02602825 	move	a1,s3
9d002c08:	3c049d00 	lui	a0,0x9d00
9d002c0c:	8c861f80 	lw	a2,8064(a0)
9d002c10:	8c871f84 	lw	a3,8068(a0)
9d002c14:	00602825 	move	a1,v1
9d002c18:	0f403250 	jal	9d00c940 <__eqdf2>
9d002c1c:	00402025 	move	a0,v0
9d002c20:	04400012 	bltz	v0,9d002c6c <decfloat+0xc6c>
9d002c24:	26e20034 	addiu	v0,s7,52
9d002c28:	8fa20210 	lw	v0,528(sp)
9d002c2c:	10400006 	beqz	v0,9d002c48 <decfloat+0xc48>
9d002c30:	3c029d00 	lui	v0,0x9d00
9d002c34:	8fa20214 	lw	v0,532(sp)
9d002c38:	005ef026 	xor	s8,v0,s8
9d002c3c:	001e102b 	sltu	v0,zero,s8
9d002c40:	afa20210 	sw	v0,528(sp)
9d002c44:	3c029d00 	lui	v0,0x9d00
9d002c48:	8c461f78 	lw	a2,8056(v0)
9d002c4c:	8c471f7c 	lw	a3,8060(v0)
9d002c50:	02402025 	move	a0,s2
9d002c54:	0f402611 	jal	9d009844 <__muldf3>
9d002c58:	02602825 	move	a1,s3
9d002c5c:	00409025 	move	s2,v0
9d002c60:	00609825 	move	s3,v1
9d002c64:	26f70001 	addiu	s7,s7,1
9d002c68:	26e20034 	addiu	v0,s7,52
9d002c6c:	26d60003 	addiu	s6,s6,3
9d002c70:	0056b02a 	slt	s6,v0,s6
9d002c74:	12c0000c 	beqz	s6,9d002ca8 <decfloat+0xca8>
9d002c78:	3c02a001 	lui	v0,0xa001
9d002c7c:	8fa20210 	lw	v0,528(sp)
9d002c80:	1040000c 	beqz	v0,9d002cb4 <decfloat+0xcb4>
9d002c84:	02e03025 	move	a2,s7
9d002c88:	00003025 	move	a2,zero
9d002c8c:	00003825 	move	a3,zero
9d002c90:	02002025 	move	a0,s0
9d002c94:	0f403250 	jal	9d00c940 <__eqdf2>
9d002c98:	02202825 	move	a1,s1
9d002c9c:	10400005 	beqz	v0,9d002cb4 <decfloat+0xcb4>
9d002ca0:	02e03025 	move	a2,s7
9d002ca4:	3c02a001 	lui	v0,0xa001
9d002ca8:	24030022 	li	v1,34
9d002cac:	ac433fbc 	sw	v1,16316(v0)
9d002cb0:	02e03025 	move	a2,s7
9d002cb4:	02402025 	move	a0,s2
9d002cb8:	0f404035 	jal	9d0100d4 <scalbnl>
9d002cbc:	02602825 	move	a1,s3
9d002cc0:	1000002c 	b	9d002d74 <decfloat+0xd74>
9d002cc4:	8fbf024c 	lw	ra,588(sp)
9d002cc8:	8fbe0258 	lw	s8,600(sp)
9d002ccc:	1000ff50 	b	9d002a10 <decfloat+0xa10>
9d002cd0:	afa00210 	sw	zero,528(sp)
9d002cd4:	afa20210 	sw	v0,528(sp)
9d002cd8:	1000ff50 	b	9d002a1c <decfloat+0xa1c>
9d002cdc:	0000f025 	move	s8,zero
9d002ce0:	afa0021c 	sw	zero,540(sp)
9d002ce4:	00008025 	move	s0,zero
9d002ce8:	1000ff75 	b	9d002ac0 <decfloat+0xac0>
9d002cec:	00008825 	move	s1,zero
9d002cf0:	10620005 	beq	v1,v0,9d002d08 <decfloat+0xd08>
9d002cf4:	25290003 	addiu	t1,t1,3
9d002cf8:	3c029d00 	lui	v0,0x9d00
9d002cfc:	8c461f70 	lw	a2,8048(v0)
9d002d00:	1000ff83 	b	9d002b10 <decfloat+0xb10>
9d002d04:	8c471f74 	lw	a3,8052(v0)
9d002d08:	3129007f 	andi	t1,t1,0x7f
9d002d0c:	1536fffb 	bne	t1,s6,9d002cfc <decfloat+0xcfc>
9d002d10:	3c029d00 	lui	v0,0x9d00
9d002d14:	3c029d00 	lui	v0,0x9d00
9d002d18:	8c461f78 	lw	a2,8056(v0)
9d002d1c:	1000ff7c 	b	9d002b10 <decfloat+0xb10>
9d002d20:	8c471f7c 	lw	a3,8060(v0)
9d002d24:	0440000a 	bltz	v0,9d002d50 <decfloat+0xd50>
9d002d28:	3c02a001 	lui	v0,0xa001
9d002d2c:	8e22004c 	lw	v0,76(s1)
9d002d30:	10400004 	beqz	v0,9d002d44 <decfloat+0xd44>
9d002d34:	00000000 	nop
9d002d38:	8e22003c 	lw	v0,60(s1)
9d002d3c:	2442ffff 	addiu	v0,v0,-1
9d002d40:	ae22003c 	sw	v0,60(s1)
9d002d44:	1660fcff 	bnez	s3,9d002144 <decfloat+0x144>
9d002d48:	8fa40260 	lw	a0,608(sp)
9d002d4c:	3c02a001 	lui	v0,0xa001
9d002d50:	24030016 	li	v1,22
9d002d54:	ac433fbc 	sw	v1,16316(v0)
9d002d58:	00003025 	move	a2,zero
9d002d5c:	00003825 	move	a3,zero
9d002d60:	0f403d3c 	jal	9d00f4f0 <__shlim>
9d002d64:	02202025 	move	a0,s1
9d002d68:	00001025 	move	v0,zero
9d002d6c:	00001825 	move	v1,zero
9d002d70:	8fbf024c 	lw	ra,588(sp)
9d002d74:	8fbe0248 	lw	s8,584(sp)
9d002d78:	8fb70244 	lw	s7,580(sp)
9d002d7c:	8fb60240 	lw	s6,576(sp)
9d002d80:	8fb5023c 	lw	s5,572(sp)
9d002d84:	8fb40238 	lw	s4,568(sp)
9d002d88:	8fb30234 	lw	s3,564(sp)
9d002d8c:	8fb20230 	lw	s2,560(sp)
9d002d90:	8fb1022c 	lw	s1,556(sp)
9d002d94:	8fb00228 	lw	s0,552(sp)
9d002d98:	03e00008 	jr	ra
9d002d9c:	27bd0250 	addiu	sp,sp,592
9d002da0:	0443ffe3 	bgezl	v0,9d002d30 <decfloat+0xd30>
9d002da4:	8e22004c 	lw	v0,76(s1)
9d002da8:	1000fce6 	b	9d002144 <decfloat+0x144>
9d002dac:	8fa40260 	lw	a0,608(sp)

Disassembly of section .text.__floatscan:

9d002db0 <__floatscan>:
9d002db0:	2ca70003 	sltiu	a3,a1,3
9d002db4:	00001025 	move	v0,zero
9d002db8:	10e0030c 	beqz	a3,9d0039ec <__floatscan+0xc3c>
9d002dbc:	00001825 	move	v1,zero
9d002dc0:	3c029d01 	lui	v0,0x9d01
9d002dc4:	2442fc2c 	addiu	v0,v0,-980
9d002dc8:	00a21021 	addu	v0,a1,v0
9d002dcc:	80420000 	lb	v0,0(v0)
9d002dd0:	27bdff80 	addiu	sp,sp,-128
9d002dd4:	00052840 	sll	a1,a1,0x1
9d002dd8:	afa20024 	sw	v0,36(sp)
9d002ddc:	3c029d01 	lui	v0,0x9d01
9d002de0:	2442fc24 	addiu	v0,v0,-988
9d002de4:	00a22821 	addu	a1,a1,v0
9d002de8:	84a20000 	lh	v0,0(a1)
9d002dec:	afb70074 	sw	s7,116(sp)
9d002df0:	afb60070 	sw	s6,112(sp)
9d002df4:	afb00058 	sw	s0,88(sp)
9d002df8:	afbf007c 	sw	ra,124(sp)
9d002dfc:	afbe0078 	sw	s8,120(sp)
9d002e00:	afb5006c 	sw	s5,108(sp)
9d002e04:	afb40068 	sw	s4,104(sp)
9d002e08:	afb30064 	sw	s3,100(sp)
9d002e0c:	afb20060 	sw	s2,96(sp)
9d002e10:	afb1005c 	sw	s1,92(sp)
9d002e14:	00c0b025 	move	s6,a2
9d002e18:	0080b825 	move	s7,a0
9d002e1c:	afa20018 	sw	v0,24(sp)
9d002e20:	24100020 	li	s0,32
9d002e24:	8ee2003c 	lw	v0,60(s7)
9d002e28:	8ee3004c 	lw	v1,76(s7)
9d002e2c:	0043182b 	sltu	v1,v0,v1
9d002e30:	10600039 	beqz	v1,9d002f18 <__floatscan+0x168>
9d002e34:	24430001 	addiu	v1,v0,1
9d002e38:	aee3003c 	sw	v1,60(s7)
9d002e3c:	90520000 	lbu	s2,0(v0)
9d002e40:	1250fff8 	beq	s2,s0,9d002e24 <__floatscan+0x74>
9d002e44:	2642fff7 	addiu	v0,s2,-9
9d002e48:	2c420005 	sltiu	v0,v0,5
9d002e4c:	5440fff6 	bnezl	v0,9d002e28 <__floatscan+0x78>
9d002e50:	8ee2003c 	lw	v0,60(s7)
9d002e54:	2402002b 	li	v0,43
9d002e58:	12420005 	beq	s2,v0,9d002e70 <__floatscan+0xc0>
9d002e5c:	00001025 	move	v0,zero
9d002e60:	2402002d 	li	v0,45
9d002e64:	1642000b 	bne	s2,v0,9d002e94 <__floatscan+0xe4>
9d002e68:	24110001 	li	s1,1
9d002e6c:	24020002 	li	v0,2
9d002e70:	24110001 	li	s1,1
9d002e74:	02228823 	subu	s1,s1,v0
9d002e78:	8ee3004c 	lw	v1,76(s7)
9d002e7c:	8ee2003c 	lw	v0,60(s7)
9d002e80:	0043182b 	sltu	v1,v0,v1
9d002e84:	10600028 	beqz	v1,9d002f28 <__floatscan+0x178>
9d002e88:	24430001 	addiu	v1,v0,1
9d002e8c:	aee3003c 	sw	v1,60(s7)
9d002e90:	90520000 	lbu	s2,0(v0)
9d002e94:	3c139d00 	lui	s3,0x9d00
9d002e98:	00008025 	move	s0,zero
9d002e9c:	26731f38 	addiu	s3,s3,7992
9d002ea0:	24140007 	li	s4,7
9d002ea4:	24150008 	li	s5,8
9d002ea8:	02701821 	addu	v1,s3,s0
9d002eac:	80630000 	lb	v1,0(v1)
9d002eb0:	36420020 	ori	v0,s2,0x20
9d002eb4:	10430020 	beq	v0,v1,9d002f38 <__floatscan+0x188>
9d002eb8:	24020003 	li	v0,3
9d002ebc:	52020007 	beql	s0,v0,9d002edc <__floatscan+0x12c>
9d002ec0:	8ee3004c 	lw	v1,76(s7)
9d002ec4:	2e020004 	sltiu	v0,s0,4
9d002ec8:	1440003d 	bnez	v0,9d002fc0 <__floatscan+0x210>
9d002ecc:	00000000 	nop
9d002ed0:	52c00048 	beqzl	s6,9d002ff4 <__floatscan+0x244>
9d002ed4:	8ee2004c 	lw	v0,76(s7)
9d002ed8:	8ee3004c 	lw	v1,76(s7)
9d002edc:	10600004 	beqz	v1,9d002ef0 <__floatscan+0x140>
9d002ee0:	00000000 	nop
9d002ee4:	8ee2003c 	lw	v0,60(s7)
9d002ee8:	2442ffff 	addiu	v0,v0,-1
9d002eec:	aee2003c 	sw	v0,60(s7)
9d002ef0:	12c0001d 	beqz	s6,9d002f68 <__floatscan+0x1b8>
9d002ef4:	24040003 	li	a0,3
9d002ef8:	1204001c 	beq	s0,a0,9d002f6c <__floatscan+0x1bc>
9d002efc:	2402ffff 	li	v0,-1
9d002f00:	1060fffd 	beqz	v1,9d002ef8 <__floatscan+0x148>
9d002f04:	2610ffff 	addiu	s0,s0,-1
9d002f08:	8ee2003c 	lw	v0,60(s7)
9d002f0c:	2442ffff 	addiu	v0,v0,-1
9d002f10:	1000fff9 	b	9d002ef8 <__floatscan+0x148>
9d002f14:	aee2003c 	sw	v0,60(s7)
9d002f18:	0f403330 	jal	9d00ccc0 <__shgetc>
9d002f1c:	02e02025 	move	a0,s7
9d002f20:	1000ffc7 	b	9d002e40 <__floatscan+0x90>
9d002f24:	00409025 	move	s2,v0
9d002f28:	0f403330 	jal	9d00ccc0 <__shgetc>
9d002f2c:	02e02025 	move	a0,s7
9d002f30:	1000ffd8 	b	9d002e94 <__floatscan+0xe4>
9d002f34:	00409025 	move	s2,v0
9d002f38:	52140009 	beql	s0,s4,9d002f60 <__floatscan+0x1b0>
9d002f3c:	26100001 	addiu	s0,s0,1
9d002f40:	8ee2003c 	lw	v0,60(s7)
9d002f44:	8ee3004c 	lw	v1,76(s7)
9d002f48:	0043182b 	sltu	v1,v0,v1
9d002f4c:	10600018 	beqz	v1,9d002fb0 <__floatscan+0x200>
9d002f50:	24430001 	addiu	v1,v0,1
9d002f54:	aee3003c 	sw	v1,60(s7)
9d002f58:	90520000 	lbu	s2,0(v0)
9d002f5c:	26100001 	addiu	s0,s0,1
9d002f60:	1615ffd2 	bne	s0,s5,9d002eac <__floatscan+0xfc>
9d002f64:	02701821 	addu	v1,s3,s0
9d002f68:	2402ffff 	li	v0,-1
9d002f6c:	12220294 	beq	s1,v0,9d0039c0 <__floatscan+0xc10>
9d002f70:	3c029d00 	lui	v0,0x9d00
9d002f74:	3c029d00 	lui	v0,0x9d00
9d002f78:	8c431f9c 	lw	v1,8092(v0)
9d002f7c:	8c421f98 	lw	v0,8088(v0)
9d002f80:	8fbf007c 	lw	ra,124(sp)
9d002f84:	8fbe0078 	lw	s8,120(sp)
9d002f88:	8fb70074 	lw	s7,116(sp)
9d002f8c:	8fb60070 	lw	s6,112(sp)
9d002f90:	8fb5006c 	lw	s5,108(sp)
9d002f94:	8fb40068 	lw	s4,104(sp)
9d002f98:	8fb30064 	lw	s3,100(sp)
9d002f9c:	8fb20060 	lw	s2,96(sp)
9d002fa0:	8fb1005c 	lw	s1,92(sp)
9d002fa4:	8fb00058 	lw	s0,88(sp)
9d002fa8:	03e00008 	jr	ra
9d002fac:	27bd0080 	addiu	sp,sp,128
9d002fb0:	0f403330 	jal	9d00ccc0 <__shgetc>
9d002fb4:	02e02025 	move	a0,s7
9d002fb8:	1000ffe8 	b	9d002f5c <__floatscan+0x1ac>
9d002fbc:	00409025 	move	s2,v0
9d002fc0:	1600000b 	bnez	s0,9d002ff0 <__floatscan+0x240>
9d002fc4:	3c139d00 	lui	s3,0x9d00
9d002fc8:	26731f44 	addiu	s3,s3,8004
9d002fcc:	24140002 	li	s4,2
9d002fd0:	24150003 	li	s5,3
9d002fd4:	02701821 	addu	v1,s3,s0
9d002fd8:	80630000 	lb	v1,0(v1)
9d002fdc:	36420020 	ori	v0,s2,0x20
9d002fe0:	1043000a 	beq	v0,v1,9d00300c <__floatscan+0x25c>
9d002fe4:	00000000 	nop
9d002fe8:	12000069 	beqz	s0,9d003190 <__floatscan+0x3e0>
9d002fec:	8fa20024 	lw	v0,36(sp)
9d002ff0:	8ee2004c 	lw	v0,76(s7)
9d002ff4:	50400053 	beqzl	v0,9d003144 <__floatscan+0x394>
9d002ff8:	3c02a001 	lui	v0,0xa001
9d002ffc:	8ee2003c 	lw	v0,60(s7)
9d003000:	2442ffff 	addiu	v0,v0,-1
9d003004:	1000004e 	b	9d003140 <__floatscan+0x390>
9d003008:	aee2003c 	sw	v0,60(s7)
9d00300c:	52140009 	beql	s0,s4,9d003034 <__floatscan+0x284>
9d003010:	26100001 	addiu	s0,s0,1
9d003014:	8ee2003c 	lw	v0,60(s7)
9d003018:	8ee3004c 	lw	v1,76(s7)
9d00301c:	0043182b 	sltu	v1,v0,v1
9d003020:	1060000f 	beqz	v1,9d003060 <__floatscan+0x2b0>
9d003024:	24430001 	addiu	v1,v0,1
9d003028:	aee3003c 	sw	v1,60(s7)
9d00302c:	90520000 	lbu	s2,0(v0)
9d003030:	26100001 	addiu	s0,s0,1
9d003034:	1615ffe8 	bne	s0,s5,9d002fd8 <__floatscan+0x228>
9d003038:	02701821 	addu	v1,s3,s0
9d00303c:	8ee3003c 	lw	v1,60(s7)
9d003040:	8ee2004c 	lw	v0,76(s7)
9d003044:	0062102b 	sltu	v0,v1,v0
9d003048:	54400009 	bnezl	v0,9d003070 <__floatscan+0x2c0>
9d00304c:	24620001 	addiu	v0,v1,1
9d003050:	0f403330 	jal	9d00ccc0 <__shgetc>
9d003054:	02e02025 	move	a0,s7
9d003058:	10000008 	b	9d00307c <__floatscan+0x2cc>
9d00305c:	38420028 	xori	v0,v0,0x28
9d003060:	0f403330 	jal	9d00ccc0 <__shgetc>
9d003064:	02e02025 	move	a0,s7
9d003068:	1000fff1 	b	9d003030 <__floatscan+0x280>
9d00306c:	00409025 	move	s2,v0
9d003070:	aee2003c 	sw	v0,60(s7)
9d003074:	90620000 	lbu	v0,0(v1)
9d003078:	38420028 	xori	v0,v0,0x28
9d00307c:	0002102b 	sltu	v0,zero,v0
9d003080:	14400017 	bnez	v0,9d0030e0 <__floatscan+0x330>
9d003084:	24100001 	li	s0,1
9d003088:	2411ffdf 	li	s1,-33
9d00308c:	2412005f 	li	s2,95
9d003090:	8ee2003c 	lw	v0,60(s7)
9d003094:	8ee3004c 	lw	v1,76(s7)
9d003098:	0043182b 	sltu	v1,v0,v1
9d00309c:	1060001a 	beqz	v1,9d003108 <__floatscan+0x358>
9d0030a0:	00000000 	nop
9d0030a4:	24430001 	addiu	v1,v0,1
9d0030a8:	aee3003c 	sw	v1,60(s7)
9d0030ac:	90420000 	lbu	v0,0(v0)
9d0030b0:	2443ffd0 	addiu	v1,v0,-48
9d0030b4:	2c63000a 	sltiu	v1,v1,10
9d0030b8:	14600007 	bnez	v1,9d0030d8 <__floatscan+0x328>
9d0030bc:	00511824 	and	v1,v0,s1
9d0030c0:	2463ffbf 	addiu	v1,v1,-65
9d0030c4:	2c63001a 	sltiu	v1,v1,26
9d0030c8:	5460fff1 	bnezl	v1,9d003090 <__floatscan+0x2e0>
9d0030cc:	26100001 	addiu	s0,s0,1
9d0030d0:	14520011 	bne	v0,s2,9d003118 <__floatscan+0x368>
9d0030d4:	24030029 	li	v1,41
9d0030d8:	1000ffed 	b	9d003090 <__floatscan+0x2e0>
9d0030dc:	26100001 	addiu	s0,s0,1
9d0030e0:	8ee2004c 	lw	v0,76(s7)
9d0030e4:	54400005 	bnezl	v0,9d0030fc <__floatscan+0x34c>
9d0030e8:	8ee2003c 	lw	v0,60(s7)
9d0030ec:	3c029d00 	lui	v0,0x9d00
9d0030f0:	8c431f94 	lw	v1,8084(v0)
9d0030f4:	1000ffa2 	b	9d002f80 <__floatscan+0x1d0>
9d0030f8:	8c421f90 	lw	v0,8080(v0)
9d0030fc:	2442ffff 	addiu	v0,v0,-1
9d003100:	1000fffa 	b	9d0030ec <__floatscan+0x33c>
9d003104:	aee2003c 	sw	v0,60(s7)
9d003108:	0f403330 	jal	9d00ccc0 <__shgetc>
9d00310c:	02e02025 	move	a0,s7
9d003110:	1000ffe8 	b	9d0030b4 <__floatscan+0x304>
9d003114:	2443ffd0 	addiu	v1,v0,-48
9d003118:	1043fff5 	beq	v0,v1,9d0030f0 <__floatscan+0x340>
9d00311c:	3c029d00 	lui	v0,0x9d00
9d003120:	8ee3004c 	lw	v1,76(s7)
9d003124:	10600004 	beqz	v1,9d003138 <__floatscan+0x388>
9d003128:	00000000 	nop
9d00312c:	8ee2003c 	lw	v0,60(s7)
9d003130:	2442ffff 	addiu	v0,v0,-1
9d003134:	aee2003c 	sw	v0,60(s7)
9d003138:	16c00010 	bnez	s6,9d00317c <__floatscan+0x3cc>
9d00313c:	2404ffff 	li	a0,-1
9d003140:	3c02a001 	lui	v0,0xa001
9d003144:	24030016 	li	v1,22
9d003148:	ac433fbc 	sw	v1,16316(v0)
9d00314c:	00003025 	move	a2,zero
9d003150:	00003825 	move	a3,zero
9d003154:	0f403d3c 	jal	9d00f4f0 <__shlim>
9d003158:	02e02025 	move	a0,s7
9d00315c:	00001025 	move	v0,zero
9d003160:	1000ff87 	b	9d002f80 <__floatscan+0x1d0>
9d003164:	00001825 	move	v1,zero
9d003168:	50600005 	beqzl	v1,9d003180 <__floatscan+0x3d0>
9d00316c:	2610ffff 	addiu	s0,s0,-1
9d003170:	8ee2003c 	lw	v0,60(s7)
9d003174:	2442ffff 	addiu	v0,v0,-1
9d003178:	aee2003c 	sw	v0,60(s7)
9d00317c:	2610ffff 	addiu	s0,s0,-1
9d003180:	1604fff9 	bne	s0,a0,9d003168 <__floatscan+0x3b8>
9d003184:	3c029d00 	lui	v0,0x9d00
9d003188:	1000ffda 	b	9d0030f4 <__floatscan+0x344>
9d00318c:	8c431f94 	lw	v1,8084(v0)
9d003190:	afa20020 	sw	v0,32(sp)
9d003194:	24020030 	li	v0,48
9d003198:	16420201 	bne	s2,v0,9d0039a0 <__floatscan+0xbf0>
9d00319c:	8fa70018 	lw	a3,24(sp)
9d0031a0:	8ee2003c 	lw	v0,60(s7)
9d0031a4:	8ee3004c 	lw	v1,76(s7)
9d0031a8:	0043182b 	sltu	v1,v0,v1
9d0031ac:	1060004c 	beqz	v1,9d0032e0 <__floatscan+0x530>
9d0031b0:	00000000 	nop
9d0031b4:	24430001 	addiu	v1,v0,1
9d0031b8:	aee3003c 	sw	v1,60(s7)
9d0031bc:	90420000 	lbu	v0,0(v0)
9d0031c0:	34420020 	ori	v0,v0,0x20
9d0031c4:	24040078 	li	a0,120
9d0031c8:	144401ef 	bne	v0,a0,9d003988 <__floatscan+0xbd8>
9d0031cc:	8ee3004c 	lw	v1,76(s7)
9d0031d0:	8ee2003c 	lw	v0,60(s7)
9d0031d4:	0043182b 	sltu	v1,v0,v1
9d0031d8:	10600045 	beqz	v1,9d0032f0 <__floatscan+0x540>
9d0031dc:	00000000 	nop
9d0031e0:	24430001 	addiu	v1,v0,1
9d0031e4:	aee3003c 	sw	v1,60(s7)
9d0031e8:	90420000 	lbu	v0,0(v0)
9d0031ec:	00001825 	move	v1,zero
9d0031f0:	24120030 	li	s2,48
9d0031f4:	50520042 	beql	v0,s2,9d003300 <__floatscan+0x550>
9d0031f8:	8ee2003c 	lw	v0,60(s7)
9d0031fc:	2404002e 	li	a0,46
9d003200:	1044004c 	beq	v0,a0,9d003334 <__floatscan+0x584>
9d003204:	0000f025 	move	s8,zero
9d003208:	00006025 	move	t4,zero
9d00320c:	00006825 	move	t5,zero
9d003210:	3c049d00 	lui	a0,0x9d00
9d003214:	8c861f60 	lw	a2,8032(a0)
9d003218:	8c871f64 	lw	a3,8036(a0)
9d00321c:	afa40034 	sw	a0,52(sp)
9d003220:	3c049d00 	lui	a0,0x9d00
9d003224:	8c851f7c 	lw	a1,8060(a0)
9d003228:	8c841f78 	lw	a0,8056(a0)
9d00322c:	0000a025 	move	s4,zero
9d003230:	afa5003c 	sw	a1,60(sp)
9d003234:	afa40038 	sw	a0,56(sp)
9d003238:	3c049d00 	lui	a0,0x9d00
9d00323c:	8c851fa4 	lw	a1,8100(a0)
9d003240:	8c841fa0 	lw	a0,8096(a0)
9d003244:	0000a825 	move	s5,zero
9d003248:	afa00030 	sw	zero,48(sp)
9d00324c:	afa60028 	sw	a2,40(sp)
9d003250:	afa7002c 	sw	a3,44(sp)
9d003254:	00009025 	move	s2,zero
9d003258:	00009825 	move	s3,zero
9d00325c:	afa40040 	sw	a0,64(sp)
9d003260:	afa50044 	sw	a1,68(sp)
9d003264:	244effd0 	addiu	t6,v0,-48
9d003268:	2dc4000a 	sltiu	a0,t6,10
9d00326c:	14800056 	bnez	a0,9d0033c8 <__floatscan+0x618>
9d003270:	2404002e 	li	a0,46
9d003274:	34440020 	ori	a0,v0,0x20
9d003278:	2484ff9f 	addiu	a0,a0,-97
9d00327c:	2c840006 	sltiu	a0,a0,6
9d003280:	14800051 	bnez	a0,9d0033c8 <__floatscan+0x618>
9d003284:	2404002e 	li	a0,46
9d003288:	10440051 	beq	v0,a0,9d0033d0 <__floatscan+0x620>
9d00328c:	00000000 	nop
9d003290:	546000ba 	bnezl	v1,9d00357c <__floatscan+0x7cc>
9d003294:	028df00a 	movz	s8,s4,t5
9d003298:	8ee2004c 	lw	v0,76(s7)
9d00329c:	104001cb 	beqz	v0,9d0039cc <__floatscan+0xc1c>
9d0032a0:	00000000 	nop
9d0032a4:	12c000ad 	beqz	s6,9d00355c <__floatscan+0x7ac>
9d0032a8:	8ee2003c 	lw	v0,60(s7)
9d0032ac:	55a00002 	bnezl	t5,9d0032b8 <__floatscan+0x508>
9d0032b0:	2442fffd 	addiu	v0,v0,-3
9d0032b4:	2442fffe 	addiu	v0,v0,-2
9d0032b8:	aee2003c 	sw	v0,60(s7)
9d0032bc:	0f403aee 	jal	9d00ebb8 <__floatsidf>
9d0032c0:	02202025 	move	a0,s1
9d0032c4:	00003025 	move	a2,zero
9d0032c8:	00003825 	move	a3,zero
9d0032cc:	00402025 	move	a0,v0
9d0032d0:	0f402611 	jal	9d009844 <__muldf3>
9d0032d4:	00602825 	move	a1,v1
9d0032d8:	1000ff2a 	b	9d002f84 <__floatscan+0x1d4>
9d0032dc:	8fbf007c 	lw	ra,124(sp)
9d0032e0:	0f403330 	jal	9d00ccc0 <__shgetc>
9d0032e4:	02e02025 	move	a0,s7
9d0032e8:	1000ffb6 	b	9d0031c4 <__floatscan+0x414>
9d0032ec:	34420020 	ori	v0,v0,0x20
9d0032f0:	0f403330 	jal	9d00ccc0 <__shgetc>
9d0032f4:	02e02025 	move	a0,s7
9d0032f8:	1000ffbd 	b	9d0031f0 <__floatscan+0x440>
9d0032fc:	00001825 	move	v1,zero
9d003300:	8ee3004c 	lw	v1,76(s7)
9d003304:	0043182b 	sltu	v1,v0,v1
9d003308:	10600006 	beqz	v1,9d003324 <__floatscan+0x574>
9d00330c:	00000000 	nop
9d003310:	24430001 	addiu	v1,v0,1
9d003314:	aee3003c 	sw	v1,60(s7)
9d003318:	90420000 	lbu	v0,0(v0)
9d00331c:	1000ffb5 	b	9d0031f4 <__floatscan+0x444>
9d003320:	24030001 	li	v1,1
9d003324:	0f403330 	jal	9d00ccc0 <__shgetc>
9d003328:	02e02025 	move	a0,s7
9d00332c:	1000ffb1 	b	9d0031f4 <__floatscan+0x444>
9d003330:	24030001 	li	v1,1
9d003334:	8ee2003c 	lw	v0,60(s7)
9d003338:	8ee4004c 	lw	a0,76(s7)
9d00333c:	0044202b 	sltu	a0,v0,a0
9d003340:	1080000a 	beqz	a0,9d00336c <__floatscan+0x5bc>
9d003344:	24440001 	addiu	a0,v0,1
9d003348:	aee4003c 	sw	a0,60(s7)
9d00334c:	90420000 	lbu	v0,0(v0)
9d003350:	0000f025 	move	s8,zero
9d003354:	00006025 	move	t4,zero
9d003358:	24120030 	li	s2,48
9d00335c:	50520008 	beql	v0,s2,9d003380 <__floatscan+0x5d0>
9d003360:	8ee2003c 	lw	v0,60(s7)
9d003364:	1000ffaa 	b	9d003210 <__floatscan+0x460>
9d003368:	240d0001 	li	t5,1
9d00336c:	02e02025 	move	a0,s7
9d003370:	0f403330 	jal	9d00ccc0 <__shgetc>
9d003374:	afa30028 	sw	v1,40(sp)
9d003378:	1000fff5 	b	9d003350 <__floatscan+0x5a0>
9d00337c:	8fa30028 	lw	v1,40(sp)
9d003380:	8ee3004c 	lw	v1,76(s7)
9d003384:	0043182b 	sltu	v1,v0,v1
9d003388:	1060000b 	beqz	v1,9d0033b8 <__floatscan+0x608>
9d00338c:	02e02025 	move	a0,s7
9d003390:	24430001 	addiu	v1,v0,1
9d003394:	aee3003c 	sw	v1,60(s7)
9d003398:	90420000 	lbu	v0,0(v0)
9d00339c:	27c3ffff 	addiu	v1,s8,-1
9d0033a0:	007e202b 	sltu	a0,v1,s8
9d0033a4:	258cffff 	addiu	t4,t4,-1
9d0033a8:	0060f025 	move	s8,v1
9d0033ac:	008c6021 	addu	t4,a0,t4
9d0033b0:	1000ffea 	b	9d00335c <__floatscan+0x5ac>
9d0033b4:	24030001 	li	v1,1
9d0033b8:	0f403330 	jal	9d00ccc0 <__shgetc>
9d0033bc:	afac0028 	sw	t4,40(sp)
9d0033c0:	1000fff6 	b	9d00339c <__floatscan+0x5ec>
9d0033c4:	8fac0028 	lw	t4,40(sp)
9d0033c8:	54440011 	bnel	v0,a0,9d003410 <__floatscan+0x660>
9d0033cc:	2843003a 	slti	v1,v0,58
9d0033d0:	15a00182 	bnez	t5,9d0039dc <__floatscan+0xc2c>
9d0033d4:	02802825 	move	a1,s4
9d0033d8:	02a05025 	move	t2,s5
9d0033dc:	240d0001 	li	t5,1
9d0033e0:	8ee2003c 	lw	v0,60(s7)
9d0033e4:	8ee4004c 	lw	a0,76(s7)
9d0033e8:	0044202b 	sltu	a0,v0,a0
9d0033ec:	10800050 	beqz	a0,9d003530 <__floatscan+0x780>
9d0033f0:	24440001 	addiu	a0,v0,1
9d0033f4:	aee4003c 	sw	a0,60(s7)
9d0033f8:	90420000 	lbu	v0,0(v0)
9d0033fc:	0280f025 	move	s8,s4
9d003400:	02a06025 	move	t4,s5
9d003404:	00a0a025 	move	s4,a1
9d003408:	1000ff96 	b	9d003264 <__floatscan+0x4b4>
9d00340c:	0140a825 	move	s5,t2
9d003410:	14600002 	bnez	v1,9d00341c <__floatscan+0x66c>
9d003414:	34420020 	ori	v0,v0,0x20
9d003418:	244effa9 	addiu	t6,v0,-87
9d00341c:	1ea0002c 	bgtz	s5,9d0034d0 <__floatscan+0x720>
9d003420:	00000000 	nop
9d003424:	56a00005 	bnezl	s5,9d00343c <__floatscan+0x68c>
9d003428:	00108100 	sll	s0,s0,0x4
9d00342c:	2e820008 	sltiu	v0,s4,8
9d003430:	1040000a 	beqz	v0,9d00345c <__floatscan+0x6ac>
9d003434:	2e82000e 	sltiu	v0,s4,14
9d003438:	00108100 	sll	s0,s0,0x4
9d00343c:	01d08021 	addu	s0,t6,s0
9d003440:	26850001 	addiu	a1,s4,1
9d003444:	00b4502b 	sltu	t2,a1,s4
9d003448:	01555021 	addu	t2,t2,s5
9d00344c:	03c0a025 	move	s4,s8
9d003450:	0180a825 	move	s5,t4
9d003454:	1000ffe2 	b	9d0033e0 <__floatscan+0x630>
9d003458:	24030001 	li	v1,1
9d00345c:	1040001c 	beqz	v0,9d0034d0 <__floatscan+0x720>
9d003460:	8fa5002c 	lw	a1,44(sp)
9d003464:	8fa60040 	lw	a2,64(sp)
9d003468:	8fa70044 	lw	a3,68(sp)
9d00346c:	8fa40028 	lw	a0,40(sp)
9d003470:	afac0050 	sw	t4,80(sp)
9d003474:	afad0048 	sw	t5,72(sp)
9d003478:	0f402611 	jal	9d009844 <__muldf3>
9d00347c:	afae004c 	sw	t6,76(sp)
9d003480:	8fae004c 	lw	t6,76(sp)
9d003484:	afa20028 	sw	v0,40(sp)
9d003488:	afa3002c 	sw	v1,44(sp)
9d00348c:	0f403aee 	jal	9d00ebb8 <__floatsidf>
9d003490:	01c02025 	move	a0,t6
9d003494:	8fa60028 	lw	a2,40(sp)
9d003498:	8fa7002c 	lw	a3,44(sp)
9d00349c:	00402025 	move	a0,v0
9d0034a0:	0f402611 	jal	9d009844 <__muldf3>
9d0034a4:	00602825 	move	a1,v1
9d0034a8:	00403025 	move	a2,v0
9d0034ac:	02402025 	move	a0,s2
9d0034b0:	02602825 	move	a1,s3
9d0034b4:	0f402210 	jal	9d008840 <__adddf3>
9d0034b8:	00603825 	move	a3,v1
9d0034bc:	00409025 	move	s2,v0
9d0034c0:	00609825 	move	s3,v1
9d0034c4:	8fad0048 	lw	t5,72(sp)
9d0034c8:	1000ffdd 	b	9d003440 <__floatscan+0x690>
9d0034cc:	8fac0050 	lw	t4,80(sp)
9d0034d0:	11c0ffdc 	beqz	t6,9d003444 <__floatscan+0x694>
9d0034d4:	26850001 	addiu	a1,s4,1
9d0034d8:	8fa20030 	lw	v0,48(sp)
9d0034dc:	5440ffda 	bnezl	v0,9d003448 <__floatscan+0x698>
9d0034e0:	00b4502b 	sltu	t2,a1,s4
9d0034e4:	8fa60038 	lw	a2,56(sp)
9d0034e8:	8fa7003c 	lw	a3,60(sp)
9d0034ec:	8fa40028 	lw	a0,40(sp)
9d0034f0:	8fa5002c 	lw	a1,44(sp)
9d0034f4:	afac004c 	sw	t4,76(sp)
9d0034f8:	0f402611 	jal	9d009844 <__muldf3>
9d0034fc:	afad0048 	sw	t5,72(sp)
9d003500:	00403025 	move	a2,v0
9d003504:	02402025 	move	a0,s2
9d003508:	02602825 	move	a1,s3
9d00350c:	0f402210 	jal	9d008840 <__adddf3>
9d003510:	00603825 	move	a3,v1
9d003514:	00409025 	move	s2,v0
9d003518:	24020001 	li	v0,1
9d00351c:	00609825 	move	s3,v1
9d003520:	afa20030 	sw	v0,48(sp)
9d003524:	8fac004c 	lw	t4,76(sp)
9d003528:	1000ffc5 	b	9d003440 <__floatscan+0x690>
9d00352c:	8fad0048 	lw	t5,72(sp)
9d003530:	02e02025 	move	a0,s7
9d003534:	afaa0054 	sw	t2,84(sp)
9d003538:	afa50050 	sw	a1,80(sp)
9d00353c:	afa3004c 	sw	v1,76(sp)
9d003540:	0f403330 	jal	9d00ccc0 <__shgetc>
9d003544:	afad0048 	sw	t5,72(sp)
9d003548:	8faa0054 	lw	t2,84(sp)
9d00354c:	8fa50050 	lw	a1,80(sp)
9d003550:	8fa3004c 	lw	v1,76(sp)
9d003554:	1000ffa9 	b	9d0033fc <__floatscan+0x64c>
9d003558:	8fad0048 	lw	t5,72(sp)
9d00355c:	2442ffff 	addiu	v0,v0,-1
9d003560:	aee2003c 	sw	v0,60(s7)
9d003564:	00003025 	move	a2,zero
9d003568:	00003825 	move	a3,zero
9d00356c:	0f403d3c 	jal	9d00f4f0 <__shlim>
9d003570:	02e02025 	move	a0,s7
9d003574:	1000ff51 	b	9d0032bc <__floatscan+0x50c>
9d003578:	00000000 	nop
9d00357c:	02ad600a 	movz	t4,s5,t5
9d003580:	5ea00007 	bgtzl	s5,9d0035a0 <__floatscan+0x7f0>
9d003584:	34420020 	ori	v0,v0,0x20
9d003588:	16a00018 	bnez	s5,9d0035ec <__floatscan+0x83c>
9d00358c:	26830001 	addiu	v1,s4,1
9d003590:	2e830008 	sltiu	v1,s4,8
9d003594:	14600015 	bnez	v1,9d0035ec <__floatscan+0x83c>
9d003598:	26830001 	addiu	v1,s4,1
9d00359c:	34420020 	ori	v0,v0,0x20
9d0035a0:	24030070 	li	v1,112
9d0035a4:	54430040 	bnel	v0,v1,9d0036a8 <__floatscan+0x8f8>
9d0035a8:	8ee2004c 	lw	v0,76(s7)
9d0035ac:	02c02825 	move	a1,s6
9d0035b0:	02e02025 	move	a0,s7
9d0035b4:	0f402832 	jal	9d00a0c8 <scanexp>
9d0035b8:	afac0028 	sw	t4,40(sp)
9d0035bc:	14400013 	bnez	v0,9d00360c <__floatscan+0x85c>
9d0035c0:	8fac0028 	lw	t4,40(sp)
9d0035c4:	3c048000 	lui	a0,0x8000
9d0035c8:	14640010 	bne	v1,a0,9d00360c <__floatscan+0x85c>
9d0035cc:	00000000 	nop
9d0035d0:	12c0fedf 	beqz	s6,9d003150 <__floatscan+0x3a0>
9d0035d4:	00003025 	move	a2,zero
9d0035d8:	8ee3004c 	lw	v1,76(s7)
9d0035dc:	54600008 	bnezl	v1,9d003600 <__floatscan+0x850>
9d0035e0:	8ee3003c 	lw	v1,60(s7)
9d0035e4:	10000008 	b	9d003608 <__floatscan+0x858>
9d0035e8:	00001025 	move	v0,zero
9d0035ec:	0074202b 	sltu	a0,v1,s4
9d0035f0:	00108100 	sll	s0,s0,0x4
9d0035f4:	0060a025 	move	s4,v1
9d0035f8:	1000ffe1 	b	9d003580 <__floatscan+0x7d0>
9d0035fc:	0095a821 	addu	s5,a0,s5
9d003600:	2463ffff 	addiu	v1,v1,-1
9d003604:	aee3003c 	sw	v1,60(s7)
9d003608:	00001825 	move	v1,zero
9d00360c:	1200ff2b 	beqz	s0,9d0032bc <__floatscan+0x50c>
9d003610:	27c4fff8 	addiu	a0,s8,-8
9d003614:	009e482b 	sltu	t1,a0,s8
9d003618:	258cffff 	addiu	t4,t4,-1
9d00361c:	012c4821 	addu	t1,t1,t4
9d003620:	00042f82 	srl	a1,a0,0x1e
9d003624:	00094880 	sll	t1,t1,0x2
9d003628:	00042080 	sll	a0,a0,0x2
9d00362c:	00a94825 	or	t1,a1,t1
9d003630:	00821021 	addu	v0,a0,v0
9d003634:	0044202b 	sltu	a0,v0,a0
9d003638:	01231821 	addu	v1,t1,v1
9d00363c:	00831821 	addu	v1,a0,v1
9d003640:	8fa40018 	lw	a0,24(sp)
9d003644:	0040a025 	move	s4,v0
9d003648:	00042023 	negu	a0,a0
9d00364c:	00042fc3 	sra	a1,a0,0x1f
9d003650:	00a3302a 	slt	a2,a1,v1
9d003654:	14c00006 	bnez	a2,9d003670 <__floatscan+0x8c0>
9d003658:	0060a825 	move	s5,v1
9d00365c:	54650018 	bnel	v1,a1,9d0036c0 <__floatscan+0x910>
9d003660:	8fa40018 	lw	a0,24(sp)
9d003664:	0082202b 	sltu	a0,a0,v0
9d003668:	10800015 	beqz	a0,9d0036c0 <__floatscan+0x910>
9d00366c:	8fa40018 	lw	a0,24(sp)
9d003670:	3c02a001 	lui	v0,0xa001
9d003674:	24030022 	li	v1,34
9d003678:	3c109d00 	lui	s0,0x9d00
9d00367c:	02202025 	move	a0,s1
9d003680:	0f403aee 	jal	9d00ebb8 <__floatsidf>
9d003684:	ac433fbc 	sw	v1,16316(v0)
9d003688:	8e061f48 	lw	a2,8008(s0)
9d00368c:	8e071f4c 	lw	a3,8012(s0)
9d003690:	00402025 	move	a0,v0
9d003694:	0f402611 	jal	9d009844 <__muldf3>
9d003698:	00602825 	move	a1,v1
9d00369c:	8e061f48 	lw	a2,8008(s0)
9d0036a0:	1000ff0a 	b	9d0032cc <__floatscan+0x51c>
9d0036a4:	8e071f4c 	lw	a3,8012(s0)
9d0036a8:	5040ffd7 	beqzl	v0,9d003608 <__floatscan+0x858>
9d0036ac:	00001025 	move	v0,zero
9d0036b0:	8ee2003c 	lw	v0,60(s7)
9d0036b4:	2442ffff 	addiu	v0,v0,-1
9d0036b8:	1000ffca 	b	9d0035e4 <__floatscan+0x834>
9d0036bc:	aee2003c 	sw	v0,60(s7)
9d0036c0:	2484ff96 	addiu	a0,a0,-106
9d0036c4:	00042fc3 	sra	a1,a0,0x1f
9d0036c8:	0065302a 	slt	a2,v1,a1
9d0036cc:	54c00007 	bnezl	a2,9d0036ec <__floatscan+0x93c>
9d0036d0:	3c02a001 	lui	v0,0xa001
9d0036d4:	54a300a2 	bnel	a1,v1,9d003960 <__floatscan+0xbb0>
9d0036d8:	3c029d00 	lui	v0,0x9d00
9d0036dc:	0044102b 	sltu	v0,v0,a0
9d0036e0:	5040009f 	beqzl	v0,9d003960 <__floatscan+0xbb0>
9d0036e4:	3c029d00 	lui	v0,0x9d00
9d0036e8:	3c02a001 	lui	v0,0xa001
9d0036ec:	24030022 	li	v1,34
9d0036f0:	3c109d00 	lui	s0,0x9d00
9d0036f4:	02202025 	move	a0,s1
9d0036f8:	0f403aee 	jal	9d00ebb8 <__floatsidf>
9d0036fc:	ac433fbc 	sw	v1,16316(v0)
9d003700:	8e061f50 	lw	a2,8016(s0)
9d003704:	8e071f54 	lw	a3,8020(s0)
9d003708:	00402025 	move	a0,v0
9d00370c:	0f402611 	jal	9d009844 <__muldf3>
9d003710:	00602825 	move	a1,v1
9d003714:	8e061f50 	lw	a2,8016(s0)
9d003718:	1000feec 	b	9d0032cc <__floatscan+0x51c>
9d00371c:	8e071f54 	lw	a3,8020(s0)
9d003720:	02e03825 	move	a3,s7
9d003724:	02402025 	move	a0,s2
9d003728:	02602825 	move	a1,s3
9d00372c:	0f403250 	jal	9d00c940 <__eqdf2>
9d003730:	00108040 	sll	s0,s0,0x1
9d003734:	04400088 	bltz	v0,9d003958 <__floatscan+0xba8>
9d003738:	02403025 	move	a2,s2
9d00373c:	8fa60028 	lw	a2,40(sp)
9d003740:	8fa7002c 	lw	a3,44(sp)
9d003744:	02402025 	move	a0,s2
9d003748:	0f40220e 	jal	9d008838 <__subdf3>
9d00374c:	02602825 	move	a1,s3
9d003750:	26100001 	addiu	s0,s0,1
9d003754:	00403025 	move	a2,v0
9d003758:	00603825 	move	a3,v1
9d00375c:	02402025 	move	a0,s2
9d003760:	0f402210 	jal	9d008840 <__adddf3>
9d003764:	02602825 	move	a1,s3
9d003768:	00409025 	move	s2,v0
9d00376c:	2682ffff 	addiu	v0,s4,-1
9d003770:	00609825 	move	s3,v1
9d003774:	26b5ffff 	addiu	s5,s5,-1
9d003778:	0054182b 	sltu	v1,v0,s4
9d00377c:	0075a821 	addu	s5,v1,s5
9d003780:	0040a025 	move	s4,v0
9d003784:	0601ffe6 	bgez	s0,9d003720 <__floatscan+0x970>
9d003788:	02c03025 	move	a2,s6
9d00378c:	8fa20024 	lw	v0,36(sp)
9d003790:	8fa40018 	lw	a0,24(sp)
9d003794:	26830020 	addiu	v1,s4,32
9d003798:	00022fc3 	sra	a1,v0,0x1f
9d00379c:	0074102b 	sltu	v0,v1,s4
9d0037a0:	00551021 	addu	v0,v0,s5
9d0037a4:	0004afc3 	sra	s5,a0,0x1f
9d0037a8:	00642023 	subu	a0,v1,a0
9d0037ac:	0055a823 	subu	s5,v0,s5
9d0037b0:	0064182b 	sltu	v1,v1,a0
9d0037b4:	02a3a823 	subu	s5,s5,v1
9d0037b8:	02a5102a 	slt	v0,s5,a1
9d0037bc:	14400008 	bnez	v0,9d0037e0 <__floatscan+0xa30>
9d0037c0:	8fa20018 	lw	v0,24(sp)
9d0037c4:	14b5000b 	bne	a1,s5,9d0037f4 <__floatscan+0xa44>
9d0037c8:	8fa20020 	lw	v0,32(sp)
9d0037cc:	8fa20024 	lw	v0,36(sp)
9d0037d0:	0082202b 	sltu	a0,a0,v0
9d0037d4:	10800007 	beqz	a0,9d0037f4 <__floatscan+0xa44>
9d0037d8:	8fa20020 	lw	v0,32(sp)
9d0037dc:	8fa20018 	lw	v0,24(sp)
9d0037e0:	0282b823 	subu	s7,s4,v0
9d0037e4:	26e20020 	addiu	v0,s7,32
9d0037e8:	04400065 	bltz	v0,9d003980 <__floatscan+0xbd0>
9d0037ec:	afa20020 	sw	v0,32(sp)
9d0037f0:	8fa20020 	lw	v0,32(sp)
9d0037f4:	0000b025 	move	s6,zero
9d0037f8:	28420035 	slti	v0,v0,53
9d0037fc:	10400022 	beqz	v0,9d003888 <__floatscan+0xad8>
9d003800:	0000b825 	move	s7,zero
9d003804:	8fa20020 	lw	v0,32(sp)
9d003808:	24060054 	li	a2,84
9d00380c:	00c23023 	subu	a2,a2,v0
9d003810:	8fa20034 	lw	v0,52(sp)
9d003814:	8c451f64 	lw	a1,8036(v0)
9d003818:	0f40354c 	jal	9d00d530 <scalbn>
9d00381c:	8c441f60 	lw	a0,8032(v0)
9d003820:	02202025 	move	a0,s1
9d003824:	0040b025 	move	s6,v0
9d003828:	0f403aee 	jal	9d00ebb8 <__floatsidf>
9d00382c:	0060b825 	move	s7,v1
9d003830:	00403025 	move	a2,v0
9d003834:	02c02025 	move	a0,s6
9d003838:	02e02825 	move	a1,s7
9d00383c:	0f403f1f 	jal	9d00fc7c <copysignl>
9d003840:	00603825 	move	a3,v1
9d003844:	0040b025 	move	s6,v0
9d003848:	8fa20020 	lw	v0,32(sp)
9d00384c:	285e0020 	slti	s8,v0,32
9d003850:	13c0000d 	beqz	s8,9d003888 <__floatscan+0xad8>
9d003854:	0060b825 	move	s7,v1
9d003858:	00003025 	move	a2,zero
9d00385c:	00003825 	move	a3,zero
9d003860:	02402025 	move	a0,s2
9d003864:	0f403250 	jal	9d00c940 <__eqdf2>
9d003868:	02602825 	move	a1,s3
9d00386c:	10400006 	beqz	v0,9d003888 <__floatscan+0xad8>
9d003870:	32020001 	andi	v0,s0,0x1
9d003874:	14400004 	bnez	v0,9d003888 <__floatscan+0xad8>
9d003878:	00000000 	nop
9d00387c:	26100001 	addiu	s0,s0,1
9d003880:	00009025 	move	s2,zero
9d003884:	00009825 	move	s3,zero
9d003888:	0f403aee 	jal	9d00ebb8 <__floatsidf>
9d00388c:	02202025 	move	a0,s1
9d003890:	00602825 	move	a1,v1
9d003894:	02403025 	move	a2,s2
9d003898:	02603825 	move	a3,s3
9d00389c:	00402025 	move	a0,v0
9d0038a0:	afa20018 	sw	v0,24(sp)
9d0038a4:	0f402611 	jal	9d009844 <__muldf3>
9d0038a8:	afa3001c 	sw	v1,28(sp)
9d0038ac:	02002025 	move	a0,s0
9d0038b0:	00409025 	move	s2,v0
9d0038b4:	0f403def 	jal	9d00f7bc <__floatunsidf>
9d0038b8:	00609825 	move	s3,v1
9d0038bc:	8fa80018 	lw	t0,24(sp)
9d0038c0:	8fa9001c 	lw	t1,28(sp)
9d0038c4:	00402025 	move	a0,v0
9d0038c8:	01003025 	move	a2,t0
9d0038cc:	01203825 	move	a3,t1
9d0038d0:	0f402611 	jal	9d009844 <__muldf3>
9d0038d4:	00602825 	move	a1,v1
9d0038d8:	00402025 	move	a0,v0
9d0038dc:	02c03025 	move	a2,s6
9d0038e0:	02e03825 	move	a3,s7
9d0038e4:	0f402210 	jal	9d008840 <__adddf3>
9d0038e8:	00602825 	move	a1,v1
9d0038ec:	00402025 	move	a0,v0
9d0038f0:	02403025 	move	a2,s2
9d0038f4:	02603825 	move	a3,s3
9d0038f8:	0f402210 	jal	9d008840 <__adddf3>
9d0038fc:	00602825 	move	a1,v1
9d003900:	00402025 	move	a0,v0
9d003904:	02c03025 	move	a2,s6
9d003908:	02e03825 	move	a3,s7
9d00390c:	0f40220e 	jal	9d008838 <__subdf3>
9d003910:	00602825 	move	a1,v1
9d003914:	00402025 	move	a0,v0
9d003918:	00003025 	move	a2,zero
9d00391c:	00003825 	move	a3,zero
9d003920:	00602825 	move	a1,v1
9d003924:	00408025 	move	s0,v0
9d003928:	0f403250 	jal	9d00c940 <__eqdf2>
9d00392c:	00608825 	move	s1,v1
9d003930:	14400004 	bnez	v0,9d003944 <__floatscan+0xb94>
9d003934:	02803025 	move	a2,s4
9d003938:	3c02a001 	lui	v0,0xa001
9d00393c:	24030022 	li	v1,34
9d003940:	ac433fbc 	sw	v1,16316(v0)
9d003944:	02002025 	move	a0,s0
9d003948:	0f404035 	jal	9d0100d4 <scalbnl>
9d00394c:	02202825 	move	a1,s1
9d003950:	1000fd8c 	b	9d002f84 <__floatscan+0x1d4>
9d003954:	8fbf007c 	lw	ra,124(sp)
9d003958:	1000ff80 	b	9d00375c <__floatscan+0x9ac>
9d00395c:	02603825 	move	a3,s3
9d003960:	8c561f78 	lw	s6,8056(v0)
9d003964:	8c571f7c 	lw	s7,8060(v0)
9d003968:	8fa20034 	lw	v0,52(sp)
9d00396c:	8c431f64 	lw	v1,8036(v0)
9d003970:	8c421f60 	lw	v0,8032(v0)
9d003974:	afa3002c 	sw	v1,44(sp)
9d003978:	1000ff82 	b	9d003784 <__floatscan+0x9d4>
9d00397c:	afa20028 	sw	v0,40(sp)
9d003980:	1000ffa0 	b	9d003804 <__floatscan+0xa54>
9d003984:	afa00020 	sw	zero,32(sp)
9d003988:	10600005 	beqz	v1,9d0039a0 <__floatscan+0xbf0>
9d00398c:	8fa70018 	lw	a3,24(sp)
9d003990:	8ee2003c 	lw	v0,60(s7)
9d003994:	2442ffff 	addiu	v0,v0,-1
9d003998:	aee2003c 	sw	v0,60(s7)
9d00399c:	8fa70018 	lw	a3,24(sp)
9d0039a0:	8fa60024 	lw	a2,36(sp)
9d0039a4:	afb60014 	sw	s6,20(sp)
9d0039a8:	afb10010 	sw	s1,16(sp)
9d0039ac:	02402825 	move	a1,s2
9d0039b0:	0f400800 	jal	9d002000 <decfloat>
9d0039b4:	02e02025 	move	a0,s7
9d0039b8:	1000fd72 	b	9d002f84 <__floatscan+0x1d4>
9d0039bc:	8fbf007c 	lw	ra,124(sp)
9d0039c0:	8c431f8c 	lw	v1,8076(v0)
9d0039c4:	1000fd6e 	b	9d002f80 <__floatscan+0x1d0>
9d0039c8:	8c421f88 	lw	v0,8072(v0)
9d0039cc:	16c0fe3b 	bnez	s6,9d0032bc <__floatscan+0x50c>
9d0039d0:	00003025 	move	a2,zero
9d0039d4:	1000fee5 	b	9d00356c <__floatscan+0x7bc>
9d0039d8:	00003825 	move	a3,zero
9d0039dc:	1460fee8 	bnez	v1,9d003580 <__floatscan+0x7d0>
9d0039e0:	2402002e 	li	v0,46
9d0039e4:	1000fe2d 	b	9d00329c <__floatscan+0x4ec>
9d0039e8:	8ee2004c 	lw	v0,76(s7)
9d0039ec:	03e00008 	jr	ra
9d0039f0:	00000000 	nop

Disassembly of section .text:

9d0039f4 <CController>:
static volatile int eint = 0;
static volatile float REFArray[100];
static volatile float CValArray[100];
static volatile float dcur;

void __ISR(_TIMER_2_VECTOR, IPL4SOFT) CController(void){
9d0039f4:	415de800 	rdpgpr	sp,sp
9d0039f8:	401a7000 	mfc0	k0,c0_epc
9d0039fc:	401b6000 	mfc0	k1,c0_status
9d003a00:	27bdff80 	addiu	sp,sp,-128
9d003a04:	afba007c 	sw	k0,124(sp)
9d003a08:	401a6002 	mfc0	k0,c0_srsctl
9d003a0c:	afbb0078 	sw	k1,120(sp)
9d003a10:	afba0074 	sw	k0,116(sp)
9d003a14:	7c1b7844 	ins	k1,zero,0x1,0xf
9d003a18:	377b1000 	ori	k1,k1,0x1000
9d003a1c:	409b6000 	mtc0	k1,c0_status
9d003a20:	afbf0064 	sw	ra,100(sp)
9d003a24:	afb90060 	sw	t9,96(sp)
9d003a28:	afb8005c 	sw	t8,92(sp)
9d003a2c:	afb30058 	sw	s3,88(sp)
9d003a30:	afb20054 	sw	s2,84(sp)
9d003a34:	afb10050 	sw	s1,80(sp)
9d003a38:	afb0004c 	sw	s0,76(sp)
9d003a3c:	afaf0048 	sw	t7,72(sp)
9d003a40:	afae0044 	sw	t6,68(sp)
9d003a44:	afad0040 	sw	t5,64(sp)
9d003a48:	afac003c 	sw	t4,60(sp)
9d003a4c:	afab0038 	sw	t3,56(sp)
9d003a50:	afaa0034 	sw	t2,52(sp)
9d003a54:	afa90030 	sw	t1,48(sp)
9d003a58:	afa8002c 	sw	t0,44(sp)
9d003a5c:	afa70028 	sw	a3,40(sp)
9d003a60:	afa60024 	sw	a2,36(sp)
9d003a64:	afa50020 	sw	a1,32(sp)
9d003a68:	afa4001c 	sw	a0,28(sp)
9d003a6c:	afa30018 	sw	v1,24(sp)
9d003a70:	afa20014 	sw	v0,20(sp)
9d003a74:	afa10010 	sw	at,16(sp)
9d003a78:	00001012 	mflo	v0
9d003a7c:	afa2006c 	sw	v0,108(sp)
9d003a80:	00001810 	mfhi	v1
9d003a84:	afa30068 	sw	v1,104(sp)
    static float u = 0.0; //unew = 0.0;
    static int mode = 0;
    static int itest_ctr = 0;
    static float ref = 0.0, cval = 0.0;

    mode = get_operating_mode();
9d003a88:	0f404045 	jal	9d010114 <get_operating_mode>
9d003a8c:	00000000 	nop
    switch (mode){
9d003a90:	2c430005 	sltiu	v1,v0,5
9d003a94:	10600012 	beqz	v1,9d003ae0 <__jend_CController_4+0x18>
9d003a98:	00021880 	sll	v1,v0,0x2
9d003a9c:	3c029d00 	lui	v0,0x9d00
9d003aa0:	24423ab4 	addiu	v0,v0,15028
9d003aa4:	00431021 	addu	v0,v0,v1
9d003aa8:	8c420000 	lw	v0,0(v0)
9d003aac:	00400008 	jr	v0
9d003ab0:	00000000 	nop

9d003ab4 <__jump_CController_4>:
9d003ab4:	9d003ac8 9d003b84 9d003ca0 9d003f80     .:...;...<...?..
9d003ac4:	9d0041a4                                .A..

9d003ac8 <__jend_CController_4>:
        case IDLE:
        {
            OC1RS = 0;
9d003ac8:	3c02bf80 	lui	v0,0xbf80
9d003acc:	ac403020 	sw	zero,12320(v0)
            LATDbits.LATD1 = 0;
9d003ad0:	3c02bf88 	lui	v0,0xbf88
9d003ad4:	944360e0 	lhu	v1,24800(v0)
9d003ad8:	7c030844 	ins	v1,zero,0x1,0x1
9d003adc:	a44360e0 	sh	v1,24800(v0)
            break;
        }
    }


    IFS0bits.T2IF = 0;
9d003ae0:	3c02bf88 	lui	v0,0xbf88
9d003ae4:	8c431030 	lw	v1,4144(v0)
9d003ae8:	7c034204 	ins	v1,zero,0x8,0x1
9d003aec:	ac431030 	sw	v1,4144(v0)
}
9d003af0:	8fa2006c 	lw	v0,108(sp)
9d003af4:	00400013 	mtlo	v0
9d003af8:	8fa30068 	lw	v1,104(sp)
9d003afc:	00600011 	mthi	v1
9d003b00:	8fbf0064 	lw	ra,100(sp)
9d003b04:	8fb90060 	lw	t9,96(sp)
9d003b08:	8fb8005c 	lw	t8,92(sp)
9d003b0c:	8fb30058 	lw	s3,88(sp)
9d003b10:	8fb20054 	lw	s2,84(sp)
9d003b14:	8fb10050 	lw	s1,80(sp)
9d003b18:	8fb0004c 	lw	s0,76(sp)
9d003b1c:	8faf0048 	lw	t7,72(sp)
9d003b20:	8fae0044 	lw	t6,68(sp)
9d003b24:	8fad0040 	lw	t5,64(sp)
9d003b28:	8fac003c 	lw	t4,60(sp)
9d003b2c:	8fab0038 	lw	t3,56(sp)
9d003b30:	8faa0034 	lw	t2,52(sp)
9d003b34:	8fa90030 	lw	t1,48(sp)
9d003b38:	8fa8002c 	lw	t0,44(sp)
9d003b3c:	8fa70028 	lw	a3,40(sp)
9d003b40:	8fa60024 	lw	a2,36(sp)
9d003b44:	8fa50020 	lw	a1,32(sp)
9d003b48:	8fa4001c 	lw	a0,28(sp)
9d003b4c:	8fa30018 	lw	v1,24(sp)
9d003b50:	8fa20014 	lw	v0,20(sp)
9d003b54:	8fa10010 	lw	at,16(sp)
9d003b58:	41606000 	di
9d003b5c:	000000c0 	ehb
9d003b60:	8fba007c 	lw	k0,124(sp)
9d003b64:	8fbb0078 	lw	k1,120(sp)
9d003b68:	409a7000 	mtc0	k0,c0_epc
9d003b6c:	8fba0074 	lw	k0,116(sp)
9d003b70:	27bd0080 	addiu	sp,sp,128
9d003b74:	409a6002 	mtc0	k0,c0_srsctl
9d003b78:	41dde800 	wrpgpr	sp,sp
9d003b7c:	409b6000 	mtc0	k1,c0_status
9d003b80:	42000018 	eret
            if (pwm_user<0){
9d003b84:	8f828068 	lw	v0,-32664(gp)
9d003b88:	04400025 	bltz	v0,9d003c20 <__jend_CController_4+0x158>
9d003b8c:	3c02bf88 	lui	v0,0xbf88
            else if (pwm_user>0){
9d003b90:	8f828068 	lw	v0,-32664(gp)
9d003b94:	1840ffd2 	blez	v0,9d003ae0 <__jend_CController_4+0x18>
9d003b98:	3c02bf88 	lui	v0,0xbf88
                LATDbits.LATD1 = 1;
9d003b9c:	944360e0 	lhu	v1,24800(v0)
9d003ba0:	24040001 	li	a0,1
9d003ba4:	7c830844 	ins	v1,a0,0x1,0x1
9d003ba8:	a44360e0 	sh	v1,24800(v0)
                float pwm_p = abs(pwm_user)/100.0;
9d003bac:	8f828068 	lw	v0,-32664(gp)
9d003bb0:	000227c3 	sra	a0,v0,0x1f
9d003bb4:	00821026 	xor	v0,a0,v0
9d003bb8:	0f403aee 	jal	9d00ebb8 <__floatsidf>
9d003bbc:	00442023 	subu	a0,v0,a0
9d003bc0:	3c049d00 	lui	a0,0x9d00
9d003bc4:	8c861e10 	lw	a2,7696(a0)
9d003bc8:	8c871e14 	lw	a3,7700(a0)
9d003bcc:	00402025 	move	a0,v0
9d003bd0:	0f401da9 	jal	9d0076a4 <__divdf3>
9d003bd4:	00602825 	move	a1,v1
9d003bd8:	00402025 	move	a0,v0
9d003bdc:	0f4034cd 	jal	9d00d334 <__truncdfsf2>
9d003be0:	00602825 	move	a1,v1
                OC1RS = (unsigned int) (pwm_p*4000.0);
9d003be4:	0f403779 	jal	9d00dde4 <__extendsfdf2>
9d003be8:	00402025 	move	a0,v0
9d003bec:	3c049d00 	lui	a0,0x9d00
9d003bf0:	8c861e18 	lw	a2,7704(a0)
9d003bf4:	8c871e1c 	lw	a3,7708(a0)
9d003bf8:	00402025 	move	a0,v0
9d003bfc:	0f402611 	jal	9d009844 <__muldf3>
9d003c00:	00602825 	move	a1,v1
9d003c04:	00402025 	move	a0,v0
9d003c08:	0f4039c5 	jal	9d00e714 <__fixunsdfsi>
9d003c0c:	00602825 	move	a1,v1
9d003c10:	3c03bf80 	lui	v1,0xbf80
9d003c14:	ac623020 	sw	v0,12320(v1)
    IFS0bits.T2IF = 0;
9d003c18:	1000ffb2 	b	9d003ae4 <__jend_CController_4+0x1c>
9d003c1c:	3c02bf88 	lui	v0,0xbf88
                LATDbits.LATD1 = 0;
9d003c20:	944360e0 	lhu	v1,24800(v0)
9d003c24:	7c030844 	ins	v1,zero,0x1,0x1
9d003c28:	a44360e0 	sh	v1,24800(v0)
                float pwm_p = abs(pwm_user)/100.0;
9d003c2c:	8f828068 	lw	v0,-32664(gp)
9d003c30:	000227c3 	sra	a0,v0,0x1f
9d003c34:	00821026 	xor	v0,a0,v0
9d003c38:	0f403aee 	jal	9d00ebb8 <__floatsidf>
9d003c3c:	00442023 	subu	a0,v0,a0
9d003c40:	3c049d00 	lui	a0,0x9d00
9d003c44:	8c861e10 	lw	a2,7696(a0)
9d003c48:	8c871e14 	lw	a3,7700(a0)
9d003c4c:	00402025 	move	a0,v0
9d003c50:	0f401da9 	jal	9d0076a4 <__divdf3>
9d003c54:	00602825 	move	a1,v1
9d003c58:	00402025 	move	a0,v0
9d003c5c:	0f4034cd 	jal	9d00d334 <__truncdfsf2>
9d003c60:	00602825 	move	a1,v1
                OC1RS = (unsigned int) (pwm_p*4000.0);
9d003c64:	0f403779 	jal	9d00dde4 <__extendsfdf2>
9d003c68:	00402025 	move	a0,v0
9d003c6c:	3c049d00 	lui	a0,0x9d00
9d003c70:	8c861e18 	lw	a2,7704(a0)
9d003c74:	8c871e1c 	lw	a3,7708(a0)
9d003c78:	00402025 	move	a0,v0
9d003c7c:	0f402611 	jal	9d009844 <__muldf3>
9d003c80:	00602825 	move	a1,v1
9d003c84:	00402025 	move	a0,v0
9d003c88:	0f4039c5 	jal	9d00e714 <__fixunsdfsi>
9d003c8c:	00602825 	move	a1,v1
9d003c90:	3c03bf80 	lui	v1,0xbf80
9d003c94:	ac623020 	sw	v0,12320(v1)
9d003c98:	1000ff92 	b	9d003ae4 <__jend_CController_4+0x1c>
9d003c9c:	3c02bf88 	lui	v0,0xbf88
            if (itest_ctr<25){
9d003ca0:	8f828028 	lw	v0,-32728(gp)
9d003ca4:	28430019 	slti	v1,v0,25
9d003ca8:	10600053 	beqz	v1,9d003df8 <__jend_CController_4+0x330>
9d003cac:	2443ffe7 	addiu	v1,v0,-25
                ref = 200.0;
9d003cb0:	3c029d00 	lui	v0,0x9d00
9d003cb4:	8c421e28 	lw	v0,7720(v0)
9d003cb8:	af828024 	sw	v0,-32732(gp)
            REFArray[itest_ctr] = ref;
9d003cbc:	8f828028 	lw	v0,-32728(gp)
9d003cc0:	00021080 	sll	v0,v0,0x2
9d003cc4:	3c03a001 	lui	v1,0xa001
9d003cc8:	24633ad4 	addiu	v1,v1,15060
9d003ccc:	00431021 	addu	v0,v0,v1
9d003cd0:	8f838024 	lw	v1,-32732(gp)
9d003cd4:	ac430000 	sw	v1,0(v0)
            eint_max = 3999/ki;
9d003cd8:	8f858034 	lw	a1,-32716(gp)
9d003cdc:	3c029d00 	lui	v0,0x9d00
9d003ce0:	0f402ac9 	jal	9d00ab24 <__divsf3>
9d003ce4:	8c441e30 	lw	a0,7728(v0)
            cval = INA219_read_current();
9d003ce8:	0f403042 	jal	9d00c108 <INA219_read_current>
9d003cec:	af828020 	sw	v0,-32736(gp)
            CValArray[itest_ctr] = cval;
9d003cf0:	8f908028 	lw	s0,-32728(gp)
9d003cf4:	00101880 	sll	v1,s0,0x2
9d003cf8:	3c04a001 	lui	a0,0xa001
9d003cfc:	24843944 	addiu	a0,a0,14660
9d003d00:	00641821 	addu	v1,v1,a0
9d003d04:	ac620000 	sw	v0,0(v1)
            e = ref - cval;
9d003d08:	00402825 	move	a1,v0
9d003d0c:	0f402a2b 	jal	9d00a8ac <__subsf3>
9d003d10:	8f848024 	lw	a0,-32732(gp)
9d003d14:	00409025 	move	s2,v0
            eint = eint + e;
9d003d18:	8f848030 	lw	a0,-32720(gp)
9d003d1c:	0f403c37 	jal	9d00f0dc <__floatsisf>
9d003d20:	00000000 	nop
9d003d24:	02402825 	move	a1,s2
9d003d28:	0f402a2d 	jal	9d00a8b4 <__addsf3>
9d003d2c:	00402025 	move	a0,v0
9d003d30:	0f403a8f 	jal	9d00ea3c <__fixsfsi>
9d003d34:	00402025 	move	a0,v0
9d003d38:	af828030 	sw	v0,-32720(gp)
            if (eint > eint_max){
9d003d3c:	8f848030 	lw	a0,-32720(gp)
9d003d40:	0f403c37 	jal	9d00f0dc <__floatsisf>
9d003d44:	8f918020 	lw	s1,-32736(gp)
9d003d48:	02202825 	move	a1,s1
9d003d4c:	0f40389c 	jal	9d00e270 <__eqsf2>
9d003d50:	00402025 	move	a0,v0
9d003d54:	18400043 	blez	v0,9d003e64 <__jend_CController_4+0x39c>
9d003d58:	00000000 	nop
                eint = eint_max;
9d003d5c:	0f403a8f 	jal	9d00ea3c <__fixsfsi>
9d003d60:	02202025 	move	a0,s1
9d003d64:	af828030 	sw	v0,-32720(gp)
            u = kp*e + ki*eint;
9d003d68:	8f938038 	lw	s3,-32712(gp)
9d003d6c:	8f848030 	lw	a0,-32720(gp)
9d003d70:	8f918034 	lw	s1,-32716(gp)
9d003d74:	0f403c37 	jal	9d00f0dc <__floatsisf>
9d003d78:	00000000 	nop
9d003d7c:	02202825 	move	a1,s1
9d003d80:	0f402cd6 	jal	9d00b358 <__mulsf3>
9d003d84:	00402025 	move	a0,v0
9d003d88:	00408825 	move	s1,v0
9d003d8c:	02602825 	move	a1,s3
9d003d90:	0f402cd6 	jal	9d00b358 <__mulsf3>
9d003d94:	02402025 	move	a0,s2
9d003d98:	00402825 	move	a1,v0
9d003d9c:	0f402a2d 	jal	9d00a8b4 <__addsf3>
9d003da0:	02202025 	move	a0,s1
9d003da4:	00408825 	move	s1,v0
9d003da8:	af82801c 	sw	v0,-32740(gp)
            if (u > 100.0){
9d003dac:	3c029d00 	lui	v0,0x9d00
9d003db0:	8c451e34 	lw	a1,7732(v0)
9d003db4:	0f40389c 	jal	9d00e270 <__eqsf2>
9d003db8:	02202025 	move	a0,s1
9d003dbc:	18400037 	blez	v0,9d003e9c <__jend_CController_4+0x3d4>
9d003dc0:	3c029d00 	lui	v0,0x9d00
                u = 100.0;
9d003dc4:	3c029d00 	lui	v0,0x9d00
9d003dc8:	8c421e34 	lw	v0,7732(v0)
9d003dcc:	af82801c 	sw	v0,-32740(gp)
            OC1RS = (unsigned int) ((abs(u)/100.0)*3999);
9d003dd0:	3c02bf80 	lui	v0,0xbf80
9d003dd4:	24030f9f 	li	v1,3999
9d003dd8:	ac433020 	sw	v1,12320(v0)
                LATDbits.LATD1 = 1;
9d003ddc:	3c02bf88 	lui	v0,0xbf88
9d003de0:	944360e0 	lhu	v1,24800(v0)
9d003de4:	24040001 	li	a0,1
9d003de8:	7c830844 	ins	v1,a0,0x1,0x1
9d003dec:	a44360e0 	sh	v1,24800(v0)
            itest_ctr++;
9d003df0:	10000039 	b	9d003ed8 <__jend_CController_4+0x410>
9d003df4:	26100001 	addiu	s0,s0,1
            else if (itest_ctr>=25 && itest_ctr<50){
9d003df8:	2c630019 	sltiu	v1,v1,25
9d003dfc:	10600005 	beqz	v1,9d003e14 <__jend_CController_4+0x34c>
9d003e00:	2443ffce 	addiu	v1,v0,-50
                ref = -200.0;
9d003e04:	3c029d00 	lui	v0,0x9d00
9d003e08:	8c421e2c 	lw	v0,7724(v0)
9d003e0c:	1000ffab 	b	9d003cbc <__jend_CController_4+0x1f4>
9d003e10:	af828024 	sw	v0,-32732(gp)
            else if (itest_ctr>=50 && itest_ctr<75){
9d003e14:	2c630019 	sltiu	v1,v1,25
9d003e18:	10600005 	beqz	v1,9d003e30 <__jend_CController_4+0x368>
9d003e1c:	2443ffb5 	addiu	v1,v0,-75
                ref = 200.0;
9d003e20:	3c029d00 	lui	v0,0x9d00
9d003e24:	8c421e28 	lw	v0,7720(v0)
9d003e28:	1000ffa4 	b	9d003cbc <__jend_CController_4+0x1f4>
9d003e2c:	af828024 	sw	v0,-32732(gp)
            else if (itest_ctr>=75 && itest_ctr<99){
9d003e30:	2c630018 	sltiu	v1,v1,24
9d003e34:	10600005 	beqz	v1,9d003e4c <__jend_CController_4+0x384>
9d003e38:	24030063 	li	v1,99
                ref = -200.0;
9d003e3c:	3c029d00 	lui	v0,0x9d00
9d003e40:	8c421e2c 	lw	v0,7724(v0)
9d003e44:	1000ff9d 	b	9d003cbc <__jend_CController_4+0x1f4>
9d003e48:	af828024 	sw	v0,-32732(gp)
            else if (itest_ctr == 99){
9d003e4c:	5443ff9c 	bnel	v0,v1,9d003cc0 <__jend_CController_4+0x1f8>
9d003e50:	8f828028 	lw	v0,-32728(gp)
                set_operating_mode(IDLE);
9d003e54:	0f404042 	jal	9d010108 <set_operating_mode>
9d003e58:	00002025 	move	a0,zero
            REFArray[itest_ctr] = ref;
9d003e5c:	1000ff98 	b	9d003cc0 <__jend_CController_4+0x1f8>
9d003e60:	8f828028 	lw	v0,-32728(gp)
            } else if (eint < -1*eint_max){
9d003e64:	8f848030 	lw	a0,-32720(gp)
9d003e68:	3c028000 	lui	v0,0x8000
9d003e6c:	0f403c37 	jal	9d00f0dc <__floatsisf>
9d003e70:	02228826 	xor	s1,s1,v0
9d003e74:	02202825 	move	a1,s1
9d003e78:	0f4038c3 	jal	9d00e30c <fpcmplt>
9d003e7c:	00402025 	move	a0,v0
9d003e80:	0441ffb9 	bgez	v0,9d003d68 <__jend_CController_4+0x2a0>
9d003e84:	00000000 	nop
                eint = -1*eint_max;
9d003e88:	0f403a8f 	jal	9d00ea3c <__fixsfsi>
9d003e8c:	02202025 	move	a0,s1
9d003e90:	af828030 	sw	v0,-32720(gp)
9d003e94:	1000ffb4 	b	9d003d68 <__jend_CController_4+0x2a0>
9d003e98:	00000000 	nop
            } else if (u < -100.0){
9d003e9c:	8c451e38 	lw	a1,7736(v0)
9d003ea0:	0f4038c3 	jal	9d00e30c <fpcmplt>
9d003ea4:	02202025 	move	a0,s1
9d003ea8:	04410010 	bgez	v0,9d003eec <__jend_CController_4+0x424>
9d003eac:	3c029d00 	lui	v0,0x9d00
                u = -100.0;
9d003eb0:	8c421e38 	lw	v0,7736(v0)
9d003eb4:	af82801c 	sw	v0,-32740(gp)
            OC1RS = (unsigned int) ((abs(u)/100.0)*3999);
9d003eb8:	3c02bf80 	lui	v0,0xbf80
9d003ebc:	24030f9f 	li	v1,3999
9d003ec0:	ac433020 	sw	v1,12320(v0)
                LATDbits.LATD1 = 0;
9d003ec4:	3c02bf88 	lui	v0,0xbf88
9d003ec8:	944360e0 	lhu	v1,24800(v0)
9d003ecc:	7c030844 	ins	v1,zero,0x1,0x1
9d003ed0:	a44360e0 	sh	v1,24800(v0)
            itest_ctr++;
9d003ed4:	26100001 	addiu	s0,s0,1
            if (itest_ctr == 100){
9d003ed8:	24020064 	li	v0,100
9d003edc:	52020025 	beql	s0,v0,9d003f74 <__jend_CController_4+0x4ac>
9d003ee0:	af808028 	sw	zero,-32728(gp)
            itest_ctr++;
9d003ee4:	1000fefe 	b	9d003ae0 <__jend_CController_4+0x18>
9d003ee8:	af908028 	sw	s0,-32728(gp)
            OC1RS = (unsigned int) ((abs(u)/100.0)*3999);
9d003eec:	0f403a8f 	jal	9d00ea3c <__fixsfsi>
9d003ef0:	02202025 	move	a0,s1
9d003ef4:	000227c3 	sra	a0,v0,0x1f
9d003ef8:	00821026 	xor	v0,a0,v0
9d003efc:	0f403aee 	jal	9d00ebb8 <__floatsidf>
9d003f00:	00442023 	subu	a0,v0,a0
9d003f04:	3c049d00 	lui	a0,0x9d00
9d003f08:	8c861e10 	lw	a2,7696(a0)
9d003f0c:	8c871e14 	lw	a3,7700(a0)
9d003f10:	00402025 	move	a0,v0
9d003f14:	0f401da9 	jal	9d0076a4 <__divdf3>
9d003f18:	00602825 	move	a1,v1
9d003f1c:	3c049d00 	lui	a0,0x9d00
9d003f20:	8c861e20 	lw	a2,7712(a0)
9d003f24:	8c871e24 	lw	a3,7716(a0)
9d003f28:	00402025 	move	a0,v0
9d003f2c:	0f402611 	jal	9d009844 <__muldf3>
9d003f30:	00602825 	move	a1,v1
9d003f34:	00402025 	move	a0,v0
9d003f38:	0f4039c5 	jal	9d00e714 <__fixunsdfsi>
9d003f3c:	00602825 	move	a1,v1
9d003f40:	3c03bf80 	lui	v1,0xbf80
9d003f44:	ac623020 	sw	v0,12320(v1)
            if (u<0){
9d003f48:	00002825 	move	a1,zero
9d003f4c:	0f4038c3 	jal	9d00e30c <fpcmplt>
9d003f50:	02202025 	move	a0,s1
9d003f54:	0440ffdb 	bltz	v0,9d003ec4 <__jend_CController_4+0x3fc>
9d003f58:	00002825 	move	a1,zero
            else if (u>0){
9d003f5c:	0f40389c 	jal	9d00e270 <__eqsf2>
9d003f60:	02202025 	move	a0,s1
9d003f64:	5840ffdc 	blezl	v0,9d003ed8 <__jend_CController_4+0x410>
9d003f68:	26100001 	addiu	s0,s0,1
                LATDbits.LATD1 = 1;
9d003f6c:	1000ff9c 	b	9d003de0 <__jend_CController_4+0x318>
9d003f70:	3c02bf88 	lui	v0,0xbf88
                eint = 0;
9d003f74:	af808030 	sw	zero,-32720(gp)
    IFS0bits.T2IF = 0;
9d003f78:	1000feda 	b	9d003ae4 <__jend_CController_4+0x1c>
9d003f7c:	3c02bf88 	lui	v0,0xbf88
            eint_max = 3999/ki;
9d003f80:	8f858034 	lw	a1,-32716(gp)
9d003f84:	3c029d00 	lui	v0,0x9d00
9d003f88:	0f402ac9 	jal	9d00ab24 <__divsf3>
9d003f8c:	8c441e30 	lw	a0,7728(v0)
9d003f90:	af828020 	sw	v0,-32736(gp)
            kp = 0.1; ki=0.04;
9d003f94:	3c029d00 	lui	v0,0x9d00
9d003f98:	8c421e3c 	lw	v0,7740(v0)
9d003f9c:	af828038 	sw	v0,-32712(gp)
9d003fa0:	3c029d00 	lui	v0,0x9d00
9d003fa4:	8c421e40 	lw	v0,7744(v0)
9d003fa8:	af828034 	sw	v0,-32716(gp)
            cval = INA219_read_current();
9d003fac:	0f403042 	jal	9d00c108 <INA219_read_current>
9d003fb0:	00000000 	nop
            e = dcur - cval;
9d003fb4:	8f84802c 	lw	a0,-32724(gp)
9d003fb8:	0f402a2b 	jal	9d00a8ac <__subsf3>
9d003fbc:	00402825 	move	a1,v0
9d003fc0:	00408825 	move	s1,v0
            eint = eint + e;
9d003fc4:	8f848030 	lw	a0,-32720(gp)
9d003fc8:	0f403c37 	jal	9d00f0dc <__floatsisf>
9d003fcc:	00000000 	nop
9d003fd0:	02202825 	move	a1,s1
9d003fd4:	0f402a2d 	jal	9d00a8b4 <__addsf3>
9d003fd8:	00402025 	move	a0,v0
9d003fdc:	0f403a8f 	jal	9d00ea3c <__fixsfsi>
9d003fe0:	00402025 	move	a0,v0
9d003fe4:	af828030 	sw	v0,-32720(gp)
            if (eint > eint_max){
9d003fe8:	8f848030 	lw	a0,-32720(gp)
9d003fec:	0f403c37 	jal	9d00f0dc <__floatsisf>
9d003ff0:	8f908020 	lw	s0,-32736(gp)
9d003ff4:	02002825 	move	a1,s0
9d003ff8:	0f40389c 	jal	9d00e270 <__eqsf2>
9d003ffc:	00402025 	move	a0,v0
9d004000:	18400028 	blez	v0,9d0040a4 <__jend_CController_4+0x5dc>
9d004004:	00000000 	nop
                eint = eint_max;
9d004008:	0f403a8f 	jal	9d00ea3c <__fixsfsi>
9d00400c:	02002025 	move	a0,s0
9d004010:	af828030 	sw	v0,-32720(gp)
            u = kp*e + ki*eint;
9d004014:	8f928038 	lw	s2,-32712(gp)
9d004018:	8f848030 	lw	a0,-32720(gp)
9d00401c:	8f908034 	lw	s0,-32716(gp)
9d004020:	0f403c37 	jal	9d00f0dc <__floatsisf>
9d004024:	00000000 	nop
9d004028:	02002825 	move	a1,s0
9d00402c:	0f402cd6 	jal	9d00b358 <__mulsf3>
9d004030:	00402025 	move	a0,v0
9d004034:	00408025 	move	s0,v0
9d004038:	02402825 	move	a1,s2
9d00403c:	0f402cd6 	jal	9d00b358 <__mulsf3>
9d004040:	02202025 	move	a0,s1
9d004044:	00402825 	move	a1,v0
9d004048:	0f402a2d 	jal	9d00a8b4 <__addsf3>
9d00404c:	02002025 	move	a0,s0
9d004050:	00408025 	move	s0,v0
9d004054:	af82801c 	sw	v0,-32740(gp)
            if (u > 100.0){
9d004058:	3c029d00 	lui	v0,0x9d00
9d00405c:	8c451e34 	lw	a1,7732(v0)
9d004060:	0f40389c 	jal	9d00e270 <__eqsf2>
9d004064:	02002025 	move	a0,s0
9d004068:	5840001c 	blezl	v0,9d0040dc <__jend_CController_4+0x614>
9d00406c:	3c029d00 	lui	v0,0x9d00
                u = 100.0;
9d004070:	3c029d00 	lui	v0,0x9d00
9d004074:	8c421e34 	lw	v0,7732(v0)
9d004078:	af82801c 	sw	v0,-32740(gp)
            OC1RS = (unsigned int) ((abs(u)/100.0)*3999);
9d00407c:	3c02bf80 	lui	v0,0xbf80
9d004080:	24030f9f 	li	v1,3999
9d004084:	ac433020 	sw	v1,12320(v0)
                LATDbits.LATD1 = 1;
9d004088:	3c02bf88 	lui	v0,0xbf88
9d00408c:	944360e0 	lhu	v1,24800(v0)
9d004090:	24040001 	li	a0,1
9d004094:	7c830844 	ins	v1,a0,0x1,0x1
9d004098:	a44360e0 	sh	v1,24800(v0)
    IFS0bits.T2IF = 0;
9d00409c:	1000fe91 	b	9d003ae4 <__jend_CController_4+0x1c>
9d0040a0:	3c02bf88 	lui	v0,0xbf88
            } else if (eint < -1*eint_max){
9d0040a4:	8f848030 	lw	a0,-32720(gp)
9d0040a8:	3c028000 	lui	v0,0x8000
9d0040ac:	0f403c37 	jal	9d00f0dc <__floatsisf>
9d0040b0:	02028026 	xor	s0,s0,v0
9d0040b4:	02002825 	move	a1,s0
9d0040b8:	0f4038c3 	jal	9d00e30c <fpcmplt>
9d0040bc:	00402025 	move	a0,v0
9d0040c0:	0441ffd4 	bgez	v0,9d004014 <__jend_CController_4+0x54c>
9d0040c4:	00000000 	nop
                eint = -1*eint_max;
9d0040c8:	0f403a8f 	jal	9d00ea3c <__fixsfsi>
9d0040cc:	02002025 	move	a0,s0
9d0040d0:	af828030 	sw	v0,-32720(gp)
9d0040d4:	1000ffcf 	b	9d004014 <__jend_CController_4+0x54c>
9d0040d8:	00000000 	nop
            } else if (u < -100.0){
9d0040dc:	8c451e38 	lw	a1,7736(v0)
9d0040e0:	0f4038c3 	jal	9d00e30c <fpcmplt>
9d0040e4:	02002025 	move	a0,s0
9d0040e8:	0441000c 	bgez	v0,9d00411c <__jend_CController_4+0x654>
9d0040ec:	3c029d00 	lui	v0,0x9d00
                u = -100.0;
9d0040f0:	8c421e38 	lw	v0,7736(v0)
9d0040f4:	af82801c 	sw	v0,-32740(gp)
            OC1RS = (unsigned int) ((abs(u)/100.0)*3999);
9d0040f8:	3c02bf80 	lui	v0,0xbf80
9d0040fc:	24030f9f 	li	v1,3999
9d004100:	ac433020 	sw	v1,12320(v0)
                LATDbits.LATD1 = 0;
9d004104:	3c02bf88 	lui	v0,0xbf88
9d004108:	944360e0 	lhu	v1,24800(v0)
9d00410c:	7c030844 	ins	v1,zero,0x1,0x1
9d004110:	a44360e0 	sh	v1,24800(v0)
9d004114:	1000fe73 	b	9d003ae4 <__jend_CController_4+0x1c>
9d004118:	3c02bf88 	lui	v0,0xbf88
            OC1RS = (unsigned int) ((abs(u)/100.0)*3999);
9d00411c:	0f403a8f 	jal	9d00ea3c <__fixsfsi>
9d004120:	02002025 	move	a0,s0
9d004124:	000227c3 	sra	a0,v0,0x1f
9d004128:	00821026 	xor	v0,a0,v0
9d00412c:	0f403aee 	jal	9d00ebb8 <__floatsidf>
9d004130:	00442023 	subu	a0,v0,a0
9d004134:	3c049d00 	lui	a0,0x9d00
9d004138:	8c861e10 	lw	a2,7696(a0)
9d00413c:	8c871e14 	lw	a3,7700(a0)
9d004140:	00402025 	move	a0,v0
9d004144:	0f401da9 	jal	9d0076a4 <__divdf3>
9d004148:	00602825 	move	a1,v1
9d00414c:	3c049d00 	lui	a0,0x9d00
9d004150:	8c861e20 	lw	a2,7712(a0)
9d004154:	8c871e24 	lw	a3,7716(a0)
9d004158:	00402025 	move	a0,v0
9d00415c:	0f402611 	jal	9d009844 <__muldf3>
9d004160:	00602825 	move	a1,v1
9d004164:	00402025 	move	a0,v0
9d004168:	0f4039c5 	jal	9d00e714 <__fixunsdfsi>
9d00416c:	00602825 	move	a1,v1
9d004170:	3c03bf80 	lui	v1,0xbf80
9d004174:	ac623020 	sw	v0,12320(v1)
            if (u<0){
9d004178:	00002825 	move	a1,zero
9d00417c:	0f4038c3 	jal	9d00e30c <fpcmplt>
9d004180:	02002025 	move	a0,s0
9d004184:	0440ffdf 	bltz	v0,9d004104 <__jend_CController_4+0x63c>
9d004188:	00002825 	move	a1,zero
            else if (u>0){
9d00418c:	0f40389c 	jal	9d00e270 <__eqsf2>
9d004190:	02002025 	move	a0,s0
9d004194:	5840fe53 	blezl	v0,9d003ae4 <__jend_CController_4+0x1c>
9d004198:	3c02bf88 	lui	v0,0xbf88
                LATDbits.LATD1 = 1;
9d00419c:	1000ffbb 	b	9d00408c <__jend_CController_4+0x5c4>
9d0041a0:	3c02bf88 	lui	v0,0xbf88
            eint_max = 3999/ki;
9d0041a4:	8f858034 	lw	a1,-32716(gp)
9d0041a8:	3c029d00 	lui	v0,0x9d00
9d0041ac:	0f402ac9 	jal	9d00ab24 <__divsf3>
9d0041b0:	8c441e30 	lw	a0,7728(v0)
9d0041b4:	af828020 	sw	v0,-32736(gp)
            kp = 0.1; ki=0.04;
9d0041b8:	3c029d00 	lui	v0,0x9d00
9d0041bc:	8c421e3c 	lw	v0,7740(v0)
9d0041c0:	af828038 	sw	v0,-32712(gp)
9d0041c4:	3c029d00 	lui	v0,0x9d00
9d0041c8:	8c421e40 	lw	v0,7744(v0)
9d0041cc:	af828034 	sw	v0,-32716(gp)
            cval = INA219_read_current();
9d0041d0:	0f403042 	jal	9d00c108 <INA219_read_current>
9d0041d4:	00000000 	nop
            e = dcur - cval;
9d0041d8:	8f84802c 	lw	a0,-32724(gp)
9d0041dc:	0f402a2b 	jal	9d00a8ac <__subsf3>
9d0041e0:	00402825 	move	a1,v0
9d0041e4:	00408825 	move	s1,v0
            eint = eint + e;
9d0041e8:	8f848030 	lw	a0,-32720(gp)
9d0041ec:	0f403c37 	jal	9d00f0dc <__floatsisf>
9d0041f0:	00000000 	nop
9d0041f4:	02202825 	move	a1,s1
9d0041f8:	0f402a2d 	jal	9d00a8b4 <__addsf3>
9d0041fc:	00402025 	move	a0,v0
9d004200:	0f403a8f 	jal	9d00ea3c <__fixsfsi>
9d004204:	00402025 	move	a0,v0
9d004208:	af828030 	sw	v0,-32720(gp)
            if (eint > eint_max){
9d00420c:	8f848030 	lw	a0,-32720(gp)
9d004210:	0f403c37 	jal	9d00f0dc <__floatsisf>
9d004214:	8f908020 	lw	s0,-32736(gp)
9d004218:	02002825 	move	a1,s0
9d00421c:	0f40389c 	jal	9d00e270 <__eqsf2>
9d004220:	00402025 	move	a0,v0
9d004224:	18400028 	blez	v0,9d0042c8 <__jend_CController_4+0x800>
9d004228:	00000000 	nop
                eint = eint_max;
9d00422c:	0f403a8f 	jal	9d00ea3c <__fixsfsi>
9d004230:	02002025 	move	a0,s0
9d004234:	af828030 	sw	v0,-32720(gp)
            u = kp*e + ki*eint;
9d004238:	8f928038 	lw	s2,-32712(gp)
9d00423c:	8f848030 	lw	a0,-32720(gp)
9d004240:	8f908034 	lw	s0,-32716(gp)
9d004244:	0f403c37 	jal	9d00f0dc <__floatsisf>
9d004248:	00000000 	nop
9d00424c:	02002825 	move	a1,s0
9d004250:	0f402cd6 	jal	9d00b358 <__mulsf3>
9d004254:	00402025 	move	a0,v0
9d004258:	00408025 	move	s0,v0
9d00425c:	02402825 	move	a1,s2
9d004260:	0f402cd6 	jal	9d00b358 <__mulsf3>
9d004264:	02202025 	move	a0,s1
9d004268:	00402825 	move	a1,v0
9d00426c:	0f402a2d 	jal	9d00a8b4 <__addsf3>
9d004270:	02002025 	move	a0,s0
9d004274:	00408025 	move	s0,v0
9d004278:	af82801c 	sw	v0,-32740(gp)
            if (u > 100.0){
9d00427c:	3c029d00 	lui	v0,0x9d00
9d004280:	8c451e34 	lw	a1,7732(v0)
9d004284:	0f40389c 	jal	9d00e270 <__eqsf2>
9d004288:	02002025 	move	a0,s0
9d00428c:	5840001c 	blezl	v0,9d004300 <__jend_CController_4+0x838>
9d004290:	3c029d00 	lui	v0,0x9d00
                u = 100.0;
9d004294:	3c029d00 	lui	v0,0x9d00
9d004298:	8c421e34 	lw	v0,7732(v0)
9d00429c:	af82801c 	sw	v0,-32740(gp)
            OC1RS = (unsigned int) ((abs(u)/100.0)*3999);
9d0042a0:	3c02bf80 	lui	v0,0xbf80
9d0042a4:	24030f9f 	li	v1,3999
9d0042a8:	ac433020 	sw	v1,12320(v0)
                LATDbits.LATD1 = 1;
9d0042ac:	3c02bf88 	lui	v0,0xbf88
9d0042b0:	944360e0 	lhu	v1,24800(v0)
9d0042b4:	24040001 	li	a0,1
9d0042b8:	7c830844 	ins	v1,a0,0x1,0x1
9d0042bc:	a44360e0 	sh	v1,24800(v0)
    IFS0bits.T2IF = 0;
9d0042c0:	1000fe08 	b	9d003ae4 <__jend_CController_4+0x1c>
9d0042c4:	3c02bf88 	lui	v0,0xbf88
            } else if (eint < -1*eint_max){
9d0042c8:	8f848030 	lw	a0,-32720(gp)
9d0042cc:	3c028000 	lui	v0,0x8000
9d0042d0:	0f403c37 	jal	9d00f0dc <__floatsisf>
9d0042d4:	02028026 	xor	s0,s0,v0
9d0042d8:	02002825 	move	a1,s0
9d0042dc:	0f4038c3 	jal	9d00e30c <fpcmplt>
9d0042e0:	00402025 	move	a0,v0
9d0042e4:	0441ffd4 	bgez	v0,9d004238 <__jend_CController_4+0x770>
9d0042e8:	00000000 	nop
                eint = -1*eint_max;
9d0042ec:	0f403a8f 	jal	9d00ea3c <__fixsfsi>
9d0042f0:	02002025 	move	a0,s0
9d0042f4:	af828030 	sw	v0,-32720(gp)
9d0042f8:	1000ffcf 	b	9d004238 <__jend_CController_4+0x770>
9d0042fc:	00000000 	nop
            } else if (u < -100.0){
9d004300:	8c451e38 	lw	a1,7736(v0)
9d004304:	0f4038c3 	jal	9d00e30c <fpcmplt>
9d004308:	02002025 	move	a0,s0
9d00430c:	0441000c 	bgez	v0,9d004340 <__jend_CController_4+0x878>
9d004310:	3c029d00 	lui	v0,0x9d00
                u = -100.0;
9d004314:	8c421e38 	lw	v0,7736(v0)
9d004318:	af82801c 	sw	v0,-32740(gp)
            OC1RS = (unsigned int) ((abs(u)/100.0)*3999);
9d00431c:	3c02bf80 	lui	v0,0xbf80
9d004320:	24030f9f 	li	v1,3999
9d004324:	ac433020 	sw	v1,12320(v0)
                LATDbits.LATD1 = 0;
9d004328:	3c02bf88 	lui	v0,0xbf88
9d00432c:	944360e0 	lhu	v1,24800(v0)
9d004330:	7c030844 	ins	v1,zero,0x1,0x1
9d004334:	a44360e0 	sh	v1,24800(v0)
9d004338:	1000fdea 	b	9d003ae4 <__jend_CController_4+0x1c>
9d00433c:	3c02bf88 	lui	v0,0xbf88
            OC1RS = (unsigned int) ((abs(u)/100.0)*3999);
9d004340:	0f403a8f 	jal	9d00ea3c <__fixsfsi>
9d004344:	02002025 	move	a0,s0
9d004348:	000227c3 	sra	a0,v0,0x1f
9d00434c:	00821026 	xor	v0,a0,v0
9d004350:	0f403aee 	jal	9d00ebb8 <__floatsidf>
9d004354:	00442023 	subu	a0,v0,a0
9d004358:	3c049d00 	lui	a0,0x9d00
9d00435c:	8c861e10 	lw	a2,7696(a0)
9d004360:	8c871e14 	lw	a3,7700(a0)
9d004364:	00402025 	move	a0,v0
9d004368:	0f401da9 	jal	9d0076a4 <__divdf3>
9d00436c:	00602825 	move	a1,v1
9d004370:	3c049d00 	lui	a0,0x9d00
9d004374:	8c861e20 	lw	a2,7712(a0)
9d004378:	8c871e24 	lw	a3,7716(a0)
9d00437c:	00402025 	move	a0,v0
9d004380:	0f402611 	jal	9d009844 <__muldf3>
9d004384:	00602825 	move	a1,v1
9d004388:	00402025 	move	a0,v0
9d00438c:	0f4039c5 	jal	9d00e714 <__fixunsdfsi>
9d004390:	00602825 	move	a1,v1
9d004394:	3c03bf80 	lui	v1,0xbf80
9d004398:	ac623020 	sw	v0,12320(v1)
            if (u<0){
9d00439c:	00002825 	move	a1,zero
9d0043a0:	0f4038c3 	jal	9d00e30c <fpcmplt>
9d0043a4:	02002025 	move	a0,s0
9d0043a8:	0440ffdf 	bltz	v0,9d004328 <__jend_CController_4+0x860>
9d0043ac:	00002825 	move	a1,zero
            else if (u>0){
9d0043b0:	0f40389c 	jal	9d00e270 <__eqsf2>
9d0043b4:	02002025 	move	a0,s0
9d0043b8:	5840fdca 	blezl	v0,9d003ae4 <__jend_CController_4+0x1c>
9d0043bc:	3c02bf88 	lui	v0,0xbf88
                LATDbits.LATD1 = 1;
9d0043c0:	1000ffbb 	b	9d0042b0 <__jend_CController_4+0x7e8>
9d0043c4:	3c02bf88 	lui	v0,0xbf88

9d0043c8 <CurrentControl_Startup>:

void CurrentControl_Startup(){
9d0043c8:	27bdfff8 	addiu	sp,sp,-8
9d0043cc:	afbf0004 	sw	ra,4(sp)
    __builtin_disable_interrupts();
9d0043d0:	41626000 	di	v0
9d0043d4:	000000c0 	ehb

    //Timer2 for 5kHz ISR
    T2CONbits.TCKPS = 0;            // Prescalar of 1
9d0043d8:	3c03bf80 	lui	v1,0xbf80
9d0043dc:	94620800 	lhu	v0,2048(v1)
9d0043e0:	7c023104 	ins	v0,zero,0x4,0x3
9d0043e4:	a4620800 	sh	v0,2048(v1)
    PR2 = 15999;
9d0043e8:	3c02bf80 	lui	v0,0xbf80
9d0043ec:	24043e7f 	li	a0,15999
9d0043f0:	ac440820 	sw	a0,2080(v0)
    TMR2 = 0;
9d0043f4:	3c02bf80 	lui	v0,0xbf80
9d0043f8:	ac400810 	sw	zero,2064(v0)
    T2CONbits.TGATE = 0;            //             not gated input (the default)
9d0043fc:	94620800 	lhu	v0,2048(v1)
9d004400:	7c0239c4 	ins	v0,zero,0x7,0x1
9d004404:	a4620800 	sh	v0,2048(v1)
    IPC2bits.T2IP = 4;              // INT step 4: priority
9d004408:	3c02bf88 	lui	v0,0xbf88
9d00440c:	8c4410b0 	lw	a0,4272(v0)
9d004410:	24050004 	li	a1,4
9d004414:	7ca42084 	ins	a0,a1,0x2,0x3
9d004418:	ac4410b0 	sw	a0,4272(v0)
    IPC2bits.T2IS = 0;              //             subpriority
9d00441c:	8c4410b0 	lw	a0,4272(v0)
9d004420:	7c040804 	ins	a0,zero,0x0,0x2
9d004424:	ac4410b0 	sw	a0,4272(v0)
    IFS0bits.T2IF = 0;              // INT step 5: clear interrupt flag
9d004428:	3c02bf88 	lui	v0,0xbf88
9d00442c:	8c441030 	lw	a0,4144(v0)
9d004430:	7c044204 	ins	a0,zero,0x8,0x1
9d004434:	ac441030 	sw	a0,4144(v0)
    IEC0bits.T2IE = 1;              // INT step 6: enable interrupt
9d004438:	3c02bf88 	lui	v0,0xbf88
9d00443c:	8c451060 	lw	a1,4192(v0)
9d004440:	24040001 	li	a0,1
9d004444:	7c854204 	ins	a1,a0,0x8,0x1
9d004448:	ac451060 	sw	a1,4192(v0)

    //Output Compare for 20 kHz PWM signal
    T3CONbits.TCKPS = 0;     // Timer3 prescaler N=1
9d00444c:	3c05bf80 	lui	a1,0xbf80
9d004450:	94a20a00 	lhu	v0,2560(a1)
9d004454:	7c023104 	ins	v0,zero,0x4,0x3
9d004458:	a4a20a00 	sh	v0,2560(a1)
    PR3 = 3999;              // period = (PR3+1) * N * 12.5 ns = 100 us, 10 kHz
9d00445c:	3c02bf80 	lui	v0,0xbf80
9d004460:	24060f9f 	li	a2,3999
9d004464:	ac460a20 	sw	a2,2592(v0)
    TMR3 = 0;                // initial TMR3 count is 0
9d004468:	3c02bf80 	lui	v0,0xbf80
9d00446c:	ac400a10 	sw	zero,2576(v0)
    OC1CONbits.OCTSEL = 1;   // Timer3
9d004470:	3c02bf80 	lui	v0,0xbf80
9d004474:	94463000 	lhu	a2,12288(v0)
9d004478:	7c8618c4 	ins	a2,a0,0x3,0x1
9d00447c:	a4463000 	sh	a2,12288(v0)
    OC1CONbits.OCM = 0b110;  // PWM mode without fault pin; other OC1CON bits are defaults
9d004480:	94463000 	lhu	a2,12288(v0)
9d004484:	24070006 	li	a3,6
9d004488:	7ce61004 	ins	a2,a3,0x0,0x3
9d00448c:	a4463000 	sh	a2,12288(v0)
    OC1R = 1000;              // initialize before turning OC1 on; afterward it is read-only
9d004490:	3c06bf80 	lui	a2,0xbf80
9d004494:	240703e8 	li	a3,1000
9d004498:	acc73010 	sw	a3,12304(a2)

    //Digital Output for Direction
    TRISDbits.TRISD1 = 0;           // Set RD0 to digital output
9d00449c:	3c06bf88 	lui	a2,0xbf88
9d0044a0:	94c760c0 	lhu	a3,24768(a2)
9d0044a4:	7c070844 	ins	a3,zero,0x1,0x1
9d0044a8:	a4c760c0 	sh	a3,24768(a2)


    T2CONbits.ON = 1;               // Turn on Timer2 (5 kHz ISR)
9d0044ac:	94660800 	lhu	a2,2048(v1)
9d0044b0:	7c867bc4 	ins	a2,a0,0xf,0x1
9d0044b4:	a4660800 	sh	a2,2048(v1)
    T3CONbits.ON = 1;               // turn on Timer3
9d0044b8:	94a30a00 	lhu	v1,2560(a1)
9d0044bc:	7c837bc4 	ins	v1,a0,0xf,0x1
9d0044c0:	a4a30a00 	sh	v1,2560(a1)
    OC1CONbits.ON = 1;              // turn on OC1
9d0044c4:	94433000 	lhu	v1,12288(v0)
9d0044c8:	7c837bc4 	ins	v1,a0,0xf,0x1
9d0044cc:	a4433000 	sh	v1,12288(v0)
    __builtin_enable_interrupts();
9d0044d0:	41626020 	ei	v0

}
9d0044d4:	8fbf0004 	lw	ra,4(sp)
9d0044d8:	03e00008 	jr	ra
9d0044dc:	27bd0008 	addiu	sp,sp,8

9d0044e0 <set_PWM_dutycycle>:

void set_PWM_dutycycle(int i){
    pwm_user = i;
9d0044e0:	af848068 	sw	a0,-32664(gp)
}
9d0044e4:	03e00008 	jr	ra
9d0044e8:	00000000 	nop

9d0044ec <set_current_gains>:

void set_current_gains(float kp_u, float ki_u){
    kp = kp_u;
9d0044ec:	af848038 	sw	a0,-32712(gp)
    ki = ki_u;
9d0044f0:	af858034 	sw	a1,-32716(gp)
}
9d0044f4:	03e00008 	jr	ra
9d0044f8:	00000000 	nop

9d0044fc <get_current_kp>:

float get_current_kp(){
    return kp;
9d0044fc:	8f828038 	lw	v0,-32712(gp)
}
9d004500:	03e00008 	jr	ra
9d004504:	00000000 	nop

9d004508 <get_current_ki>:

float get_current_ki(){
    return ki;
9d004508:	8f828034 	lw	v0,-32716(gp)
}
9d00450c:	03e00008 	jr	ra
9d004510:	00000000 	nop

9d004514 <set_des_current>:

float set_des_current(float des_cur){
    dcur = des_cur;
9d004514:	af84802c 	sw	a0,-32724(gp)
}
9d004518:	03e00008 	jr	ra
9d00451c:	00000000 	nop

9d004520 <ITEST_print>:

void ITEST_print(){
9d004520:	27bdff88 	addiu	sp,sp,-120
9d004524:	afbf0074 	sw	ra,116(sp)
9d004528:	afb70070 	sw	s7,112(sp)
9d00452c:	afb6006c 	sw	s6,108(sp)
9d004530:	afb50068 	sw	s5,104(sp)
9d004534:	afb40064 	sw	s4,100(sp)
9d004538:	afb30060 	sw	s3,96(sp)
9d00453c:	afb2005c 	sw	s2,92(sp)
9d004540:	afb10058 	sw	s1,88(sp)
9d004544:	afb00054 	sw	s0,84(sp)
    char m[50];
    NU32_WriteUART3("100\r\n");
9d004548:	3c049d00 	lui	a0,0x9d00
9d00454c:	0f402e0d 	jal	9d00b834 <NU32_WriteUART3>
9d004550:	24841e00 	addiu	a0,a0,7680
    int i;
    for(i = 0; i<100; i++){
9d004554:	00008025 	move	s0,zero
        sprintf(m,"%f %f\r\n", REFArray[i], CValArray[i]);
9d004558:	3c15a001 	lui	s5,0xa001
9d00455c:	26b53ad4 	addiu	s5,s5,15060
9d004560:	3c14a001 	lui	s4,0xa001
9d004564:	26943944 	addiu	s4,s4,14660
9d004568:	3c119d00 	lui	s1,0x9d00
9d00456c:	26311e08 	addiu	s1,s1,7688
    for(i = 0; i<100; i++){
9d004570:	24160064 	li	s6,100
        sprintf(m,"%f %f\r\n", REFArray[i], CValArray[i]);
9d004574:	00101080 	sll	v0,s0,0x2
9d004578:	00551821 	addu	v1,v0,s5
9d00457c:	8c640000 	lw	a0,0(v1)
9d004580:	00541021 	addu	v0,v0,s4
9d004584:	8c570000 	lw	s7,0(v0)
9d004588:	0f403779 	jal	9d00dde4 <__extendsfdf2>
9d00458c:	26100001 	addiu	s0,s0,1
9d004590:	00409025 	move	s2,v0
9d004594:	00609825 	move	s3,v1
9d004598:	0f403779 	jal	9d00dde4 <__extendsfdf2>
9d00459c:	02e02025 	move	a0,s7
9d0045a0:	afa20010 	sw	v0,16(sp)
9d0045a4:	afa30014 	sw	v1,20(sp)
9d0045a8:	02403025 	move	a2,s2
9d0045ac:	02603825 	move	a3,s3
9d0045b0:	02202825 	move	a1,s1
9d0045b4:	0f403f3f 	jal	9d00fcfc <_dsprintf_eE>
9d0045b8:	27a40018 	addiu	a0,sp,24
        NU32_WriteUART3(m);
9d0045bc:	0f402e0d 	jal	9d00b834 <NU32_WriteUART3>
9d0045c0:	27a40018 	addiu	a0,sp,24
    for(i = 0; i<100; i++){
9d0045c4:	1616ffec 	bne	s0,s6,9d004578 <ITEST_print+0x58>
9d0045c8:	00101080 	sll	v0,s0,0x2
    }
9d0045cc:	8fbf0074 	lw	ra,116(sp)
9d0045d0:	8fb70070 	lw	s7,112(sp)
9d0045d4:	8fb6006c 	lw	s6,108(sp)
9d0045d8:	8fb50068 	lw	s5,104(sp)
9d0045dc:	8fb40064 	lw	s4,100(sp)
9d0045e0:	8fb30060 	lw	s3,96(sp)
9d0045e4:	8fb2005c 	lw	s2,92(sp)
9d0045e8:	8fb10058 	lw	s1,88(sp)
9d0045ec:	8fb00054 	lw	s0,84(sp)
9d0045f0:	03e00008 	jr	ra
9d0045f4:	27bd0078 	addiu	sp,sp,120

Disassembly of section .text.__fmt_fp:

9d0045f8 <__fmt_fp>:
9d0045f8:	27bdff68 	addiu	sp,sp,-152
9d0045fc:	afa700a4 	sw	a3,164(sp)
9d004600:	8ca20000 	lw	v0,0(a1)
9d004604:	afb50084 	sw	s5,132(sp)
9d004608:	8cd50000 	lw	s5,0(a2)
9d00460c:	afa20020 	sw	v0,32(sp)
9d004610:	8ca20008 	lw	v0,8(a1)
9d004614:	afb60088 	sw	s6,136(sp)
9d004618:	afb00070 	sw	s0,112(sp)
9d00461c:	afa20024 	sw	v0,36(sp)
9d004620:	8ca20010 	lw	v0,16(a1)
9d004624:	afa40098 	sw	a0,152(sp)
9d004628:	afa5009c 	sw	a1,156(sp)
9d00462c:	afa20040 	sw	v0,64(sp)
9d004630:	8cc20004 	lw	v0,4(a2)
9d004634:	8cb00004 	lw	s0,4(a1)
9d004638:	8cb6000c 	lw	s6,12(a1)
9d00463c:	afa2001c 	sw	v0,28(sp)
9d004640:	8fa2001c 	lw	v0,28(sp)
9d004644:	00003025 	move	a2,zero
9d004648:	00003825 	move	a3,zero
9d00464c:	02a02025 	move	a0,s5
9d004650:	00402825 	move	a1,v0
9d004654:	afbf0094 	sw	ra,148(sp)
9d004658:	afbe0090 	sw	s8,144(sp)
9d00465c:	afb7008c 	sw	s7,140(sp)
9d004660:	afb40080 	sw	s4,128(sp)
9d004664:	afb3007c 	sw	s3,124(sp)
9d004668:	afb20078 	sw	s2,120(sp)
9d00466c:	0f40329b 	jal	9d00ca6c <dpcmplt>
9d004670:	afb10074 	sw	s1,116(sp)
9d004674:	0440000e 	bltz	v0,9d0046b0 <__fmt_fp+0xb8>
9d004678:	8fa20020 	lw	v0,32(sp)
9d00467c:	30420004 	andi	v0,v0,0x4
9d004680:	14400010 	bnez	v0,9d0046c4 <__fmt_fp+0xcc>
9d004684:	2402002b 	li	v0,43
9d004688:	8fa20020 	lw	v0,32(sp)
9d00468c:	30420008 	andi	v0,v0,0x8
9d004690:	afa20028 	sw	v0,40(sp)
9d004694:	8fa20024 	lw	v0,36(sp)
9d004698:	afa20018 	sw	v0,24(sp)
9d00469c:	8fa20028 	lw	v0,40(sp)
9d0046a0:	1040000f 	beqz	v0,9d0046e0 <__fmt_fp+0xe8>
9d0046a4:	8fa30028 	lw	v1,40(sp)
9d0046a8:	10000006 	b	9d0046c4 <__fmt_fp+0xcc>
9d0046ac:	24020020 	li	v0,32
9d0046b0:	8fa3001c 	lw	v1,28(sp)
9d0046b4:	3c028000 	lui	v0,0x8000
9d0046b8:	00431026 	xor	v0,v0,v1
9d0046bc:	afa2001c 	sw	v0,28(sp)
9d0046c0:	2402002d 	li	v0,45
9d0046c4:	a2c20000 	sb	v0,0(s6)
9d0046c8:	8fa20024 	lw	v0,36(sp)
9d0046cc:	2442ffff 	addiu	v0,v0,-1
9d0046d0:	afa20018 	sw	v0,24(sp)
9d0046d4:	24020001 	li	v0,1
9d0046d8:	afa20028 	sw	v0,40(sp)
9d0046dc:	8fa30028 	lw	v1,40(sp)
9d0046e0:	8fa2001c 	lw	v0,28(sp)
9d0046e4:	02c31821 	addu	v1,s6,v1
9d0046e8:	7c42f000 	ext	v0,v0,0x0,0x1f
9d0046ec:	16a00024 	bnez	s5,9d004780 <__fmt_fp+0x188>
9d0046f0:	afa3002c 	sw	v1,44(sp)
9d0046f4:	3c037ff0 	lui	v1,0x7ff0
9d0046f8:	14430022 	bne	v0,v1,9d004784 <__fmt_fp+0x18c>
9d0046fc:	3c047ff0 	lui	a0,0x7ff0
9d004700:	8fa200a4 	lw	v0,164(sp)
9d004704:	3c109d00 	lui	s0,0x9d00
9d004708:	2442ffbf 	addiu	v0,v0,-65
9d00470c:	2c42001a 	sltiu	v0,v0,26
9d004710:	10400003 	beqz	v0,9d004720 <__fmt_fp+0x128>
9d004714:	26051efc 	addiu	a1,s0,7932
9d004718:	3c059d00 	lui	a1,0x9d00
9d00471c:	24a51ef8 	addiu	a1,a1,7928
9d004720:	0f403f67 	jal	9d00fd9c <strcpy>
9d004724:	8fa4002c 	lw	a0,44(sp)
9d004728:	26041efc 	addiu	a0,s0,7932
9d00472c:	0f404054 	jal	9d010150 <strlen>
9d004730:	00000000 	nop
9d004734:	8fa30020 	lw	v1,32(sp)
9d004738:	8fa70024 	lw	a3,36(sp)
9d00473c:	8fa40098 	lw	a0,152(sp)
9d004740:	afa30010 	sw	v1,16(sp)
9d004744:	02c02825 	move	a1,s6
9d004748:	0f40348c 	jal	9d00d230 <__pad>
9d00474c:	00403025 	move	a2,v0
9d004750:	8fbf0094 	lw	ra,148(sp)
9d004754:	8fbe0090 	lw	s8,144(sp)
9d004758:	8fb7008c 	lw	s7,140(sp)
9d00475c:	8fb60088 	lw	s6,136(sp)
9d004760:	8fb50084 	lw	s5,132(sp)
9d004764:	8fb40080 	lw	s4,128(sp)
9d004768:	8fb3007c 	lw	s3,124(sp)
9d00476c:	8fb20078 	lw	s2,120(sp)
9d004770:	8fb10074 	lw	s1,116(sp)
9d004774:	8fb00070 	lw	s0,112(sp)
9d004778:	03e00008 	jr	ra
9d00477c:	27bd0098 	addiu	sp,sp,152
9d004780:	3c047ff0 	lui	a0,0x7ff0
9d004784:	24830001 	addiu	v1,a0,1
9d004788:	0043182b 	sltu	v1,v0,v1
9d00478c:	50600006 	beqzl	v1,9d0047a8 <__fmt_fp+0x1b0>
9d004790:	8fa200a4 	lw	v0,164(sp)
9d004794:	1444000f 	bne	v0,a0,9d0047d4 <__fmt_fp+0x1dc>
9d004798:	8fa2001c 	lw	v0,28(sp)
9d00479c:	12a0000e 	beqz	s5,9d0047d8 <__fmt_fp+0x1e0>
9d0047a0:	00003025 	move	a2,zero
9d0047a4:	8fa200a4 	lw	v0,164(sp)
9d0047a8:	3c109d00 	lui	s0,0x9d00
9d0047ac:	2442ffbf 	addiu	v0,v0,-65
9d0047b0:	2c42001a 	sltiu	v0,v0,26
9d0047b4:	10400003 	beqz	v0,9d0047c4 <__fmt_fp+0x1cc>
9d0047b8:	26051f04 	addiu	a1,s0,7940
9d0047bc:	3c059d00 	lui	a1,0x9d00
9d0047c0:	24a51f00 	addiu	a1,a1,7936
9d0047c4:	0f403f67 	jal	9d00fd9c <strcpy>
9d0047c8:	8fa4002c 	lw	a0,44(sp)
9d0047cc:	1000ffd7 	b	9d00472c <__fmt_fp+0x134>
9d0047d0:	26041f04 	addiu	a0,s0,7940
9d0047d4:	00003025 	move	a2,zero
9d0047d8:	00003825 	move	a3,zero
9d0047dc:	02a02025 	move	a0,s5
9d0047e0:	0f403250 	jal	9d00c940 <__eqdf2>
9d0047e4:	00402825 	move	a1,v0
9d0047e8:	3c139d00 	lui	s3,0x9d00
9d0047ec:	3c039d00 	lui	v1,0x9d00
9d0047f0:	afa30038 	sw	v1,56(sp)
9d0047f4:	8e711f08 	lw	s1,7944(s3)
9d0047f8:	8e721f0c 	lw	s2,7948(s3)
9d0047fc:	14400036 	bnez	v0,9d0048d8 <__fmt_fp+0x2e0>
9d004800:	0000b825 	move	s7,zero
9d004804:	0f403fda 	jal	9d00ff68 <tolower>
9d004808:	8fa400a4 	lw	a0,164(sp)
9d00480c:	7c021420 	seb	v0,v0
9d004810:	afa20030 	sw	v0,48(sp)
9d004814:	0600019a 	bltz	s0,9d004e80 <__fmt_fp+0x888>
9d004818:	24020067 	li	v0,103
9d00481c:	8fbe0030 	lw	s8,48(sp)
9d004820:	17c200c5 	bne	s8,v0,9d004b38 <__fmt_fp+0x540>
9d004824:	24020066 	li	v0,102
9d004828:	52000001 	beqzl	s0,9d004830 <__fmt_fp+0x238>
9d00482c:	24100001 	li	s0,1
9d004830:	2ae2fffc 	slti	v0,s7,-4
9d004834:	144000cb 	bnez	v0,9d004b64 <__fmt_fp+0x56c>
9d004838:	241e0065 	li	s8,101
9d00483c:	02f0102a 	slt	v0,s7,s0
9d004840:	144000b9 	bnez	v0,9d004b28 <__fmt_fp+0x530>
9d004844:	8fa20038 	lw	v0,56(sp)
9d004848:	100000c7 	b	9d004b68 <__fmt_fp+0x570>
9d00484c:	00000000 	nop
9d004850:	26f70001 	addiu	s7,s7,1
9d004854:	03c08825 	move	s1,s8
9d004858:	02809025 	move	s2,s4
9d00485c:	01003025 	move	a2,t0
9d004860:	01203825 	move	a3,t1
9d004864:	02202025 	move	a0,s1
9d004868:	02402825 	move	a1,s2
9d00486c:	afa80030 	sw	t0,48(sp)
9d004870:	0f402611 	jal	9d009844 <__muldf3>
9d004874:	afa90034 	sw	t1,52(sp)
9d004878:	0040f025 	move	s8,v0
9d00487c:	8fa2001c 	lw	v0,28(sp)
9d004880:	02a03025 	move	a2,s5
9d004884:	03c02025 	move	a0,s8
9d004888:	00403825 	move	a3,v0
9d00488c:	00602825 	move	a1,v1
9d004890:	0f403250 	jal	9d00c940 <__eqdf2>
9d004894:	0060a025 	move	s4,v1
9d004898:	8fa80030 	lw	t0,48(sp)
9d00489c:	1840ffec 	blez	v0,9d004850 <__fmt_fp+0x258>
9d0048a0:	8fa90034 	lw	t1,52(sp)
9d0048a4:	3c029d00 	lui	v0,0x9d00
9d0048a8:	8c5e1f18 	lw	s8,7960(v0)
9d0048ac:	8c421f1c 	lw	v0,7964(v0)
9d0048b0:	0000a025 	move	s4,zero
9d0048b4:	afbe0050 	sw	s8,80(sp)
9d0048b8:	afa20030 	sw	v0,48(sp)
9d0048bc:	afa20058 	sw	v0,88(sp)
9d0048c0:	8fa20038 	lw	v0,56(sp)
9d0048c4:	8c431f14 	lw	v1,7956(v0)
9d0048c8:	8c421f10 	lw	v0,7952(v0)
9d0048cc:	afa3004c 	sw	v1,76(sp)
9d0048d0:	10000021 	b	9d004958 <__fmt_fp+0x360>
9d0048d4:	afa20048 	sw	v0,72(sp)
9d0048d8:	3c029d00 	lui	v0,0x9d00
9d0048dc:	8c481f10 	lw	t0,7952(v0)
9d0048e0:	1000ffde 	b	9d00485c <__fmt_fp+0x264>
9d0048e4:	8c491f14 	lw	t1,7956(v0)
9d0048e8:	10400014 	beqz	v0,9d00493c <__fmt_fp+0x344>
9d0048ec:	8fa60048 	lw	a2,72(sp)
9d0048f0:	16800013 	bnez	s4,9d004940 <__fmt_fp+0x348>
9d0048f4:	8fa7004c 	lw	a3,76(sp)
9d0048f8:	8fa2001c 	lw	v0,28(sp)
9d0048fc:	8fa70030 	lw	a3,48(sp)
9d004900:	02a02025 	move	a0,s5
9d004904:	03c03025 	move	a2,s8
9d004908:	0f402611 	jal	9d009844 <__muldf3>
9d00490c:	00402825 	move	a1,v0
9d004910:	8fa60050 	lw	a2,80(sp)
9d004914:	8fa70058 	lw	a3,88(sp)
9d004918:	02202025 	move	a0,s1
9d00491c:	02402825 	move	a1,s2
9d004920:	0040a825 	move	s5,v0
9d004924:	0f402611 	jal	9d009844 <__muldf3>
9d004928:	afa3001c 	sw	v1,28(sp)
9d00492c:	00408825 	move	s1,v0
9d004930:	00609025 	move	s2,v1
9d004934:	24140001 	li	s4,1
9d004938:	8fa60048 	lw	a2,72(sp)
9d00493c:	8fa7004c 	lw	a3,76(sp)
9d004940:	02202025 	move	a0,s1
9d004944:	0f401da9 	jal	9d0076a4 <__divdf3>
9d004948:	02402825 	move	a1,s2
9d00494c:	00408825 	move	s1,v0
9d004950:	00609025 	move	s2,v1
9d004954:	26f7ffff 	addiu	s7,s7,-1
9d004958:	8fa2001c 	lw	v0,28(sp)
9d00495c:	02203025 	move	a2,s1
9d004960:	02403825 	move	a3,s2
9d004964:	02a02025 	move	a0,s5
9d004968:	0f40329b 	jal	9d00ca6c <dpcmplt>
9d00496c:	00402825 	move	a1,v0
9d004970:	0442ffdd 	bltzl	v0,9d0048e8 <__fmt_fp+0x2f0>
9d004974:	2ae2fed4 	slti	v0,s7,-300
9d004978:	1000ffa2 	b	9d004804 <__fmt_fp+0x20c>
9d00497c:	00000000 	nop
9d004980:	02203025 	move	a2,s1
9d004984:	02403825 	move	a3,s2
9d004988:	02602025 	move	a0,s3
9d00498c:	afac0060 	sw	t4,96(sp)
9d004990:	afab0044 	sw	t3,68(sp)
9d004994:	0f401da9 	jal	9d0076a4 <__divdf3>
9d004998:	afaa0058 	sw	t2,88(sp)
9d00499c:	00402025 	move	a0,v0
9d0049a0:	0f40344a 	jal	9d00d128 <dpfloor>
9d0049a4:	00602825 	move	a1,v1
9d0049a8:	00602825 	move	a1,v1
9d0049ac:	00402025 	move	a0,v0
9d0049b0:	afa30054 	sw	v1,84(sp)
9d0049b4:	0f40395b 	jal	9d00e56c <__fixdfsi>
9d0049b8:	afa20050 	sw	v0,80(sp)
9d0049bc:	8fa30048 	lw	v1,72(sp)
9d0049c0:	8fa80050 	lw	t0,80(sp)
9d0049c4:	8fa90054 	lw	t1,84(sp)
9d0049c8:	00621825 	or	v1,v1,v0
9d0049cc:	8faa0058 	lw	t2,88(sp)
9d0049d0:	8fab0044 	lw	t3,68(sp)
9d0049d4:	1460000b 	bnez	v1,9d004a04 <__fmt_fp+0x40c>
9d0049d8:	8fac0060 	lw	t4,96(sp)
9d0049dc:	8fa40030 	lw	a0,48(sp)
9d0049e0:	24030067 	li	v1,103
9d0049e4:	14830007 	bne	a0,v1,9d004a04 <__fmt_fp+0x40c>
9d0049e8:	00000000 	nop
9d0049ec:	06a00021 	bltz	s5,9d004a74 <__fmt_fp+0x47c>
9d0049f0:	258b0001 	addiu	t3,t4,1
9d0049f4:	02801825 	move	v1,s4
9d0049f8:	02d42021 	addu	a0,s6,s4
9d0049fc:	10000011 	b	9d004a44 <__fmt_fp+0x44c>
9d004a00:	01805825 	move	t3,t4
9d004a04:	1600fffc 	bnez	s0,9d0049f8 <__fmt_fp+0x400>
9d004a08:	02801825 	move	v1,s4
9d004a0c:	06a3fffb 	bgezl	s5,9d0049fc <__fmt_fp+0x404>
9d004a10:	02d42021 	addu	a0,s6,s4
9d004a14:	8fa30018 	lw	v1,24(sp)
9d004a18:	02cb5821 	addu	t3,s6,t3
9d004a1c:	26940001 	addiu	s4,s4,1
9d004a20:	2463ffff 	addiu	v1,v1,-1
9d004a24:	afa30018 	sw	v1,24(sp)
9d004a28:	2403002e 	li	v1,46
9d004a2c:	a1630000 	sb	v1,0(t3)
9d004a30:	1000fff0 	b	9d0049f4 <__fmt_fp+0x3fc>
9d004a34:	24100001 	li	s0,1
9d004a38:	a0850000 	sb	a1,0(a0)
9d004a3c:	256bffff 	addiu	t3,t3,-1
9d004a40:	24840001 	addiu	a0,a0,1
9d004a44:	5560fffc 	bnezl	t3,9d004a38 <__fmt_fp+0x440>
9d004a48:	24050030 	li	a1,48
9d004a4c:	8fa40018 	lw	a0,24(sp)
9d004a50:	26940001 	addiu	s4,s4,1
9d004a54:	02c31821 	addu	v1,s6,v1
9d004a58:	2484ffff 	addiu	a0,a0,-1
9d004a5c:	008c2023 	subu	a0,a0,t4
9d004a60:	028ca021 	addu	s4,s4,t4
9d004a64:	24420030 	addiu	v0,v0,48
9d004a68:	006c6021 	addu	t4,v1,t4
9d004a6c:	afa40018 	sw	a0,24(sp)
9d004a70:	a1820000 	sb	v0,0(t4)
9d004a74:	3c0c8000 	lui	t4,0x8000
9d004a78:	018a2026 	xor	a0,t4,t2
9d004a7c:	02203025 	move	a2,s1
9d004a80:	02403825 	move	a3,s2
9d004a84:	01202825 	move	a1,t1
9d004a88:	afb30010 	sw	s3,16(sp)
9d004a8c:	afa40014 	sw	a0,20(sp)
9d004a90:	01002025 	move	a0,t0
9d004a94:	0f4013a5 	jal	9d004e94 <fma>
9d004a98:	afab0058 	sw	t3,88(sp)
9d004a9c:	8fa60038 	lw	a2,56(sp)
9d004aa0:	8fa7003c 	lw	a3,60(sp)
9d004aa4:	3c0c8000 	lui	t4,0x8000
9d004aa8:	01835026 	xor	t2,t4,v1
9d004aac:	02202025 	move	a0,s1
9d004ab0:	02402825 	move	a1,s2
9d004ab4:	afaa0050 	sw	t2,80(sp)
9d004ab8:	0f401da9 	jal	9d0076a4 <__divdf3>
9d004abc:	00409825 	move	s3,v0
9d004ac0:	8fab0058 	lw	t3,88(sp)
9d004ac4:	00408825 	move	s1,v0
9d004ac8:	00609025 	move	s2,v1
9d004acc:	26b5ffff 	addiu	s5,s5,-1
9d004ad0:	01606025 	move	t4,t3
9d004ad4:	10000097 	b	9d004d34 <__fmt_fp+0x73c>
9d004ad8:	8faa0050 	lw	t2,80(sp)
9d004adc:	02e7001a 	div	zero,s7,a3
9d004ae0:	00e001f4 	teq	a3,zero,0x7
9d004ae4:	02c34021 	addu	t0,s6,v1
9d004ae8:	00601025 	move	v0,v1
9d004aec:	00001810 	mfhi	v1
9d004af0:	24630030 	addiu	v1,v1,48
9d004af4:	a1030000 	sb	v1,0(t0)
9d004af8:	8fa30018 	lw	v1,24(sp)
9d004afc:	0000b812 	mflo	s7
9d004b00:	2463ffff 	addiu	v1,v1,-1
9d004b04:	100000ae 	b	9d004dc0 <__fmt_fp+0x7c8>
9d004b08:	afa30018 	sw	v1,24(sp)
9d004b0c:	80640000 	lb	a0,0(v1)
9d004b10:	8fa30018 	lw	v1,24(sp)
9d004b14:	00621821 	addu	v1,v1,v0
9d004b18:	02c31821 	addu	v1,s6,v1
9d004b1c:	a0640000 	sb	a0,0(v1)
9d004b20:	100000ca 	b	9d004e4c <__fmt_fp+0x854>
9d004b24:	2442ffff 	addiu	v0,v0,-1
9d004b28:	06e1000a 	bgez	s7,9d004b54 <__fmt_fp+0x55c>
9d004b2c:	8fa30030 	lw	v1,48(sp)
9d004b30:	241e0066 	li	s8,102
9d004b34:	24020066 	li	v0,102
9d004b38:	17c2000a 	bne	s8,v0,9d004b64 <__fmt_fp+0x56c>
9d004b3c:	26100001 	addiu	s0,s0,1
9d004b40:	06e10004 	bgez	s7,9d004b54 <__fmt_fp+0x55c>
9d004b44:	8fa30030 	lw	v1,48(sp)
9d004b48:	8e711f08 	lw	s1,7944(s3)
9d004b4c:	8e721f0c 	lw	s2,7948(s3)
9d004b50:	0000b825 	move	s7,zero
9d004b54:	24020067 	li	v0,103
9d004b58:	10620002 	beq	v1,v0,9d004b64 <__fmt_fp+0x56c>
9d004b5c:	241e0066 	li	s8,102
9d004b60:	02178021 	addu	s0,s0,s7
9d004b64:	8fa20038 	lw	v0,56(sp)
9d004b68:	8fb3001c 	lw	s3,28(sp)
9d004b6c:	02204825 	move	t1,s1
9d004b70:	8c431f14 	lw	v1,7956(v0)
9d004b74:	8c421f10 	lw	v0,7952(v0)
9d004b78:	02404025 	move	t0,s2
9d004b7c:	02a05025 	move	t2,s5
9d004b80:	00006025 	move	t4,zero
9d004b84:	afa20050 	sw	v0,80(sp)
9d004b88:	afa30054 	sw	v1,84(sp)
9d004b8c:	01203025 	move	a2,t1
9d004b90:	01003825 	move	a3,t0
9d004b94:	01402025 	move	a0,t2
9d004b98:	02602825 	move	a1,s3
9d004b9c:	afac0068 	sw	t4,104(sp)
9d004ba0:	afa90060 	sw	t1,96(sp)
9d004ba4:	afa80064 	sw	t0,100(sp)
9d004ba8:	0f401da9 	jal	9d0076a4 <__divdf3>
9d004bac:	afaa0044 	sw	t2,68(sp)
9d004bb0:	00402025 	move	a0,v0
9d004bb4:	0f40344a 	jal	9d00d128 <dpfloor>
9d004bb8:	00602825 	move	a1,v1
9d004bbc:	00602825 	move	a1,v1
9d004bc0:	00402025 	move	a0,v0
9d004bc4:	afa3005c 	sw	v1,92(sp)
9d004bc8:	0f40395b 	jal	9d00e56c <__fixdfsi>
9d004bcc:	afa20058 	sw	v0,88(sp)
9d004bd0:	8faa0058 	lw	t2,88(sp)
9d004bd4:	8fad0044 	lw	t5,68(sp)
9d004bd8:	8fa80064 	lw	t0,100(sp)
9d004bdc:	8fa90060 	lw	t1,96(sp)
9d004be0:	8fab005c 	lw	t3,92(sp)
9d004be4:	0260a025 	move	s4,s3
9d004be8:	3c138000 	lui	s3,0x8000
9d004bec:	02742026 	xor	a0,s3,s4
9d004bf0:	01203025 	move	a2,t1
9d004bf4:	01003825 	move	a3,t0
9d004bf8:	01602825 	move	a1,t3
9d004bfc:	afad0010 	sw	t5,16(sp)
9d004c00:	afa40014 	sw	a0,20(sp)
9d004c04:	01402025 	move	a0,t2
9d004c08:	afa80044 	sw	t0,68(sp)
9d004c0c:	0f4013a5 	jal	9d004e94 <fma>
9d004c10:	afa20048 	sw	v0,72(sp)
9d004c14:	8fa90060 	lw	t1,96(sp)
9d004c18:	8fa80044 	lw	t0,68(sp)
9d004c1c:	8fa60050 	lw	a2,80(sp)
9d004c20:	8fa70054 	lw	a3,84(sp)
9d004c24:	01202025 	move	a0,t1
9d004c28:	01002825 	move	a1,t0
9d004c2c:	0040a025 	move	s4,v0
9d004c30:	afa20058 	sw	v0,88(sp)
9d004c34:	0f401da9 	jal	9d0076a4 <__divdf3>
9d004c38:	02639826 	xor	s3,s3,v1
9d004c3c:	8fac0068 	lw	t4,104(sp)
9d004c40:	00404825 	move	t1,v0
9d004c44:	00604025 	move	t0,v1
9d004c48:	258c0001 	addiu	t4,t4,1
9d004c4c:	160cffcf 	bne	s0,t4,9d004b8c <__fmt_fp+0x594>
9d004c50:	8faa0058 	lw	t2,88(sp)
9d004c54:	3c029d00 	lui	v0,0x9d00
9d004c58:	8c461f20 	lw	a2,7968(v0)
9d004c5c:	8c471f24 	lw	a3,7972(v0)
9d004c60:	01202025 	move	a0,t1
9d004c64:	0f402611 	jal	9d009844 <__muldf3>
9d004c68:	00602825 	move	a1,v1
9d004c6c:	00403025 	move	a2,v0
9d004c70:	00603825 	move	a3,v1
9d004c74:	02802025 	move	a0,s4
9d004c78:	02602825 	move	a1,s3
9d004c7c:	afa20050 	sw	v0,80(sp)
9d004c80:	0f40329b 	jal	9d00ca6c <dpcmplt>
9d004c84:	afa30054 	sw	v1,84(sp)
9d004c88:	04400010 	bltz	v0,9d004ccc <__fmt_fp+0x6d4>
9d004c8c:	00004025 	move	t0,zero
9d004c90:	8fa80050 	lw	t0,80(sp)
9d004c94:	8fa90054 	lw	t1,84(sp)
9d004c98:	02802025 	move	a0,s4
9d004c9c:	01003025 	move	a2,t0
9d004ca0:	01203825 	move	a3,t1
9d004ca4:	0f403250 	jal	9d00c940 <__eqdf2>
9d004ca8:	02602825 	move	a1,s3
9d004cac:	8fa80050 	lw	t0,80(sp)
9d004cb0:	14400007 	bnez	v0,9d004cd0 <__fmt_fp+0x6d8>
9d004cb4:	8fa90054 	lw	t1,84(sp)
9d004cb8:	8fa20048 	lw	v0,72(sp)
9d004cbc:	30420001 	andi	v0,v0,0x1
9d004cc0:	14400004 	bnez	v0,9d004cd4 <__fmt_fp+0x6dc>
9d004cc4:	8fa2001c 	lw	v0,28(sp)
9d004cc8:	00004025 	move	t0,zero
9d004ccc:	00004825 	move	t1,zero
9d004cd0:	8fa2001c 	lw	v0,28(sp)
9d004cd4:	02a02025 	move	a0,s5
9d004cd8:	01003025 	move	a2,t0
9d004cdc:	01203825 	move	a3,t1
9d004ce0:	0f402210 	jal	9d008840 <__adddf3>
9d004ce4:	00402825 	move	a1,v0
9d004ce8:	3bd50065 	xori	s5,s8,0x65
9d004cec:	00409825 	move	s3,v0
9d004cf0:	02e01025 	move	v0,s7
9d004cf4:	0015100a 	movz	v0,zero,s5
9d004cf8:	0040a825 	move	s5,v0
9d004cfc:	00501023 	subu	v0,v0,s0
9d004d00:	afa2001c 	sw	v0,28(sp)
9d004d04:	8fa20020 	lw	v0,32(sp)
9d004d08:	00605025 	move	t2,v1
9d004d0c:	8fb40028 	lw	s4,40(sp)
9d004d10:	30420010 	andi	v0,v0,0x10
9d004d14:	afa20048 	sw	v0,72(sp)
9d004d18:	8fa20038 	lw	v0,56(sp)
9d004d1c:	00006025 	move	t4,zero
9d004d20:	00008025 	move	s0,zero
9d004d24:	8c431f14 	lw	v1,7956(v0)
9d004d28:	8c421f10 	lw	v0,7952(v0)
9d004d2c:	afa3003c 	sw	v1,60(sp)
9d004d30:	afa20038 	sw	v0,56(sp)
9d004d34:	8fa2001c 	lw	v0,28(sp)
9d004d38:	10550007 	beq	v0,s5,9d004d58 <__fmt_fp+0x760>
9d004d3c:	02805825 	move	t3,s4
9d004d40:	8fa2009c 	lw	v0,156(sp)
9d004d44:	8c420010 	lw	v0,16(v0)
9d004d48:	2442fffb 	addiu	v0,v0,-5
9d004d4c:	0282102b 	sltu	v0,s4,v0
9d004d50:	5440ff0b 	bnezl	v0,9d004980 <__fmt_fp+0x388>
9d004d54:	01402825 	move	a1,t2
9d004d58:	1600000a 	bnez	s0,9d004d84 <__fmt_fp+0x78c>
9d004d5c:	02d42021 	addu	a0,s6,s4
9d004d60:	8fa20020 	lw	v0,32(sp)
9d004d64:	30420010 	andi	v0,v0,0x10
9d004d68:	10400007 	beqz	v0,9d004d88 <__fmt_fp+0x790>
9d004d6c:	24020065 	li	v0,101
9d004d70:	02cb5821 	addu	t3,s6,t3
9d004d74:	2402002e 	li	v0,46
9d004d78:	26940001 	addiu	s4,s4,1
9d004d7c:	a1620000 	sb	v0,0(t3)
9d004d80:	02d42021 	addu	a0,s6,s4
9d004d84:	24020065 	li	v0,101
9d004d88:	17c20026 	bne	s8,v0,9d004e24 <__fmt_fp+0x82c>
9d004d8c:	a0800000 	sb	zero,0(a0)
9d004d90:	8fa20040 	lw	v0,64(sp)
9d004d94:	00002825 	move	a1,zero
9d004d98:	2442ffff 	addiu	v0,v0,-1
9d004d9c:	02c21821 	addu	v1,s6,v0
9d004da0:	06e10003 	bgez	s7,9d004db0 <__fmt_fp+0x7b8>
9d004da4:	a0600000 	sb	zero,0(v1)
9d004da8:	0017b823 	negu	s7,s7
9d004dac:	24050001 	li	a1,1
9d004db0:	8fa30040 	lw	v1,64(sp)
9d004db4:	24060003 	li	a2,3
9d004db8:	2407000a 	li	a3,10
9d004dbc:	00c33023 	subu	a2,a2,v1
9d004dc0:	16e0ff46 	bnez	s7,9d004adc <__fmt_fp+0x4e4>
9d004dc4:	2443ffff 	addiu	v1,v0,-1
9d004dc8:	00c24021 	addu	t0,a2,v0
9d004dcc:	1d00ff43 	bgtz	t0,9d004adc <__fmt_fp+0x4e4>
9d004dd0:	00000000 	nop
9d004dd4:	2407002d 	li	a3,45
9d004dd8:	2406002b 	li	a2,43
9d004ddc:	00e5300b 	movn	a2,a3,a1
9d004de0:	02c31821 	addu	v1,s6,v1
9d004de4:	a0660000 	sb	a2,0(v1)
9d004de8:	8fa300a4 	lw	v1,164(sp)
9d004dec:	24050045 	li	a1,69
9d004df0:	2442fffe 	addiu	v0,v0,-2
9d004df4:	2463ffbf 	addiu	v1,v1,-65
9d004df8:	2c63001a 	sltiu	v1,v1,26
9d004dfc:	00a3f00b 	movn	s8,a1,v1
9d004e00:	8fa30018 	lw	v1,24(sp)
9d004e04:	02c22821 	addu	a1,s6,v0
9d004e08:	0282a02a 	slt	s4,s4,v0
9d004e0c:	2463fffe 	addiu	v1,v1,-2
9d004e10:	a0be0000 	sb	s8,0(a1)
9d004e14:	12800003 	beqz	s4,9d004e24 <__fmt_fp+0x82c>
9d004e18:	afa30018 	sw	v1,24(sp)
9d004e1c:	0f403f67 	jal	9d00fd9c <strcpy>
9d004e20:	00000000 	nop
9d004e24:	8fa20020 	lw	v0,32(sp)
9d004e28:	24030002 	li	v1,2
9d004e2c:	30420003 	andi	v0,v0,0x3
9d004e30:	1443fe3e 	bne	v0,v1,9d00472c <__fmt_fp+0x134>
9d004e34:	02c02025 	move	a0,s6
9d004e38:	8fa20018 	lw	v0,24(sp)
9d004e3c:	1840fe3b 	blez	v0,9d00472c <__fmt_fp+0x134>
9d004e40:	00000000 	nop
9d004e44:	0f404054 	jal	9d010150 <strlen>
9d004e48:	02c02025 	move	a0,s6
9d004e4c:	8fa30028 	lw	v1,40(sp)
9d004e50:	0043182a 	slt	v1,v0,v1
9d004e54:	1060ff2d 	beqz	v1,9d004b0c <__fmt_fp+0x514>
9d004e58:	02c21821 	addu	v1,s6,v0
9d004e5c:	8fa60018 	lw	a2,24(sp)
9d004e60:	8fa4002c 	lw	a0,44(sp)
9d004e64:	0f403f85 	jal	9d00fe14 <memset>
9d004e68:	24050030 	li	a1,48
9d004e6c:	afa00024 	sw	zero,36(sp)
9d004e70:	1000fe2e 	b	9d00472c <__fmt_fp+0x134>
9d004e74:	02c02025 	move	a0,s6
9d004e78:	1000fe6d 	b	9d004830 <__fmt_fp+0x238>
9d004e7c:	24100006 	li	s0,6
9d004e80:	8fa30030 	lw	v1,48(sp)
9d004e84:	1062fe6a 	beq	v1,v0,9d004830 <__fmt_fp+0x238>
9d004e88:	24100006 	li	s0,6
9d004e8c:	1000ff29 	b	9d004b34 <__fmt_fp+0x53c>
9d004e90:	0060f025 	move	s8,v1

Disassembly of section .text.fma:

9d004e94 <fma>:
9d004e94:	27bdff80 	addiu	sp,sp,-128
9d004e98:	afa40080 	sw	a0,128(sp)
9d004e9c:	afa60088 	sw	a2,136(sp)
9d004ea0:	afa7008c 	sw	a3,140(sp)
9d004ea4:	00803025 	move	a2,a0
9d004ea8:	00a03825 	move	a3,a1
9d004eac:	27a40030 	addiu	a0,sp,48
9d004eb0:	afbf007c 	sw	ra,124(sp)
9d004eb4:	afa50084 	sw	a1,132(sp)
9d004eb8:	afbe0078 	sw	s8,120(sp)
9d004ebc:	afb40068 	sw	s4,104(sp)
9d004ec0:	afb30064 	sw	s3,100(sp)
9d004ec4:	afb20060 	sw	s2,96(sp)
9d004ec8:	8fb30094 	lw	s3,148(sp)
9d004ecc:	8fb20090 	lw	s2,144(sp)
9d004ed0:	afb70074 	sw	s7,116(sp)
9d004ed4:	afb60070 	sw	s6,112(sp)
9d004ed8:	afb5006c 	sw	s5,108(sp)
9d004edc:	afb1005c 	sw	s1,92(sp)
9d004ee0:	0f403822 	jal	9d00e088 <normalize>
9d004ee4:	afb00058 	sw	s0,88(sp)
9d004ee8:	8fa60088 	lw	a2,136(sp)
9d004eec:	8fa7008c 	lw	a3,140(sp)
9d004ef0:	8fbe0038 	lw	s8,56(sp)
9d004ef4:	0f403822 	jal	9d00e088 <normalize>
9d004ef8:	27a40020 	addiu	a0,sp,32
9d004efc:	02403025 	move	a2,s2
9d004f00:	02603825 	move	a3,s3
9d004f04:	27a40010 	addiu	a0,sp,16
9d004f08:	0f403822 	jal	9d00e088 <normalize>
9d004f0c:	8fb40028 	lw	s4,40(sp)
9d004f10:	2bc203cb 	slti	v0,s8,971
9d004f14:	10400003 	beqz	v0,9d004f24 <fma+0x90>
9d004f18:	2a8203cb 	slti	v0,s4,971
9d004f1c:	1440000e 	bnez	v0,9d004f58 <fma+0xc4>
9d004f20:	8fa60018 	lw	a2,24(sp)
9d004f24:	8fa60088 	lw	a2,136(sp)
9d004f28:	8fa7008c 	lw	a3,140(sp)
9d004f2c:	8fa40080 	lw	a0,128(sp)
9d004f30:	0f402611 	jal	9d009844 <__muldf3>
9d004f34:	8fa50084 	lw	a1,132(sp)
9d004f38:	00403025 	move	a2,v0
9d004f3c:	00603825 	move	a3,v1
9d004f40:	02402025 	move	a0,s2
9d004f44:	0f402210 	jal	9d008840 <__adddf3>
9d004f48:	02602825 	move	a1,s3
9d004f4c:	00409025 	move	s2,v0
9d004f50:	10000006 	b	9d004f6c <fma+0xd8>
9d004f54:	00609825 	move	s3,v1
9d004f58:	28c203cb 	slti	v0,a2,971
9d004f5c:	14400011 	bnez	v0,9d004fa4 <fma+0x110>
9d004f60:	240203cb 	li	v0,971
9d004f64:	14c2fff0 	bne	a2,v0,9d004f28 <fma+0x94>
9d004f68:	8fa60088 	lw	a2,136(sp)
9d004f6c:	8fbf007c 	lw	ra,124(sp)
9d004f70:	02401025 	move	v0,s2
9d004f74:	02601825 	move	v1,s3
9d004f78:	8fbe0078 	lw	s8,120(sp)
9d004f7c:	8fb70074 	lw	s7,116(sp)
9d004f80:	8fb60070 	lw	s6,112(sp)
9d004f84:	8fb5006c 	lw	s5,108(sp)
9d004f88:	8fb40068 	lw	s4,104(sp)
9d004f8c:	8fb30064 	lw	s3,100(sp)
9d004f90:	8fb20060 	lw	s2,96(sp)
9d004f94:	8fb1005c 	lw	s1,92(sp)
9d004f98:	8fb00058 	lw	s0,88(sp)
9d004f9c:	03e00008 	jr	ra
9d004fa0:	27bd0080 	addiu	sp,sp,128
9d004fa4:	8fa20030 	lw	v0,48(sp)
9d004fa8:	8fae0020 	lw	t6,32(sp)
9d004fac:	8fa40024 	lw	a0,36(sp)
9d004fb0:	8fa70034 	lw	a3,52(sp)
9d004fb4:	004e0019 	multu	v0,t6
9d004fb8:	029ef021 	addu	s8,s4,s8
9d004fbc:	00dea023 	subu	s4,a2,s8
9d004fc0:	8fa80010 	lw	t0,16(sp)
9d004fc4:	8fb70014 	lw	s7,20(sp)
9d004fc8:	00005012 	mflo	t2
9d004fcc:	afaa0040 	sw	t2,64(sp)
9d004fd0:	8fad0040 	lw	t5,64(sp)
9d004fd4:	00005810 	mfhi	t3
9d004fd8:	afab0044 	sw	t3,68(sp)
9d004fdc:	00440019 	multu	v0,a0
9d004fe0:	00001012 	mflo	v0
9d004fe4:	00001810 	mfhi	v1
9d004fe8:	00ee0019 	multu	a3,t6
9d004fec:	00007810 	mfhi	t7
9d004ff0:	006f5021 	addu	t2,v1,t7
9d004ff4:	00007012 	mflo	t6
9d004ff8:	004e2821 	addu	a1,v0,t6
9d004ffc:	00a2582b 	sltu	t3,a1,v0
9d005000:	00e40019 	multu	a3,a0
9d005004:	8fa20044 	lw	v0,68(sp)
9d005008:	016a5821 	addu	t3,t3,t2
9d00500c:	00a27821 	addu	t7,a1,v0
9d005010:	01e2382b 	sltu	a3,t7,v0
9d005014:	00002012 	mflo	a0
9d005018:	008b5821 	addu	t3,a0,t3
9d00501c:	0164502b 	sltu	t2,t3,a0
9d005020:	00002810 	mfhi	a1
9d005024:	01673821 	addu	a3,t3,a3
9d005028:	01455021 	addu	t2,t2,a1
9d00502c:	00eb182b 	sltu	v1,a3,t3
9d005030:	1a8000ae 	blez	s4,9d0052ec <fma+0x458>
9d005034:	006ab021 	addu	s6,v1,t2
9d005038:	2a820040 	slti	v0,s4,64
9d00503c:	5040007f 	beqzl	v0,9d00523c <fma+0x3a8>
9d005040:	2694ffc0 	addiu	s4,s4,-64
9d005044:	01002025 	move	a0,t0
9d005048:	02e02825 	move	a1,s7
9d00504c:	02803025 	move	a2,s4
9d005050:	afa70054 	sw	a3,84(sp)
9d005054:	afaf0050 	sw	t7,80(sp)
9d005058:	afad004c 	sw	t5,76(sp)
9d00505c:	0f403e69 	jal	9d00f9a4 <__ashldi3>
9d005060:	afa80048 	sw	t0,72(sp)
9d005064:	8fa80048 	lw	t0,72(sp)
9d005068:	24060040 	li	a2,64
9d00506c:	02e02825 	move	a1,s7
9d005070:	01002025 	move	a0,t0
9d005074:	00d43023 	subu	a2,a2,s4
9d005078:	00408025 	move	s0,v0
9d00507c:	0f403e5a 	jal	9d00f968 <__lshrdi3>
9d005080:	afa30040 	sw	v1,64(sp)
9d005084:	8fb90040 	lw	t9,64(sp)
9d005088:	8fad004c 	lw	t5,76(sp)
9d00508c:	8faf0050 	lw	t7,80(sp)
9d005090:	8fa70054 	lw	a3,84(sp)
9d005094:	00404025 	move	t0,v0
9d005098:	0060b825 	move	s7,v1
9d00509c:	8fa2002c 	lw	v0,44(sp)
9d0050a0:	8fb1003c 	lw	s1,60(sp)
9d0050a4:	02228826 	xor	s1,s1,v0
9d0050a8:	8fa2001c 	lw	v0,28(sp)
9d0050ac:	145100ba 	bne	v0,s1,9d005398 <fma+0x504>
9d0050b0:	01b07023 	subu	t6,t5,s0
9d0050b4:	020d7021 	addu	t6,s0,t5
9d0050b8:	01d0582b 	sltu	t3,t6,s0
9d0050bc:	032f7821 	addu	t7,t9,t7
9d0050c0:	016fa021 	addu	s4,t3,t7
9d0050c4:	0299102b 	sltu	v0,s4,t9
9d0050c8:	01c0a825 	move	s5,t6
9d0050cc:	14400007 	bnez	v0,9d0050ec <fma+0x258>
9d0050d0:	24040001 	li	a0,1
9d0050d4:	57340005 	bnel	t9,s4,9d0050ec <fma+0x258>
9d0050d8:	00002025 	move	a0,zero
9d0050dc:	01d0802b 	sltu	s0,t6,s0
9d0050e0:	16000003 	bnez	s0,9d0050f0 <fma+0x25c>
9d0050e4:	01074821 	addu	t1,t0,a3
9d0050e8:	00002025 	move	a0,zero
9d0050ec:	01074821 	addu	t1,t0,a3
9d0050f0:	0128c02b 	sltu	t8,t1,t0
9d0050f4:	02f61821 	addu	v1,s7,s6
9d0050f8:	00894821 	addu	t1,a0,t1
9d0050fc:	0303c021 	addu	t8,t8,v1
9d005100:	0124202b 	sltu	a0,t1,a0
9d005104:	0098c021 	addu	t8,a0,t8
9d005108:	01202025 	move	a0,t1
9d00510c:	03002825 	move	a1,t8
9d005110:	afa90048 	sw	t1,72(sp)
9d005114:	0f403bb7 	jal	9d00eedc <a_clz_64>
9d005118:	afb80040 	sw	t8,64(sp)
9d00511c:	2453ffff 	addiu	s3,v0,-1
9d005120:	24060040 	li	a2,64
9d005124:	00d33023 	subu	a2,a2,s3
9d005128:	02a02025 	move	a0,s5
9d00512c:	0f403e5a 	jal	9d00f968 <__lshrdi3>
9d005130:	02802825 	move	a1,s4
9d005134:	8fa90048 	lw	t1,72(sp)
9d005138:	8fb80040 	lw	t8,64(sp)
9d00513c:	02603025 	move	a2,s3
9d005140:	01202025 	move	a0,t1
9d005144:	03002825 	move	a1,t8
9d005148:	00408025 	move	s0,v0
9d00514c:	0f403e69 	jal	9d00f9a4 <__ashldi3>
9d005150:	00609025 	move	s2,v1
9d005154:	02603025 	move	a2,s3
9d005158:	02a02025 	move	a0,s5
9d00515c:	02802825 	move	a1,s4
9d005160:	02028025 	or	s0,s0,v0
9d005164:	0f403e69 	jal	9d00f9a4 <__ashldi3>
9d005168:	02439025 	or	s2,s2,v1
9d00516c:	00431025 	or	v0,v0,v1
9d005170:	0002102b 	sltu	v0,zero,v0
9d005174:	27de0040 	addiu	s8,s8,64
9d005178:	02028025 	or	s0,s0,v0
9d00517c:	03d3f023 	subu	s8,s8,s3
9d005180:	02002025 	move	a0,s0
9d005184:	12200005 	beqz	s1,9d00519c <fma+0x308>
9d005188:	02402825 	move	a1,s2
9d00518c:	00102023 	negu	a0,s0
9d005190:	0004102b 	sltu	v0,zero,a0
9d005194:	00122823 	negu	a1,s2
9d005198:	00a22823 	subu	a1,a1,v0
9d00519c:	0f402bd9 	jal	9d00af64 <__floatdidf>
9d0051a0:	00000000 	nop
9d0051a4:	0040b025 	move	s6,v0
9d0051a8:	2bc2fbc4 	slti	v0,s8,-1084
9d0051ac:	104000fb 	beqz	v0,9d00559c <fma+0x708>
9d0051b0:	0060b825 	move	s7,v1
9d0051b4:	2402fbc3 	li	v0,-1085
9d0051b8:	17c200fe 	bne	s8,v0,9d0055b4 <fma+0x720>
9d0051bc:	00102580 	sll	a0,s0,0x16
9d0051c0:	122000b8 	beqz	s1,9d0054a4 <fma+0x610>
9d0051c4:	3c029d00 	lui	v0,0x9d00
9d0051c8:	3c029d00 	lui	v0,0x9d00
9d0051cc:	8c541fd0 	lw	s4,8144(v0)
9d0051d0:	8c551fd4 	lw	s5,8148(v0)
9d0051d4:	02c03025 	move	a2,s6
9d0051d8:	02e03825 	move	a3,s7
9d0051dc:	02802025 	move	a0,s4
9d0051e0:	0f403250 	jal	9d00c940 <__eqdf2>
9d0051e4:	02a02825 	move	a1,s5
9d0051e8:	144000b1 	bnez	v0,9d0054b0 <fma+0x61c>
9d0051ec:	00101540 	sll	v0,s0,0x15
9d0051f0:	3c029d00 	lui	v0,0x9d00
9d0051f4:	8c461fd8 	lw	a2,8152(v0)
9d0051f8:	8c471fdc 	lw	a3,8156(v0)
9d0051fc:	02c02025 	move	a0,s6
9d005200:	0f402611 	jal	9d009844 <__muldf3>
9d005204:	02e02825 	move	a1,s7
9d005208:	00602825 	move	a1,v1
9d00520c:	0f4034cd 	jal	9d00d334 <__truncdfsf2>
9d005210:	00402025 	move	a0,v0
9d005214:	0f403779 	jal	9d00dde4 <__extendsfdf2>
9d005218:	00402025 	move	a0,v0
9d00521c:	3c049d00 	lui	a0,0x9d00
9d005220:	8c861fe0 	lw	a2,8160(a0)
9d005224:	8c871fe4 	lw	a3,8164(a0)
9d005228:	00602825 	move	a1,v1
9d00522c:	0f402611 	jal	9d009844 <__muldf3>
9d005230:	00402025 	move	a0,v0
9d005234:	1000ff46 	b	9d004f50 <fma+0xbc>
9d005238:	00409025 	move	s2,v0
9d00523c:	1280004d 	beqz	s4,9d005374 <fma+0x4e0>
9d005240:	24deffc0 	addiu	s8,a2,-64
9d005244:	2a820040 	slti	v0,s4,64
9d005248:	10400046 	beqz	v0,9d005364 <fma+0x4d0>
9d00524c:	afa7004c 	sw	a3,76(sp)
9d005250:	240d0040 	li	t5,64
9d005254:	8fa40040 	lw	a0,64(sp)
9d005258:	01b4a823 	subu	s5,t5,s4
9d00525c:	01e02825 	move	a1,t7
9d005260:	02a03025 	move	a2,s5
9d005264:	afa80050 	sw	t0,80(sp)
9d005268:	0f403e69 	jal	9d00f9a4 <__ashldi3>
9d00526c:	afaf0048 	sw	t7,72(sp)
9d005270:	8faf0048 	lw	t7,72(sp)
9d005274:	8fa40040 	lw	a0,64(sp)
9d005278:	02803025 	move	a2,s4
9d00527c:	01e02825 	move	a1,t7
9d005280:	0f403e5a 	jal	9d00f968 <__lshrdi3>
9d005284:	00438825 	or	s1,v0,v1
9d005288:	8fa7004c 	lw	a3,76(sp)
9d00528c:	02c02825 	move	a1,s6
9d005290:	02a03025 	move	a2,s5
9d005294:	00e02025 	move	a0,a3
9d005298:	0011882b 	sltu	s1,zero,s1
9d00529c:	00608025 	move	s0,v1
9d0052a0:	0f403e69 	jal	9d00f9a4 <__ashldi3>
9d0052a4:	02228825 	or	s1,s1,v0
9d0052a8:	8fa7004c 	lw	a3,76(sp)
9d0052ac:	02037825 	or	t7,s0,v1
9d0052b0:	02226825 	or	t5,s1,v0
9d0052b4:	00e02025 	move	a0,a3
9d0052b8:	02c02825 	move	a1,s6
9d0052bc:	02803025 	move	a2,s4
9d0052c0:	afad0048 	sw	t5,72(sp)
9d0052c4:	0f403e5a 	jal	9d00f968 <__lshrdi3>
9d0052c8:	afaf0040 	sw	t7,64(sp)
9d0052cc:	00403825 	move	a3,v0
9d0052d0:	0060b025 	move	s6,v1
9d0052d4:	00008025 	move	s0,zero
9d0052d8:	0000c825 	move	t9,zero
9d0052dc:	8faf0040 	lw	t7,64(sp)
9d0052e0:	8fad0048 	lw	t5,72(sp)
9d0052e4:	1000ff6d 	b	9d00509c <fma+0x208>
9d0052e8:	8fa80050 	lw	t0,80(sp)
9d0052ec:	03c68823 	subu	s1,s8,a2
9d0052f0:	12200023 	beqz	s1,9d005380 <fma+0x4ec>
9d0052f4:	01008025 	move	s0,t0
9d0052f8:	2a220040 	slti	v0,s1,64
9d0052fc:	50400024 	beqzl	v0,9d005390 <fma+0x4fc>
9d005300:	24100001 	li	s0,1
9d005304:	24060040 	li	a2,64
9d005308:	01002025 	move	a0,t0
9d00530c:	02e02825 	move	a1,s7
9d005310:	00d13023 	subu	a2,a2,s1
9d005314:	afa70050 	sw	a3,80(sp)
9d005318:	afaf004c 	sw	t7,76(sp)
9d00531c:	afad0048 	sw	t5,72(sp)
9d005320:	0f403e69 	jal	9d00f9a4 <__ashldi3>
9d005324:	afa80040 	sw	t0,64(sp)
9d005328:	8fa80040 	lw	t0,64(sp)
9d00532c:	00438025 	or	s0,v0,v1
9d005330:	02e02825 	move	a1,s7
9d005334:	01002025 	move	a0,t0
9d005338:	0f403e5a 	jal	9d00f968 <__lshrdi3>
9d00533c:	02203025 	move	a2,s1
9d005340:	0010802b 	sltu	s0,zero,s0
9d005344:	02028025 	or	s0,s0,v0
9d005348:	0060c825 	move	t9,v1
9d00534c:	00004025 	move	t0,zero
9d005350:	0000b825 	move	s7,zero
9d005354:	8fad0048 	lw	t5,72(sp)
9d005358:	8faf004c 	lw	t7,76(sp)
9d00535c:	1000ff4f 	b	9d00509c <fma+0x208>
9d005360:	8fa70050 	lw	a3,80(sp)
9d005364:	240d0001 	li	t5,1
9d005368:	00007825 	move	t7,zero
9d00536c:	00003825 	move	a3,zero
9d005370:	0000b025 	move	s6,zero
9d005374:	00008025 	move	s0,zero
9d005378:	1000ff48 	b	9d00509c <fma+0x208>
9d00537c:	0000c825 	move	t9,zero
9d005380:	02e0c825 	move	t9,s7
9d005384:	00004025 	move	t0,zero
9d005388:	1000ff44 	b	9d00509c <fma+0x208>
9d00538c:	0000b825 	move	s7,zero
9d005390:	1000fffc 	b	9d005384 <fma+0x4f0>
9d005394:	0000c825 	move	t9,zero
9d005398:	01ae182b 	sltu	v1,t5,t6
9d00539c:	01f95823 	subu	t3,t7,t9
9d0053a0:	0163a023 	subu	s4,t3,v1
9d0053a4:	01f4102b 	sltu	v0,t7,s4
9d0053a8:	01c0a825 	move	s5,t6
9d0053ac:	24060001 	li	a2,1
9d0053b0:	14400007 	bnez	v0,9d0053d0 <fma+0x53c>
9d0053b4:	00002025 	move	a0,zero
9d0053b8:	568f0005 	bnel	s4,t7,9d0053d0 <fma+0x53c>
9d0053bc:	00003025 	move	a2,zero
9d0053c0:	14600004 	bnez	v1,9d0053d4 <fma+0x540>
9d0053c4:	00e81823 	subu	v1,a3,t0
9d0053c8:	00003025 	move	a2,zero
9d0053cc:	00002025 	move	a0,zero
9d0053d0:	00e81823 	subu	v1,a3,t0
9d0053d4:	00e3102b 	sltu	v0,a3,v1
9d0053d8:	02d7c023 	subu	t8,s6,s7
9d0053dc:	0302c023 	subu	t8,t8,v0
9d0053e0:	00664823 	subu	t1,v1,a2
9d0053e4:	0069182b 	sltu	v1,v1,t1
9d0053e8:	0304c023 	subu	t8,t8,a0
9d0053ec:	0303c023 	subu	t8,t8,v1
9d0053f0:	07010015 	bgez	t8,9d005448 <fma+0x5b4>
9d0053f4:	01381025 	or	v0,t1,t8
9d0053f8:	020d7023 	subu	t6,s0,t5
9d0053fc:	020e802b 	sltu	s0,s0,t6
9d005400:	032f5823 	subu	t3,t9,t7
9d005404:	01073823 	subu	a3,t0,a3
9d005408:	0170a023 	subu	s4,t3,s0
9d00540c:	0107102b 	sltu	v0,t0,a3
9d005410:	02f61823 	subu	v1,s7,s6
9d005414:	01d44825 	or	t1,t6,s4
9d005418:	00e63021 	addu	a2,a3,a2
9d00541c:	00621823 	subu	v1,v1,v0
9d005420:	0009482b 	sltu	t1,zero,t1
9d005424:	00c7382b 	sltu	a3,a2,a3
9d005428:	00641021 	addu	v0,v1,a0
9d00542c:	00c94823 	subu	t1,a2,t1
9d005430:	00e21021 	addu	v0,a3,v0
9d005434:	00c9302b 	sltu	a2,a2,t1
9d005438:	01c0a825 	move	s5,t6
9d00543c:	0046c023 	subu	t8,v0,a2
9d005440:	2e310001 	sltiu	s1,s1,1
9d005444:	01381025 	or	v0,t1,t8
9d005448:	1440ff30 	bnez	v0,9d00510c <fma+0x278>
9d00544c:	01202025 	move	a0,t1
9d005450:	02b41025 	or	v0,s5,s4
9d005454:	1040feb3 	beqz	v0,9d004f24 <fma+0x90>
9d005458:	02a02025 	move	a0,s5
9d00545c:	0f403bb7 	jal	9d00eedc <a_clz_64>
9d005460:	02802825 	move	a1,s4
9d005464:	2453ffff 	addiu	s3,v0,-1
9d005468:	06610008 	bgez	s3,9d00548c <fma+0x5f8>
9d00546c:	02603025 	move	a2,s3
9d005470:	001417c0 	sll	v0,s4,0x1f
9d005474:	00158042 	srl	s0,s5,0x1
9d005478:	00508025 	or	s0,v0,s0
9d00547c:	32ae0001 	andi	t6,s5,0x1
9d005480:	020e8025 	or	s0,s0,t6
9d005484:	1000ff3d 	b	9d00517c <fma+0x2e8>
9d005488:	00149042 	srl	s2,s4,0x1
9d00548c:	02a02025 	move	a0,s5
9d005490:	0f403e69 	jal	9d00f9a4 <__ashldi3>
9d005494:	02802825 	move	a1,s4
9d005498:	00408025 	move	s0,v0
9d00549c:	1000ff37 	b	9d00517c <fma+0x2e8>
9d0054a0:	00609025 	move	s2,v1
9d0054a4:	8c541fc8 	lw	s4,8136(v0)
9d0054a8:	1000ff4a 	b	9d0051d4 <fma+0x340>
9d0054ac:	8c551fcc 	lw	s5,8140(v0)
9d0054b0:	1040003b 	beqz	v0,9d0055a0 <fma+0x70c>
9d0054b4:	03c03025 	move	a2,s8
9d0054b8:	001217c0 	sll	v0,s2,0x1f
9d0054bc:	00102042 	srl	a0,s0,0x1
9d0054c0:	00442025 	or	a0,v0,a0
9d0054c4:	00122842 	srl	a1,s2,0x1
9d0054c8:	32100001 	andi	s0,s0,0x1
9d0054cc:	3c024000 	lui	v0,0x4000
9d0054d0:	00902025 	or	a0,a0,s0
9d0054d4:	12200005 	beqz	s1,9d0054ec <fma+0x658>
9d0054d8:	00452825 	or	a1,v0,a1
9d0054dc:	00042023 	negu	a0,a0
9d0054e0:	0004102b 	sltu	v0,zero,a0
9d0054e4:	00052823 	negu	a1,a1
9d0054e8:	00a22823 	subu	a1,a1,v0
9d0054ec:	0f402bd9 	jal	9d00af64 <__floatdidf>
9d0054f0:	00000000 	nop
9d0054f4:	00403025 	move	a2,v0
9d0054f8:	00603825 	move	a3,v1
9d0054fc:	00402025 	move	a0,v0
9d005500:	0f402210 	jal	9d008840 <__adddf3>
9d005504:	00602825 	move	a1,v1
9d005508:	00402025 	move	a0,v0
9d00550c:	02803025 	move	a2,s4
9d005510:	02a03825 	move	a3,s5
9d005514:	0f40220e 	jal	9d008838 <__subdf3>
9d005518:	00602825 	move	a1,v1
9d00551c:	00408025 	move	s0,v0
9d005520:	3c029d00 	lui	v0,0x9d00
9d005524:	8c461fe0 	lw	a2,8160(v0)
9d005528:	8c471fe4 	lw	a3,8164(v0)
9d00552c:	02002025 	move	a0,s0
9d005530:	00602825 	move	a1,v1
9d005534:	0f402611 	jal	9d009844 <__muldf3>
9d005538:	00608825 	move	s1,v1
9d00553c:	00403025 	move	a2,v0
9d005540:	00603825 	move	a3,v1
9d005544:	00402025 	move	a0,v0
9d005548:	0f402611 	jal	9d009844 <__muldf3>
9d00554c:	00602825 	move	a1,v1
9d005550:	02003025 	move	a2,s0
9d005554:	02203825 	move	a3,s1
9d005558:	02002025 	move	a0,s0
9d00555c:	02202825 	move	a1,s1
9d005560:	00409025 	move	s2,v0
9d005564:	0f40220e 	jal	9d008838 <__subdf3>
9d005568:	00609825 	move	s3,v1
9d00556c:	00403025 	move	a2,v0
9d005570:	00603825 	move	a3,v1
9d005574:	02402025 	move	a0,s2
9d005578:	0f402611 	jal	9d009844 <__muldf3>
9d00557c:	02602825 	move	a1,s3
9d005580:	00402025 	move	a0,v0
9d005584:	02003025 	move	a2,s0
9d005588:	02203825 	move	a3,s1
9d00558c:	0f402210 	jal	9d008840 <__adddf3>
9d005590:	00602825 	move	a1,v1
9d005594:	0040b025 	move	s6,v0
9d005598:	0060b825 	move	s7,v1
9d00559c:	03c03025 	move	a2,s8
9d0055a0:	02c02025 	move	a0,s6
9d0055a4:	0f40354c 	jal	9d00d530 <scalbn>
9d0055a8:	02e02825 	move	a1,s7
9d0055ac:	1000fe68 	b	9d004f50 <fma+0xbc>
9d0055b0:	00409025 	move	s2,v0
9d0055b4:	00121580 	sll	v0,s2,0x16
9d0055b8:	00108282 	srl	s0,s0,0xa
9d0055bc:	00508025 	or	s0,v0,s0
9d0055c0:	0004202b 	sltu	a0,zero,a0
9d0055c4:	00902025 	or	a0,a0,s0
9d0055c8:	02402825 	move	a1,s2
9d0055cc:	00041582 	srl	v0,a0,0x16
9d0055d0:	7c054804 	ins	a1,zero,0x0,0xa
9d0055d4:	00452825 	or	a1,v0,a1
9d0055d8:	12200005 	beqz	s1,9d0055f0 <fma+0x75c>
9d0055dc:	00042280 	sll	a0,a0,0xa
9d0055e0:	00042023 	negu	a0,a0
9d0055e4:	0004102b 	sltu	v0,zero,a0
9d0055e8:	00052823 	negu	a1,a1
9d0055ec:	00a22823 	subu	a1,a1,v0
9d0055f0:	0f402bd9 	jal	9d00af64 <__floatdidf>
9d0055f4:	00000000 	nop
9d0055f8:	1000ffe7 	b	9d005598 <fma+0x704>
9d0055fc:	0040b025 	move	s6,v0

Disassembly of section .text.__scanf_core:

9d005600 <__scanf_core>:
9d005600:	27bdfe20 	addiu	sp,sp,-480
9d005604:	afb701d4 	sw	s7,468(sp)
9d005608:	afb601d0 	sw	s6,464(sp)
9d00560c:	afb501cc 	sw	s5,460(sp)
9d005610:	afb201c0 	sw	s2,448(sp)
9d005614:	afb001b8 	sw	s0,440(sp)
9d005618:	afbf01dc 	sw	ra,476(sp)
9d00561c:	afbe01d8 	sw	s8,472(sp)
9d005620:	afb401c8 	sw	s4,456(sp)
9d005624:	afb301c4 	sw	s3,452(sp)
9d005628:	afb101bc 	sw	s1,444(sp)
9d00562c:	00808025 	move	s0,a0
9d005630:	00c09025 	move	s2,a2
9d005634:	afa501b4 	sw	a1,436(sp)
9d005638:	afa001b0 	sw	zero,432(sp)
9d00563c:	0000a825 	move	s5,zero
9d005640:	27b7011c 	addiu	s7,sp,284
9d005644:	24160025 	li	s6,37
9d005648:	8fa201b4 	lw	v0,436(sp)
9d00564c:	80420000 	lb	v0,0(v0)
9d005650:	1040005d 	beqz	v0,9d0057c8 <__scanf_core+0x1c8>
9d005654:	24020080 	li	v0,128
9d005658:	27a501b4 	addiu	a1,sp,436
9d00565c:	02002025 	move	a0,s0
9d005660:	afa0019c 	sw	zero,412(sp)
9d005664:	afa001a0 	sw	zero,416(sp)
9d005668:	afa001a4 	sw	zero,420(sp)
9d00566c:	afb701a8 	sw	s7,424(sp)
9d005670:	0f403b0c 	jal	9d00ec30 <__consumews>
9d005674:	afa201ac 	sw	v0,428(sp)
9d005678:	00408825 	move	s1,v0
9d00567c:	2414ffff 	li	s4,-1
9d005680:	8fa301b4 	lw	v1,436(sp)
9d005684:	80620000 	lb	v0,0(v1)
9d005688:	50400004 	beqzl	v0,9d00569c <__scanf_core+0x9c>
9d00568c:	8fa201b0 	lw	v0,432(sp)
9d005690:	5456003d 	bnel	v0,s6,9d005788 <__scanf_core+0x188>
9d005694:	8e02003c 	lw	v0,60(s0)
9d005698:	8fa201b0 	lw	v0,432(sp)
9d00569c:	00511021 	addu	v0,v0,s1
9d0056a0:	afa201b0 	sw	v0,432(sp)
9d0056a4:	80620000 	lb	v0,0(v1)
9d0056a8:	14560031 	bne	v0,s6,9d005770 <__scanf_core+0x170>
9d0056ac:	2402ffff 	li	v0,-1
9d0056b0:	24620001 	addiu	v0,v1,1
9d0056b4:	afa201b4 	sw	v0,436(sp)
9d0056b8:	afa001a4 	sw	zero,420(sp)
9d0056bc:	80640001 	lb	a0,1(v1)
9d0056c0:	2402002a 	li	v0,42
9d0056c4:	14820004 	bne	a0,v0,9d0056d8 <__scanf_core+0xd8>
9d0056c8:	00008825 	move	s1,zero
9d0056cc:	24630002 	addiu	v1,v1,2
9d0056d0:	afa301b4 	sw	v1,436(sp)
9d0056d4:	24110001 	li	s1,1
9d0056d8:	0f403a4f 	jal	9d00e93c <atoi>
9d0056dc:	8fa401b4 	lw	a0,436(sp)
9d0056e0:	00403025 	move	a2,v0
9d0056e4:	00023fc3 	sra	a3,v0,0x1f
9d0056e8:	02002025 	move	a0,s0
9d0056ec:	0f403d3c 	jal	9d00f4f0 <__shlim>
9d0056f0:	afa201a4 	sw	v0,420(sp)
9d0056f4:	8fa301b4 	lw	v1,436(sp)
9d0056f8:	80620000 	lb	v0,0(v1)
9d0056fc:	2442ffd0 	addiu	v0,v0,-48
9d005700:	2c42000a 	sltiu	v0,v0,10
9d005704:	1440004c 	bnez	v0,9d005838 <__scanf_core+0x238>
9d005708:	24630001 	addiu	v1,v1,1
9d00570c:	0f403c66 	jal	9d00f198 <__fmt_state>
9d005710:	27a401b4 	addiu	a0,sp,436
9d005714:	0040a025 	move	s4,v0
9d005718:	8fa201b4 	lw	v0,436(sp)
9d00571c:	0f403fda 	jal	9d00ff68 <tolower>
9d005720:	80440000 	lb	a0,0(v0)
9d005724:	28430068 	slti	v1,v0,104
9d005728:	1060005f 	beqz	v1,9d0058a8 <__scanf_core+0x2a8>
9d00572c:	24030070 	li	v1,112
9d005730:	28430065 	slti	v1,v0,101
9d005734:	106000bc 	beqz	v1,9d005a28 <__scanf_core+0x428>
9d005738:	24030061 	li	v1,97
9d00573c:	104300ba 	beq	v0,v1,9d005a28 <__scanf_core+0x428>
9d005740:	28430062 	slti	v1,v0,98
9d005744:	5060003e 	beqzl	v1,9d005840 <__scanf_core+0x240>
9d005748:	24030063 	li	v1,99
9d00574c:	105600e0 	beq	v0,s6,9d005ad0 <__scanf_core+0x4d0>
9d005750:	8fa301b4 	lw	v1,436(sp)
9d005754:	2404005b 	li	a0,91
9d005758:	104400fa 	beq	v0,a0,9d005b44 <__scanf_core+0x544>
9d00575c:	24020080 	li	v0,128
9d005760:	8fa201b4 	lw	v0,436(sp)
9d005764:	24420001 	addiu	v0,v0,1
9d005768:	afa201b4 	sw	v0,436(sp)
9d00576c:	2402ffff 	li	v0,-1
9d005770:	166200ab 	bne	s3,v0,9d005a20 <__scanf_core+0x420>
9d005774:	00008825 	move	s1,zero
9d005778:	52a00013 	beqzl	s5,9d0057c8 <__scanf_core+0x1c8>
9d00577c:	2415ffff 	li	s5,-1
9d005780:	10000012 	b	9d0057cc <__scanf_core+0x1cc>
9d005784:	8fbf01dc 	lw	ra,476(sp)
9d005788:	8e03004c 	lw	v1,76(s0)
9d00578c:	0043182b 	sltu	v1,v0,v1
9d005790:	1060001a 	beqz	v1,9d0057fc <__scanf_core+0x1fc>
9d005794:	24430001 	addiu	v1,v0,1
9d005798:	ae03003c 	sw	v1,60(s0)
9d00579c:	90530000 	lbu	s3,0(v0)
9d0057a0:	8fa201b4 	lw	v0,436(sp)
9d0057a4:	80420000 	lb	v0,0(v0)
9d0057a8:	10530019 	beq	v0,s3,9d005810 <__scanf_core+0x210>
9d0057ac:	8fa201b0 	lw	v0,432(sp)
9d0057b0:	8e02004c 	lw	v0,76(s0)
9d0057b4:	10400005 	beqz	v0,9d0057cc <__scanf_core+0x1cc>
9d0057b8:	8fbf01dc 	lw	ra,476(sp)
9d0057bc:	8e02003c 	lw	v0,60(s0)
9d0057c0:	2442ffff 	addiu	v0,v0,-1
9d0057c4:	ae02003c 	sw	v0,60(s0)
9d0057c8:	8fbf01dc 	lw	ra,476(sp)
9d0057cc:	02a01025 	move	v0,s5
9d0057d0:	8fbe01d8 	lw	s8,472(sp)
9d0057d4:	8fb701d4 	lw	s7,468(sp)
9d0057d8:	8fb601d0 	lw	s6,464(sp)
9d0057dc:	8fb501cc 	lw	s5,460(sp)
9d0057e0:	8fb401c8 	lw	s4,456(sp)
9d0057e4:	8fb301c4 	lw	s3,452(sp)
9d0057e8:	8fb201c0 	lw	s2,448(sp)
9d0057ec:	8fb101bc 	lw	s1,444(sp)
9d0057f0:	8fb001b8 	lw	s0,440(sp)
9d0057f4:	03e00008 	jr	ra
9d0057f8:	27bd01e0 	addiu	sp,sp,480
9d0057fc:	0f403330 	jal	9d00ccc0 <__shgetc>
9d005800:	02002025 	move	a0,s0
9d005804:	1454ffe6 	bne	v0,s4,9d0057a0 <__scanf_core+0x1a0>
9d005808:	00409825 	move	s3,v0
9d00580c:	8fa201b0 	lw	v0,432(sp)
9d005810:	27a501b4 	addiu	a1,sp,436
9d005814:	02002025 	move	a0,s0
9d005818:	24420001 	addiu	v0,v0,1
9d00581c:	afa201b0 	sw	v0,432(sp)
9d005820:	8fa201b4 	lw	v0,436(sp)
9d005824:	24420001 	addiu	v0,v0,1
9d005828:	0f403b0c 	jal	9d00ec30 <__consumews>
9d00582c:	afa201b4 	sw	v0,436(sp)
9d005830:	1000ff93 	b	9d005680 <__scanf_core+0x80>
9d005834:	02228821 	addu	s1,s1,v0
9d005838:	1000ffae 	b	9d0056f4 <__scanf_core+0xf4>
9d00583c:	afa301b4 	sw	v1,436(sp)
9d005840:	1043008a 	beq	v0,v1,9d005a6c <__scanf_core+0x46c>
9d005844:	24030064 	li	v1,100
9d005848:	1443ffc5 	bne	v0,v1,9d005760 <__scanf_core+0x160>
9d00584c:	27a701b0 	addiu	a3,sp,432
9d005850:	27a6019c 	addiu	a2,sp,412
9d005854:	27a50018 	addiu	a1,sp,24
9d005858:	0f403b63 	jal	9d00ed8c <__scan_d>
9d00585c:	02002025 	move	a0,s0
9d005860:	0442000c 	bltzl	v0,9d005894 <__scanf_core+0x294>
9d005864:	00408825 	move	s1,v0
9d005868:	8fa201b4 	lw	v0,436(sp)
9d00586c:	24420001 	addiu	v0,v0,1
9d005870:	162000a8 	bnez	s1,9d005b14 <__scanf_core+0x514>
9d005874:	afa201b4 	sw	v0,436(sp)
9d005878:	02403825 	move	a3,s2
9d00587c:	24060001 	li	a2,1
9d005880:	02802825 	move	a1,s4
9d005884:	0f402f43 	jal	9d00bd0c <__push_int>
9d005888:	27a40018 	addiu	a0,sp,24
9d00588c:	04410064 	bgez	v0,9d005a20 <__scanf_core+0x420>
9d005890:	00408825 	move	s1,v0
9d005894:	2402ffff 	li	v0,-1
9d005898:	1222ffb7 	beq	s1,v0,9d005778 <__scanf_core+0x178>
9d00589c:	8fbf01dc 	lw	ra,476(sp)
9d0058a0:	1000ffcb 	b	9d0057d0 <__scanf_core+0x1d0>
9d0058a4:	02a01025 	move	v0,s5
9d0058a8:	10430041 	beq	v0,v1,9d0059b0 <__scanf_core+0x3b0>
9d0058ac:	28430071 	slti	v1,v0,113
9d0058b0:	1060000e 	beqz	v1,9d0058ec <__scanf_core+0x2ec>
9d0058b4:	24030075 	li	v1,117
9d0058b8:	2403006e 	li	v1,110
9d0058bc:	1043004b 	beq	v0,v1,9d0059ec <__scanf_core+0x3ec>
9d0058c0:	2843006f 	slti	v1,v0,111
9d0058c4:	1060002c 	beqz	v1,9d005978 <__scanf_core+0x378>
9d0058c8:	24030069 	li	v1,105
9d0058cc:	1443ffa4 	bne	v0,v1,9d005760 <__scanf_core+0x160>
9d0058d0:	27a701b0 	addiu	a3,sp,432
9d0058d4:	27a6019c 	addiu	a2,sp,412
9d0058d8:	27a50018 	addiu	a1,sp,24
9d0058dc:	0f4026dc 	jal	9d009b70 <__scan_i>
9d0058e0:	02002025 	move	a0,s0
9d0058e4:	1000ffde 	b	9d005860 <__scanf_core+0x260>
9d0058e8:	00000000 	nop
9d0058ec:	10430014 	beq	v0,v1,9d005940 <__scanf_core+0x340>
9d0058f0:	24030078 	li	v1,120
9d0058f4:	10430027 	beq	v0,v1,9d005994 <__scanf_core+0x394>
9d0058f8:	24030073 	li	v1,115
9d0058fc:	1443ff99 	bne	v0,v1,9d005764 <__scanf_core+0x164>
9d005900:	8fa201b4 	lw	v0,436(sp)
9d005904:	24020080 	li	v0,128
9d005908:	1682ff96 	bne	s4,v0,9d005764 <__scanf_core+0x164>
9d00590c:	8fa201b4 	lw	v0,436(sp)
9d005910:	24420001 	addiu	v0,v0,1
9d005914:	afa201b4 	sw	v0,436(sp)
9d005918:	16200005 	bnez	s1,9d005930 <__scanf_core+0x330>
9d00591c:	00001025 	move	v0,zero
9d005920:	8e420000 	lw	v0,0(s2)
9d005924:	24430004 	addiu	v1,v0,4
9d005928:	ae430000 	sw	v1,0(s2)
9d00592c:	8c420000 	lw	v0,0(v0)
9d005930:	afa20010 	sw	v0,16(sp)
9d005934:	27a701b0 	addiu	a3,sp,432
9d005938:	10000060 	b	9d005abc <__scanf_core+0x4bc>
9d00593c:	24060001 	li	a2,1
9d005940:	27a701b0 	addiu	a3,sp,432
9d005944:	27a6019c 	addiu	a2,sp,412
9d005948:	27a50018 	addiu	a1,sp,24
9d00594c:	0f403b7f 	jal	9d00edfc <__scan_u>
9d005950:	02002025 	move	a0,s0
9d005954:	0442ffcf 	bltzl	v0,9d005894 <__scanf_core+0x294>
9d005958:	00408825 	move	s1,v0
9d00595c:	8fa201b4 	lw	v0,436(sp)
9d005960:	24420001 	addiu	v0,v0,1
9d005964:	1620006b 	bnez	s1,9d005b14 <__scanf_core+0x514>
9d005968:	afa201b4 	sw	v0,436(sp)
9d00596c:	02403825 	move	a3,s2
9d005970:	1000ffc3 	b	9d005880 <__scanf_core+0x280>
9d005974:	00003025 	move	a2,zero
9d005978:	27a701b0 	addiu	a3,sp,432
9d00597c:	27a6019c 	addiu	a2,sp,412
9d005980:	27a50018 	addiu	a1,sp,24
9d005984:	0f403101 	jal	9d00c404 <__scan_o>
9d005988:	02002025 	move	a0,s0
9d00598c:	1000fff1 	b	9d005954 <__scanf_core+0x354>
9d005990:	00000000 	nop
9d005994:	27a701b0 	addiu	a3,sp,432
9d005998:	27a6019c 	addiu	a2,sp,412
9d00599c:	27a50018 	addiu	a1,sp,24
9d0059a0:	0f402c5a 	jal	9d00b168 <__scan_x>
9d0059a4:	02002025 	move	a0,s0
9d0059a8:	1000ffea 	b	9d005954 <__scanf_core+0x354>
9d0059ac:	00000000 	nop
9d0059b0:	27a701b0 	addiu	a3,sp,432
9d0059b4:	27a6019c 	addiu	a2,sp,412
9d0059b8:	27a50018 	addiu	a1,sp,24
9d0059bc:	0f402c5a 	jal	9d00b168 <__scan_x>
9d0059c0:	02002025 	move	a0,s0
9d0059c4:	0442ffb3 	bltzl	v0,9d005894 <__scanf_core+0x294>
9d0059c8:	00408825 	move	s1,v0
9d0059cc:	8fa201b4 	lw	v0,436(sp)
9d0059d0:	24420001 	addiu	v0,v0,1
9d0059d4:	1620004f 	bnez	s1,9d005b14 <__scanf_core+0x514>
9d0059d8:	afa201b4 	sw	v0,436(sp)
9d0059dc:	02403825 	move	a3,s2
9d0059e0:	00003025 	move	a2,zero
9d0059e4:	1000ffa7 	b	9d005884 <__scanf_core+0x284>
9d0059e8:	240500f0 	li	a1,240
9d0059ec:	8fa201b4 	lw	v0,436(sp)
9d0059f0:	24420001 	addiu	v0,v0,1
9d0059f4:	afa201b4 	sw	v0,436(sp)
9d0059f8:	8fa201b0 	lw	v0,432(sp)
9d0059fc:	afa20018 	sw	v0,24(sp)
9d005a00:	000217c3 	sra	v0,v0,0x1f
9d005a04:	16200043 	bnez	s1,9d005b14 <__scanf_core+0x514>
9d005a08:	afa2001c 	sw	v0,28(sp)
9d005a0c:	02403825 	move	a3,s2
9d005a10:	00003025 	move	a2,zero
9d005a14:	02802825 	move	a1,s4
9d005a18:	0f402f43 	jal	9d00bd0c <__push_int>
9d005a1c:	27a40018 	addiu	a0,sp,24
9d005a20:	1000ff09 	b	9d005648 <__scanf_core+0x48>
9d005a24:	02b1a821 	addu	s5,s5,s1
9d005a28:	27a701b0 	addiu	a3,sp,432
9d005a2c:	27a6019c 	addiu	a2,sp,412
9d005a30:	27a50018 	addiu	a1,sp,24
9d005a34:	0f40231a 	jal	9d008c68 <__scan_fp>
9d005a38:	02002025 	move	a0,s0
9d005a3c:	0442ff95 	bltzl	v0,9d005894 <__scanf_core+0x294>
9d005a40:	00408825 	move	s1,v0
9d005a44:	8fa201b4 	lw	v0,436(sp)
9d005a48:	24420001 	addiu	v0,v0,1
9d005a4c:	16200031 	bnez	s1,9d005b14 <__scanf_core+0x514>
9d005a50:	afa201b4 	sw	v0,436(sp)
9d005a54:	02403025 	move	a2,s2
9d005a58:	02802825 	move	a1,s4
9d005a5c:	0f4037f8 	jal	9d00dfe0 <__push_float>
9d005a60:	27a40018 	addiu	a0,sp,24
9d005a64:	1000ff89 	b	9d00588c <__scanf_core+0x28c>
9d005a68:	00000000 	nop
9d005a6c:	24020080 	li	v0,128
9d005a70:	1682ff3c 	bne	s4,v0,9d005764 <__scanf_core+0x164>
9d005a74:	8fa201b4 	lw	v0,436(sp)
9d005a78:	8fa201a4 	lw	v0,420(sp)
9d005a7c:	54400004 	bnezl	v0,9d005a90 <__scanf_core+0x490>
9d005a80:	8fa201b4 	lw	v0,436(sp)
9d005a84:	24020001 	li	v0,1
9d005a88:	afa201a4 	sw	v0,420(sp)
9d005a8c:	8fa201b4 	lw	v0,436(sp)
9d005a90:	24420001 	addiu	v0,v0,1
9d005a94:	afa201b4 	sw	v0,436(sp)
9d005a98:	16200005 	bnez	s1,9d005ab0 <__scanf_core+0x4b0>
9d005a9c:	00001025 	move	v0,zero
9d005aa0:	8e420000 	lw	v0,0(s2)
9d005aa4:	24430004 	addiu	v1,v0,4
9d005aa8:	ae430000 	sw	v1,0(s2)
9d005aac:	8c420000 	lw	v0,0(v0)
9d005ab0:	afa20010 	sw	v0,16(sp)
9d005ab4:	27a701b0 	addiu	a3,sp,432
9d005ab8:	00003025 	move	a2,zero
9d005abc:	27a5019c 	addiu	a1,sp,412
9d005ac0:	0f403054 	jal	9d00c150 <__scan_s>
9d005ac4:	02002025 	move	a0,s0
9d005ac8:	1000ff70 	b	9d00588c <__scanf_core+0x28c>
9d005acc:	00000000 	nop
9d005ad0:	24020080 	li	v0,128
9d005ad4:	1682ff23 	bne	s4,v0,9d005764 <__scanf_core+0x164>
9d005ad8:	8fa201b4 	lw	v0,436(sp)
9d005adc:	24630001 	addiu	v1,v1,1
9d005ae0:	afa301b4 	sw	v1,436(sp)
9d005ae4:	8e02003c 	lw	v0,60(s0)
9d005ae8:	8e03004c 	lw	v1,76(s0)
9d005aec:	0043182b 	sltu	v1,v0,v1
9d005af0:	1060000a 	beqz	v1,9d005b1c <__scanf_core+0x51c>
9d005af4:	24430001 	addiu	v1,v0,1
9d005af8:	ae03003c 	sw	v1,60(s0)
9d005afc:	90420000 	lbu	v0,0(v0)
9d005b00:	5456000a 	bnel	v0,s6,9d005b2c <__scanf_core+0x52c>
9d005b04:	8e02004c 	lw	v0,76(s0)
9d005b08:	8fa201b0 	lw	v0,432(sp)
9d005b0c:	24420001 	addiu	v0,v0,1
9d005b10:	afa201b0 	sw	v0,432(sp)
9d005b14:	1000ffc2 	b	9d005a20 <__scanf_core+0x420>
9d005b18:	00008825 	move	s1,zero
9d005b1c:	0f403330 	jal	9d00ccc0 <__shgetc>
9d005b20:	02002025 	move	a0,s0
9d005b24:	1000fff6 	b	9d005b00 <__scanf_core+0x500>
9d005b28:	00000000 	nop
9d005b2c:	5040ffbc 	beqzl	v0,9d005a20 <__scanf_core+0x420>
9d005b30:	00008825 	move	s1,zero
9d005b34:	8e02003c 	lw	v0,60(s0)
9d005b38:	2442ffff 	addiu	v0,v0,-1
9d005b3c:	1000fff5 	b	9d005b14 <__scanf_core+0x514>
9d005b40:	ae02003c 	sw	v0,60(s0)
9d005b44:	1682ff07 	bne	s4,v0,9d005764 <__scanf_core+0x164>
9d005b48:	8fa201b4 	lw	v0,436(sp)
9d005b4c:	16200005 	bnez	s1,9d005b64 <__scanf_core+0x564>
9d005b50:	0000a025 	move	s4,zero
9d005b54:	8e420000 	lw	v0,0(s2)
9d005b58:	24440004 	addiu	a0,v0,4
9d005b5c:	ae440000 	sw	a0,0(s2)
9d005b60:	8c540000 	lw	s4,0(v0)
9d005b64:	24620001 	addiu	v0,v1,1
9d005b68:	afa201b4 	sw	v0,436(sp)
9d005b6c:	80640001 	lb	a0,1(v1)
9d005b70:	2402005e 	li	v0,94
9d005b74:	14820004 	bne	a0,v0,9d005b88 <__scanf_core+0x588>
9d005b78:	00008825 	move	s1,zero
9d005b7c:	24630002 	addiu	v1,v1,2
9d005b80:	afa301b4 	sw	v1,436(sp)
9d005b84:	24110001 	li	s1,1
9d005b88:	27a40018 	addiu	a0,sp,24
9d005b8c:	24060101 	li	a2,257
9d005b90:	0f403f85 	jal	9d00fe14 <memset>
9d005b94:	02202825 	move	a1,s1
9d005b98:	8fa201b4 	lw	v0,436(sp)
9d005b9c:	a3a00018 	sb	zero,24(sp)
9d005ba0:	2404002d 	li	a0,45
9d005ba4:	80430000 	lb	v1,0(v0)
9d005ba8:	1464001f 	bne	v1,a0,9d005c28 <__scanf_core+0x628>
9d005bac:	2404005d 	li	a0,93
9d005bb0:	24420001 	addiu	v0,v0,1
9d005bb4:	afa201b4 	sw	v0,436(sp)
9d005bb8:	24020001 	li	v0,1
9d005bbc:	00511023 	subu	v0,v0,s1
9d005bc0:	a3a20046 	sb	v0,70(sp)
9d005bc4:	24020001 	li	v0,1
9d005bc8:	00518823 	subu	s1,v0,s1
9d005bcc:	2405005d 	li	a1,93
9d005bd0:	2406002d 	li	a2,45
9d005bd4:	322700ff 	andi	a3,s1,0xff
9d005bd8:	8fa301b4 	lw	v1,436(sp)
9d005bdc:	80620000 	lb	v0,0(v1)
9d005be0:	14450019 	bne	v0,a1,9d005c48 <__scanf_core+0x648>
9d005be4:	00000000 	nop
9d005be8:	16800039 	bnez	s4,9d005cd0 <__scanf_core+0x6d0>
9d005bec:	00008825 	move	s1,zero
9d005bf0:	8e02003c 	lw	v0,60(s0)
9d005bf4:	8e03004c 	lw	v1,76(s0)
9d005bf8:	0043182b 	sltu	v1,v0,v1
9d005bfc:	10600055 	beqz	v1,9d005d54 <__scanf_core+0x754>
9d005c00:	24430001 	addiu	v1,v0,1
9d005c04:	ae03003c 	sw	v1,60(s0)
9d005c08:	90530000 	lbu	s3,0(v0)
9d005c0c:	27a20018 	addiu	v0,sp,24
9d005c10:	00531021 	addu	v0,v0,s3
9d005c14:	90420001 	lbu	v0,1(v0)
9d005c18:	1440004b 	bnez	v0,9d005d48 <__scanf_core+0x748>
9d005c1c:	8fa201b0 	lw	v0,432(sp)
9d005c20:	10000038 	b	9d005d04 <__scanf_core+0x704>
9d005c24:	0000f025 	move	s8,zero
9d005c28:	5464ffe7 	bnel	v1,a0,9d005bc8 <__scanf_core+0x5c8>
9d005c2c:	24020001 	li	v0,1
9d005c30:	24420001 	addiu	v0,v0,1
9d005c34:	afa201b4 	sw	v0,436(sp)
9d005c38:	24020001 	li	v0,1
9d005c3c:	00511023 	subu	v0,v0,s1
9d005c40:	1000ffe0 	b	9d005bc4 <__scanf_core+0x5c4>
9d005c44:	a3a20076 	sb	v0,118(sp)
9d005c48:	1040ffe7 	beqz	v0,9d005be8 <__scanf_core+0x5e8>
9d005c4c:	00000000 	nop
9d005c50:	10460009 	beq	v0,a2,9d005c78 <__scanf_core+0x678>
9d005c54:	8fa201b8 	lw	v0,440(sp)
9d005c58:	8fa201b4 	lw	v0,436(sp)
9d005c5c:	27a40018 	addiu	a0,sp,24
9d005c60:	80430000 	lb	v1,0(v0)
9d005c64:	24420001 	addiu	v0,v0,1
9d005c68:	afa201b4 	sw	v0,436(sp)
9d005c6c:	00831821 	addu	v1,a0,v1
9d005c70:	1000ffd9 	b	9d005bd8 <__scanf_core+0x5d8>
9d005c74:	a0710001 	sb	s1,1(v1)
9d005c78:	80420000 	lb	v0,0(v0)
9d005c7c:	5040fff7 	beqzl	v0,9d005c5c <__scanf_core+0x65c>
9d005c80:	8fa201b4 	lw	v0,436(sp)
9d005c84:	1045fff5 	beq	v0,a1,9d005c5c <__scanf_core+0x65c>
9d005c88:	8fa201b4 	lw	v0,436(sp)
9d005c8c:	24620001 	addiu	v0,v1,1
9d005c90:	afa201b4 	sw	v0,436(sp)
9d005c94:	8fa201b0 	lw	v0,432(sp)
9d005c98:	80420000 	lb	v0,0(v0)
9d005c9c:	80640001 	lb	a0,1(v1)
9d005ca0:	0044202a 	slt	a0,v0,a0
9d005ca4:	1080ffec 	beqz	a0,9d005c58 <__scanf_core+0x658>
9d005ca8:	24420001 	addiu	v0,v0,1
9d005cac:	27a40018 	addiu	a0,sp,24
9d005cb0:	00822021 	addu	a0,a0,v0
9d005cb4:	1000fff9 	b	9d005c9c <__scanf_core+0x69c>
9d005cb8:	a0870000 	sb	a3,0(a0)
9d005cbc:	a0530000 	sb	s3,0(v0)
9d005cc0:	8fa201b0 	lw	v0,432(sp)
9d005cc4:	26310001 	addiu	s1,s1,1
9d005cc8:	24420001 	addiu	v0,v0,1
9d005ccc:	afa201b0 	sw	v0,432(sp)
9d005cd0:	8e02003c 	lw	v0,60(s0)
9d005cd4:	8e03004c 	lw	v1,76(s0)
9d005cd8:	0043182b 	sltu	v1,v0,v1
9d005cdc:	10600016 	beqz	v1,9d005d38 <__scanf_core+0x738>
9d005ce0:	0220f025 	move	s8,s1
9d005ce4:	24430001 	addiu	v1,v0,1
9d005ce8:	ae03003c 	sw	v1,60(s0)
9d005cec:	90530000 	lbu	s3,0(v0)
9d005cf0:	27a20018 	addiu	v0,sp,24
9d005cf4:	00531021 	addu	v0,v0,s3
9d005cf8:	90420001 	lbu	v0,1(v0)
9d005cfc:	1440ffef 	bnez	v0,9d005cbc <__scanf_core+0x6bc>
9d005d00:	02911021 	addu	v0,s4,s1
9d005d04:	8e02004c 	lw	v0,76(s0)
9d005d08:	10400004 	beqz	v0,9d005d1c <__scanf_core+0x71c>
9d005d0c:	00000000 	nop
9d005d10:	8e02003c 	lw	v0,60(s0)
9d005d14:	2442ffff 	addiu	v0,v0,-1
9d005d18:	ae02003c 	sw	v0,60(s0)
9d005d1c:	13c0fe91 	beqz	s8,9d005764 <__scanf_core+0x164>
9d005d20:	8fa201b4 	lw	v0,436(sp)
9d005d24:	1280fe90 	beqz	s4,9d005768 <__scanf_core+0x168>
9d005d28:	24420001 	addiu	v0,v0,1
9d005d2c:	029ea021 	addu	s4,s4,s8
9d005d30:	1000fe8b 	b	9d005760 <__scanf_core+0x160>
9d005d34:	a2800000 	sb	zero,0(s4)
9d005d38:	0f403330 	jal	9d00ccc0 <__shgetc>
9d005d3c:	02002025 	move	a0,s0
9d005d40:	1000ffeb 	b	9d005cf0 <__scanf_core+0x6f0>
9d005d44:	00409825 	move	s3,v0
9d005d48:	24420001 	addiu	v0,v0,1
9d005d4c:	1000ffa8 	b	9d005bf0 <__scanf_core+0x5f0>
9d005d50:	afa201b0 	sw	v0,432(sp)
9d005d54:	0f403330 	jal	9d00ccc0 <__shgetc>
9d005d58:	02002025 	move	a0,s0
9d005d5c:	1000ffab 	b	9d005c0c <__scanf_core+0x60c>
9d005d60:	00409825 	move	s3,v0

Disassembly of section .text.__intscan:

9d005d64 <__intscan>:
9d005d64:	27bdffb8 	addiu	sp,sp,-72
9d005d68:	2ca20025 	sltiu	v0,a1,37
9d005d6c:	afb3002c 	sw	s3,44(sp)
9d005d70:	afb20028 	sw	s2,40(sp)
9d005d74:	afbf0044 	sw	ra,68(sp)
9d005d78:	afbe0040 	sw	s8,64(sp)
9d005d7c:	afb7003c 	sw	s7,60(sp)
9d005d80:	afb60038 	sw	s6,56(sp)
9d005d84:	afb50034 	sw	s5,52(sp)
9d005d88:	afb40030 	sw	s4,48(sp)
9d005d8c:	afb10024 	sw	s1,36(sp)
9d005d90:	afb00020 	sw	s0,32(sp)
9d005d94:	8fb30058 	lw	s3,88(sp)
9d005d98:	10400007 	beqz	v0,9d005db8 <__intscan+0x54>
9d005d9c:	8fb2005c 	lw	s2,92(sp)
9d005da0:	24020001 	li	v0,1
9d005da4:	00808025 	move	s0,a0
9d005da8:	00a0f025 	move	s8,a1
9d005dac:	00c0a025 	move	s4,a2
9d005db0:	14a20005 	bne	a1,v0,9d005dc8 <__intscan+0x64>
9d005db4:	24110020 	li	s1,32
9d005db8:	3c02a001 	lui	v0,0xa001
9d005dbc:	24030016 	li	v1,22
9d005dc0:	1000004f 	b	9d005f00 <__intscan+0x19c>
9d005dc4:	ac433fbc 	sw	v1,16316(v0)
9d005dc8:	8e02003c 	lw	v0,60(s0)
9d005dcc:	8e03004c 	lw	v1,76(s0)
9d005dd0:	0043182b 	sltu	v1,v0,v1
9d005dd4:	10600020 	beqz	v1,9d005e58 <__intscan+0xf4>
9d005dd8:	24430001 	addiu	v1,v0,1
9d005ddc:	ae03003c 	sw	v1,60(s0)
9d005de0:	90480000 	lbu	t0,0(v0)
9d005de4:	1111fff8 	beq	t0,s1,9d005dc8 <__intscan+0x64>
9d005de8:	2502fff7 	addiu	v0,t0,-9
9d005dec:	2c420005 	sltiu	v0,v0,5
9d005df0:	5440fff6 	bnezl	v0,9d005dcc <__intscan+0x68>
9d005df4:	8e02003c 	lw	v0,60(s0)
9d005df8:	2502ffd5 	addiu	v0,t0,-43
9d005dfc:	7c020844 	ins	v0,zero,0x1,0x1
9d005e00:	1440000b 	bnez	v0,9d005e30 <__intscan+0xcc>
9d005e04:	0000a825 	move	s5,zero
9d005e08:	8e02003c 	lw	v0,60(s0)
9d005e0c:	8e03004c 	lw	v1,76(s0)
9d005e10:	3915002d 	xori	s5,t0,0x2d
9d005e14:	2eb50001 	sltiu	s5,s5,1
9d005e18:	0043182b 	sltu	v1,v0,v1
9d005e1c:	10600012 	beqz	v1,9d005e68 <__intscan+0x104>
9d005e20:	0015a823 	negu	s5,s5
9d005e24:	24430001 	addiu	v1,v0,1
9d005e28:	ae03003c 	sw	v1,60(s0)
9d005e2c:	90480000 	lbu	t0,0(v0)
9d005e30:	13c00011 	beqz	s8,9d005e78 <__intscan+0x114>
9d005e34:	8e03004c 	lw	v1,76(s0)
9d005e38:	24020010 	li	v0,16
9d005e3c:	17c2005b 	bne	s8,v0,9d005fac <__intscan+0x248>
9d005e40:	3c029d01 	lui	v0,0x9d01
9d005e44:	24020030 	li	v0,48
9d005e48:	5102000f 	beql	t0,v0,9d005e88 <__intscan+0x124>
9d005e4c:	8e02003c 	lw	v0,60(s0)
9d005e50:	10000056 	b	9d005fac <__intscan+0x248>
9d005e54:	3c029d01 	lui	v0,0x9d01
9d005e58:	0f403330 	jal	9d00ccc0 <__shgetc>
9d005e5c:	02002025 	move	a0,s0
9d005e60:	1000ffe0 	b	9d005de4 <__intscan+0x80>
9d005e64:	00404025 	move	t0,v0
9d005e68:	0f403330 	jal	9d00ccc0 <__shgetc>
9d005e6c:	02002025 	move	a0,s0
9d005e70:	1000ffef 	b	9d005e30 <__intscan+0xcc>
9d005e74:	00404025 	move	t0,v0
9d005e78:	24020030 	li	v0,48
9d005e7c:	5502004a 	bnel	t0,v0,9d005fa8 <__intscan+0x244>
9d005e80:	241e000a 	li	s8,10
9d005e84:	8e02003c 	lw	v0,60(s0)
9d005e88:	0043182b 	sltu	v1,v0,v1
9d005e8c:	1060002c 	beqz	v1,9d005f40 <__intscan+0x1dc>
9d005e90:	24430001 	addiu	v1,v0,1
9d005e94:	ae03003c 	sw	v1,60(s0)
9d005e98:	90480000 	lbu	t0,0(v0)
9d005e9c:	35020020 	ori	v0,t0,0x20
9d005ea0:	24030078 	li	v1,120
9d005ea4:	14430036 	bne	v0,v1,9d005f80 <__intscan+0x21c>
9d005ea8:	00000000 	nop
9d005eac:	8e02003c 	lw	v0,60(s0)
9d005eb0:	8e03004c 	lw	v1,76(s0)
9d005eb4:	0043182b 	sltu	v1,v0,v1
9d005eb8:	10600025 	beqz	v1,9d005f50 <__intscan+0x1ec>
9d005ebc:	24430001 	addiu	v1,v0,1
9d005ec0:	ae03003c 	sw	v1,60(s0)
9d005ec4:	90480000 	lbu	t0,0(v0)
9d005ec8:	3c029d01 	lui	v0,0x9d01
9d005ecc:	2442d025 	addiu	v0,v0,-12251
9d005ed0:	01021021 	addu	v0,t0,v0
9d005ed4:	90420000 	lbu	v0,0(v0)
9d005ed8:	2c420010 	sltiu	v0,v0,16
9d005edc:	144000b7 	bnez	v0,9d0061bc <__intscan+0x458>
9d005ee0:	241e0010 	li	s8,16
9d005ee4:	8e02004c 	lw	v0,76(s0)
9d005ee8:	1040015c 	beqz	v0,9d00645c <__intscan+0x6f8>
9d005eec:	00000000 	nop
9d005ef0:	1280001b 	beqz	s4,9d005f60 <__intscan+0x1fc>
9d005ef4:	8e02003c 	lw	v0,60(s0)
9d005ef8:	2442fffe 	addiu	v0,v0,-2
9d005efc:	ae02003c 	sw	v0,60(s0)
9d005f00:	00008825 	move	s1,zero
9d005f04:	0000b825 	move	s7,zero
9d005f08:	8fbf0044 	lw	ra,68(sp)
9d005f0c:	02201025 	move	v0,s1
9d005f10:	02e01825 	move	v1,s7
9d005f14:	8fbe0040 	lw	s8,64(sp)
9d005f18:	8fb7003c 	lw	s7,60(sp)
9d005f1c:	8fb60038 	lw	s6,56(sp)
9d005f20:	8fb50034 	lw	s5,52(sp)
9d005f24:	8fb40030 	lw	s4,48(sp)
9d005f28:	8fb3002c 	lw	s3,44(sp)
9d005f2c:	8fb20028 	lw	s2,40(sp)
9d005f30:	8fb10024 	lw	s1,36(sp)
9d005f34:	8fb00020 	lw	s0,32(sp)
9d005f38:	03e00008 	jr	ra
9d005f3c:	27bd0048 	addiu	sp,sp,72
9d005f40:	0f403330 	jal	9d00ccc0 <__shgetc>
9d005f44:	02002025 	move	a0,s0
9d005f48:	1000ffd4 	b	9d005e9c <__intscan+0x138>
9d005f4c:	00404025 	move	t0,v0
9d005f50:	0f403330 	jal	9d00ccc0 <__shgetc>
9d005f54:	02002025 	move	a0,s0
9d005f58:	1000ffdb 	b	9d005ec8 <__intscan+0x164>
9d005f5c:	00404025 	move	t0,v0
9d005f60:	2442ffff 	addiu	v0,v0,-1
9d005f64:	ae02003c 	sw	v0,60(s0)
9d005f68:	00003025 	move	a2,zero
9d005f6c:	00003825 	move	a3,zero
9d005f70:	0f403d3c 	jal	9d00f4f0 <__shlim>
9d005f74:	02002025 	move	a0,s0
9d005f78:	1000ffe2 	b	9d005f04 <__intscan+0x1a0>
9d005f7c:	00008825 	move	s1,zero
9d005f80:	53c0008e 	beqzl	s8,9d0061bc <__intscan+0x458>
9d005f84:	241e0008 	li	s8,8
9d005f88:	2402000a 	li	v0,10
9d005f8c:	57c2008c 	bnel	s8,v0,9d0061c0 <__intscan+0x45c>
9d005f90:	27d1ffff 	addiu	s1,s8,-1
9d005f94:	3c141999 	lui	s4,0x1999
9d005f98:	00008825 	move	s1,zero
9d005f9c:	36949999 	ori	s4,s4,0x9999
9d005fa0:	1000001a 	b	9d00600c <__intscan+0x2a8>
9d005fa4:	2416000a 	li	s6,10
9d005fa8:	3c029d01 	lui	v0,0x9d01
9d005fac:	2442d025 	addiu	v0,v0,-12251
9d005fb0:	01021021 	addu	v0,t0,v0
9d005fb4:	90420000 	lbu	v0,0(v0)
9d005fb8:	005e102b 	sltu	v0,v0,s8
9d005fbc:	1440fff3 	bnez	v0,9d005f8c <__intscan+0x228>
9d005fc0:	2402000a 	li	v0,10
9d005fc4:	10600004 	beqz	v1,9d005fd8 <__intscan+0x274>
9d005fc8:	00003025 	move	a2,zero
9d005fcc:	8e02003c 	lw	v0,60(s0)
9d005fd0:	2442ffff 	addiu	v0,v0,-1
9d005fd4:	ae02003c 	sw	v0,60(s0)
9d005fd8:	00003825 	move	a3,zero
9d005fdc:	0f403d3c 	jal	9d00f4f0 <__shlim>
9d005fe0:	02002025 	move	a0,s0
9d005fe4:	1000ff75 	b	9d005dbc <__intscan+0x58>
9d005fe8:	3c02a001 	lui	v0,0xa001
9d005fec:	00688821 	addu	s1,v1,t0
9d005ff0:	8e03003c 	lw	v1,60(s0)
9d005ff4:	0062102b 	sltu	v0,v1,v0
9d005ff8:	1040005c 	beqz	v0,9d00616c <__intscan+0x408>
9d005ffc:	2631ffd0 	addiu	s1,s1,-48
9d006000:	24620001 	addiu	v0,v1,1
9d006004:	ae02003c 	sw	v0,60(s0)
9d006008:	90680000 	lbu	t0,0(v1)
9d00600c:	2503ffd0 	addiu	v1,t0,-48
9d006010:	2c63000a 	sltiu	v1,v1,10
9d006014:	10600004 	beqz	v1,9d006028 <__intscan+0x2c4>
9d006018:	8e02004c 	lw	v0,76(s0)
9d00601c:	0234182b 	sltu	v1,s1,s4
9d006020:	1460fff2 	bnez	v1,9d005fec <__intscan+0x288>
9d006024:	72361802 	mul	v1,s1,s6
9d006028:	3c141999 	lui	s4,0x1999
9d00602c:	3694999a 	ori	s4,s4,0x999a
9d006030:	3c169999 	lui	s6,0x9999
9d006034:	0000b825 	move	s7,zero
9d006038:	2689ffff 	addiu	t1,s4,-1
9d00603c:	36d6999a 	ori	s6,s6,0x999a
9d006040:	2502ffd0 	addiu	v0,t0,-48
9d006044:	2c43000a 	sltiu	v1,v0,10
9d006048:	1060002e 	beqz	v1,9d006104 <__intscan+0x3a0>
9d00604c:	8e06004c 	lw	a2,76(s0)
9d006050:	02f4182b 	sltu	v1,s7,s4
9d006054:	50600012 	beqzl	v1,9d0060a0 <__intscan+0x33c>
9d006058:	3c149d01 	lui	s4,0x9d01
9d00605c:	16e90004 	bne	s7,t1,9d006070 <__intscan+0x30c>
9d006060:	2403000a 	li	v1,10
9d006064:	0236182b 	sltu	v1,s1,s6
9d006068:	1060000c 	beqz	v1,9d00609c <__intscan+0x338>
9d00606c:	2403000a 	li	v1,10
9d006070:	00710019 	multu	v1,s1
9d006074:	240affff 	li	t2,-1
9d006078:	00002810 	mfhi	a1
9d00607c:	00002012 	mflo	a0
9d006080:	70773802 	mul	a3,v1,s7
9d006084:	00e52821 	addu	a1,a3,a1
9d006088:	14aa003c 	bne	a1,t2,9d00617c <__intscan+0x418>
9d00608c:	00021827 	nor	v1,zero,v0
9d006090:	0064182b 	sltu	v1,v1,a0
9d006094:	5060003a 	beqzl	v1,9d006180 <__intscan+0x41c>
9d006098:	00448821 	addu	s1,v0,a0
9d00609c:	3c149d01 	lui	s4,0x9d01
9d0060a0:	2694d025 	addiu	s4,s4,-12251
9d0060a4:	01144021 	addu	t0,t0,s4
9d0060a8:	91020000 	lbu	v0,0(t0)
9d0060ac:	005e102b 	sltu	v0,v0,s8
9d0060b0:	50400015 	beqzl	v0,9d006108 <__intscan+0x3a4>
9d0060b4:	8e02004c 	lw	v0,76(s0)
9d0060b8:	8e02003c 	lw	v0,60(s0)
9d0060bc:	8e03004c 	lw	v1,76(s0)
9d0060c0:	0043182b 	sltu	v1,v0,v1
9d0060c4:	106000cd 	beqz	v1,9d0063fc <__intscan+0x698>
9d0060c8:	24430001 	addiu	v1,v0,1
9d0060cc:	ae03003c 	sw	v1,60(s0)
9d0060d0:	90420000 	lbu	v0,0(v0)
9d0060d4:	02821021 	addu	v0,s4,v0
9d0060d8:	90420000 	lbu	v0,0(v0)
9d0060dc:	005e102b 	sltu	v0,v0,s8
9d0060e0:	5440fff6 	bnezl	v0,9d0060bc <__intscan+0x358>
9d0060e4:	8e02003c 	lw	v0,60(s0)
9d0060e8:	3c02a001 	lui	v0,0xa001
9d0060ec:	24030022 	li	v1,34
9d0060f0:	ac433fbc 	sw	v1,16316(v0)
9d0060f4:	32620001 	andi	v0,s3,0x1
9d0060f8:	02608825 	move	s1,s3
9d0060fc:	0240b825 	move	s7,s2
9d006100:	0002a80b 	movn	s5,zero,v0
9d006104:	8e02004c 	lw	v0,76(s0)
9d006108:	10400005 	beqz	v0,9d006120 <__intscan+0x3bc>
9d00610c:	02f2102b 	sltu	v0,s7,s2
9d006110:	8e02003c 	lw	v0,60(s0)
9d006114:	2442ffff 	addiu	v0,v0,-1
9d006118:	ae02003c 	sw	v0,60(s0)
9d00611c:	02f2102b 	sltu	v0,s7,s2
9d006120:	144000c7 	bnez	v0,9d006440 <__intscan+0x6dc>
9d006124:	2402ffff 	li	v0,-1
9d006128:	16570005 	bne	s2,s7,9d006140 <__intscan+0x3dc>
9d00612c:	32620001 	andi	v0,s3,0x1
9d006130:	0233102b 	sltu	v0,s1,s3
9d006134:	144000c2 	bnez	v0,9d006440 <__intscan+0x6dc>
9d006138:	2402ffff 	li	v0,-1
9d00613c:	32620001 	andi	v0,s3,0x1
9d006140:	144000b2 	bnez	v0,9d00640c <__intscan+0x6a8>
9d006144:	0257102b 	sltu	v0,s2,s7
9d006148:	16a000b0 	bnez	s5,9d00640c <__intscan+0x6a8>
9d00614c:	24030022 	li	v1,34
9d006150:	2671ffff 	addiu	s1,s3,-1
9d006154:	3c02a001 	lui	v0,0xa001
9d006158:	0233982b 	sltu	s3,s1,s3
9d00615c:	2652ffff 	addiu	s2,s2,-1
9d006160:	ac433fbc 	sw	v1,16316(v0)
9d006164:	1000ff68 	b	9d005f08 <__intscan+0x1a4>
9d006168:	0272b821 	addu	s7,s3,s2
9d00616c:	0f403330 	jal	9d00ccc0 <__shgetc>
9d006170:	02002025 	move	a0,s0
9d006174:	1000ffa5 	b	9d00600c <__intscan+0x2a8>
9d006178:	00404025 	move	t0,v0
9d00617c:	00448821 	addu	s1,v0,a0
9d006180:	8e02003c 	lw	v0,60(s0)
9d006184:	0224382b 	sltu	a3,s1,a0
9d006188:	0046302b 	sltu	a2,v0,a2
9d00618c:	10c00005 	beqz	a2,9d0061a4 <__intscan+0x440>
9d006190:	00e5b821 	addu	s7,a3,a1
9d006194:	24430001 	addiu	v1,v0,1
9d006198:	ae03003c 	sw	v1,60(s0)
9d00619c:	1000ffa8 	b	9d006040 <__intscan+0x2dc>
9d0061a0:	90480000 	lbu	t0,0(v0)
9d0061a4:	0f403330 	jal	9d00ccc0 <__shgetc>
9d0061a8:	02002025 	move	a0,s0
9d0061ac:	00404025 	move	t0,v0
9d0061b0:	3c021999 	lui	v0,0x1999
9d0061b4:	1000ffa2 	b	9d006040 <__intscan+0x2dc>
9d0061b8:	34499999 	ori	t1,v0,0x9999
9d0061bc:	27d1ffff 	addiu	s1,s8,-1
9d0061c0:	3c149d01 	lui	s4,0x9d01
9d0061c4:	023e8824 	and	s1,s1,s8
9d0061c8:	16200084 	bnez	s1,9d0063dc <__intscan+0x678>
9d0061cc:	2694d025 	addiu	s4,s4,-12251
9d0061d0:	24020017 	li	v0,23
9d0061d4:	73c21002 	mul	v0,s8,v0
9d0061d8:	3c039d01 	lui	v1,0x9d01
9d0061dc:	2463d018 	addiu	v1,v1,-12264
9d0061e0:	3c160800 	lui	s6,0x800
9d0061e4:	7c421140 	ext	v0,v0,0x5,0x3
9d0061e8:	00431021 	addu	v0,v0,v1
9d0061ec:	80420000 	lb	v0,0(v0)
9d0061f0:	afa20010 	sw	v0,16(sp)
9d0061f4:	02881021 	addu	v0,s4,t0
9d0061f8:	90440000 	lbu	a0,0(v0)
9d0061fc:	009e102b 	sltu	v0,a0,s8
9d006200:	10400004 	beqz	v0,9d006214 <__intscan+0x4b0>
9d006204:	8e03004c 	lw	v1,76(s0)
9d006208:	0236102b 	sltu	v0,s1,s6
9d00620c:	14400028 	bnez	v0,9d0062b0 <__intscan+0x54c>
9d006210:	8fa20010 	lw	v0,16(sp)
9d006214:	8fa60010 	lw	a2,16(sp)
9d006218:	2404ffff 	li	a0,-1
9d00621c:	2405ffff 	li	a1,-1
9d006220:	0f403e5a 	jal	9d00f968 <__lshrdi3>
9d006224:	afa80018 	sw	t0,24(sp)
9d006228:	8fa80018 	lw	t0,24(sp)
9d00622c:	0000b825 	move	s7,zero
9d006230:	afa20014 	sw	v0,20(sp)
9d006234:	0060b025 	move	s6,v1
9d006238:	02881021 	addu	v0,s4,t0
9d00623c:	904b0000 	lbu	t3,0(v0)
9d006240:	017e102b 	sltu	v0,t3,s8
9d006244:	1040ff95 	beqz	v0,9d00609c <__intscan+0x338>
9d006248:	8e0a004c 	lw	t2,76(s0)
9d00624c:	02d7102b 	sltu	v0,s6,s7
9d006250:	5440ff93 	bnezl	v0,9d0060a0 <__intscan+0x33c>
9d006254:	3c149d01 	lui	s4,0x9d01
9d006258:	16f60005 	bne	s7,s6,9d006270 <__intscan+0x50c>
9d00625c:	8fa60010 	lw	a2,16(sp)
9d006260:	8fa20014 	lw	v0,20(sp)
9d006264:	0051102b 	sltu	v0,v0,s1
9d006268:	5440ff8d 	bnezl	v0,9d0060a0 <__intscan+0x33c>
9d00626c:	3c149d01 	lui	s4,0x9d01
9d006270:	02202025 	move	a0,s1
9d006274:	02e02825 	move	a1,s7
9d006278:	afaa001c 	sw	t2,28(sp)
9d00627c:	0f403e69 	jal	9d00f9a4 <__ashldi3>
9d006280:	afab0018 	sw	t3,24(sp)
9d006284:	8fab0018 	lw	t3,24(sp)
9d006288:	8faa001c 	lw	t2,28(sp)
9d00628c:	01628825 	or	s1,t3,v0
9d006290:	8e02003c 	lw	v0,60(s0)
9d006294:	004a502b 	sltu	t2,v0,t2
9d006298:	11400012 	beqz	t2,9d0062e4 <__intscan+0x580>
9d00629c:	0060b825 	move	s7,v1
9d0062a0:	24430001 	addiu	v1,v0,1
9d0062a4:	ae03003c 	sw	v1,60(s0)
9d0062a8:	1000ffe3 	b	9d006238 <__intscan+0x4d4>
9d0062ac:	90480000 	lbu	t0,0(v0)
9d0062b0:	00518804 	sllv	s1,s1,v0
9d0062b4:	8e02003c 	lw	v0,60(s0)
9d0062b8:	0043182b 	sltu	v1,v0,v1
9d0062bc:	10600005 	beqz	v1,9d0062d4 <__intscan+0x570>
9d0062c0:	02248825 	or	s1,s1,a0
9d0062c4:	24430001 	addiu	v1,v0,1
9d0062c8:	ae03003c 	sw	v1,60(s0)
9d0062cc:	1000ffc9 	b	9d0061f4 <__intscan+0x490>
9d0062d0:	90480000 	lbu	t0,0(v0)
9d0062d4:	0f403330 	jal	9d00ccc0 <__shgetc>
9d0062d8:	02002025 	move	a0,s0
9d0062dc:	1000ffc5 	b	9d0061f4 <__intscan+0x490>
9d0062e0:	00404025 	move	t0,v0
9d0062e4:	0f403330 	jal	9d00ccc0 <__shgetc>
9d0062e8:	02002025 	move	a0,s0
9d0062ec:	1000ffd2 	b	9d006238 <__intscan+0x4d4>
9d0062f0:	00404025 	move	t0,v0
9d0062f4:	00838821 	addu	s1,a0,v1
9d0062f8:	8e03003c 	lw	v1,60(s0)
9d0062fc:	0062102b 	sltu	v0,v1,v0
9d006300:	10400032 	beqz	v0,9d0063cc <__intscan+0x668>
9d006304:	00000000 	nop
9d006308:	24620001 	addiu	v0,v1,1
9d00630c:	ae02003c 	sw	v0,60(s0)
9d006310:	90680000 	lbu	t0,0(v1)
9d006314:	02881021 	addu	v0,s4,t0
9d006318:	90430000 	lbu	v1,0(v0)
9d00631c:	007e202b 	sltu	a0,v1,s8
9d006320:	10800004 	beqz	a0,9d006334 <__intscan+0x5d0>
9d006324:	8e02004c 	lw	v0,76(s0)
9d006328:	0236202b 	sltu	a0,s1,s6
9d00632c:	1480fff1 	bnez	a0,9d0062f4 <__intscan+0x590>
9d006330:	73d12002 	mul	a0,s8,s1
9d006334:	0000b825 	move	s7,zero
9d006338:	2416ffff 	li	s6,-1
9d00633c:	02881021 	addu	v0,s4,t0
9d006340:	90420000 	lbu	v0,0(v0)
9d006344:	005e182b 	sltu	v1,v0,s8
9d006348:	1060ff54 	beqz	v1,9d00609c <__intscan+0x338>
9d00634c:	8e06004c 	lw	a2,76(s0)
9d006350:	023e0019 	multu	s1,s8
9d006354:	00002012 	mflo	a0
9d006358:	12e00009 	beqz	s7,9d006380 <__intscan+0x61c>
9d00635c:	00002810 	mfhi	a1
9d006360:	03d70019 	multu	s8,s7
9d006364:	00005012 	mflo	t2
9d006368:	00aa1821 	addu	v1,a1,t2
9d00636c:	006a182b 	sltu	v1,v1,t2
9d006370:	00005810 	mfhi	t3
9d006374:	006b1821 	addu	v1,v1,t3
9d006378:	5460ff49 	bnezl	v1,9d0060a0 <__intscan+0x33c>
9d00637c:	3c149d01 	lui	s4,0x9d01
9d006380:	00801825 	move	v1,a0
9d006384:	00a02025 	move	a0,a1
9d006388:	72fe2802 	mul	a1,s7,s8
9d00638c:	00a42021 	addu	a0,a1,a0
9d006390:	14960004 	bne	a0,s6,9d0063a4 <__intscan+0x640>
9d006394:	00022827 	nor	a1,zero,v0
9d006398:	00a3282b 	sltu	a1,a1,v1
9d00639c:	54a0ff40 	bnezl	a1,9d0060a0 <__intscan+0x33c>
9d0063a0:	3c149d01 	lui	s4,0x9d01
9d0063a4:	00438821 	addu	s1,v0,v1
9d0063a8:	8e02003c 	lw	v0,60(s0)
9d0063ac:	0223182b 	sltu	v1,s1,v1
9d0063b0:	0046302b 	sltu	a2,v0,a2
9d0063b4:	10c0000d 	beqz	a2,9d0063ec <__intscan+0x688>
9d0063b8:	0064b821 	addu	s7,v1,a0
9d0063bc:	24430001 	addiu	v1,v0,1
9d0063c0:	ae03003c 	sw	v1,60(s0)
9d0063c4:	1000ffdd 	b	9d00633c <__intscan+0x5d8>
9d0063c8:	90480000 	lbu	t0,0(v0)
9d0063cc:	0f403330 	jal	9d00ccc0 <__shgetc>
9d0063d0:	02002025 	move	a0,s0
9d0063d4:	1000ffcf 	b	9d006314 <__intscan+0x5b0>
9d0063d8:	00404025 	move	t0,v0
9d0063dc:	3c16071c 	lui	s6,0x71c
9d0063e0:	00008825 	move	s1,zero
9d0063e4:	1000ffcb 	b	9d006314 <__intscan+0x5b0>
9d0063e8:	26d671c7 	addiu	s6,s6,29127
9d0063ec:	0f403330 	jal	9d00ccc0 <__shgetc>
9d0063f0:	02002025 	move	a0,s0
9d0063f4:	1000ffd1 	b	9d00633c <__intscan+0x5d8>
9d0063f8:	00404025 	move	t0,v0
9d0063fc:	0f403330 	jal	9d00ccc0 <__shgetc>
9d006400:	02002025 	move	a0,s0
9d006404:	1000ff34 	b	9d0060d8 <__intscan+0x374>
9d006408:	02821021 	addu	v0,s4,v0
9d00640c:	14400007 	bnez	v0,9d00642c <__intscan+0x6c8>
9d006410:	3c02a001 	lui	v0,0xa001
9d006414:	16f2000a 	bne	s7,s2,9d006440 <__intscan+0x6dc>
9d006418:	2402ffff 	li	v0,-1
9d00641c:	0271102b 	sltu	v0,s3,s1
9d006420:	10400007 	beqz	v0,9d006440 <__intscan+0x6dc>
9d006424:	2402ffff 	li	v0,-1
9d006428:	3c02a001 	lui	v0,0xa001
9d00642c:	24030022 	li	v1,34
9d006430:	ac433fbc 	sw	v1,16316(v0)
9d006434:	02608825 	move	s1,s3
9d006438:	1000feb3 	b	9d005f08 <__intscan+0x1a4>
9d00643c:	0240b825 	move	s7,s2
9d006440:	16a2feb2 	bne	s5,v0,9d005f0c <__intscan+0x1a8>
9d006444:	8fbf0044 	lw	ra,68(sp)
9d006448:	00118823 	negu	s1,s1
9d00644c:	0011102b 	sltu	v0,zero,s1
9d006450:	00173823 	negu	a3,s7
9d006454:	1000fead 	b	9d005f0c <__intscan+0x1a8>
9d006458:	00e2b823 	subu	s7,a3,v0
9d00645c:	5680fea9 	bnezl	s4,9d005f04 <__intscan+0x1a0>
9d006460:	00008825 	move	s1,zero
9d006464:	1000fec1 	b	9d005f6c <__intscan+0x208>
9d006468:	00003025 	move	a2,zero

Disassembly of section .text:

9d00646c <main>:
#include "positioncontrol.h"
#include <stdio.h>


int main() 
{
9d00646c:	27bdfa38 	addiu	sp,sp,-1480
9d006470:	afbf05c4 	sw	ra,1476(sp)
9d006474:	afbe05c0 	sw	s8,1472(sp)
9d006478:	afb705bc 	sw	s7,1468(sp)
9d00647c:	afb605b8 	sw	s6,1464(sp)
9d006480:	afb505b4 	sw	s5,1460(sp)
9d006484:	afb405b0 	sw	s4,1456(sp)
9d006488:	afb305ac 	sw	s3,1452(sp)
9d00648c:	afb205a8 	sw	s2,1448(sp)
9d006490:	afb105a4 	sw	s1,1444(sp)
  char buffer[BUF_SIZE];

  NU32_Startup(); // cache on, min flash wait, interrupts on, LED/button init, UART init
9d006494:	0f402db1 	jal	9d00b6c4 <NU32_Startup>
9d006498:	afb005a0 	sw	s0,1440(sp)
  INA219_Startup();
9d00649c:	0f403010 	jal	9d00c040 <INA219_Startup>
9d0064a0:	00000000 	nop
  UART2_Startup();
9d0064a4:	0f4027ff 	jal	9d009ffc <UART2_Startup>
9d0064a8:	00000000 	nop
  CurrentControl_Startup();
9d0064ac:	0f4010f2 	jal	9d0043c8 <CurrentControl_Startup>
9d0064b0:	00000000 	nop
  PositionControl_Startup();
9d0064b4:	0f401bd3 	jal	9d006f4c <PositionControl_Startup>
9d0064b8:	00000000 	nop

  NU32_LED1 = 1;  // turn off the LEDs
9d0064bc:	3c02bf88 	lui	v0,0xbf88
9d0064c0:	90436160 	lbu	v1,24928(v0)
9d0064c4:	24040001 	li	a0,1
9d0064c8:	7c830004 	ins	v1,a0,0x0,0x1
9d0064cc:	a0436160 	sb	v1,24928(v0)
  NU32_LED2 = 1;        
9d0064d0:	90436160 	lbu	v1,24928(v0)
9d0064d4:	7c830844 	ins	v1,a0,0x1,0x1
9d0064d8:	a0436160 	sb	v1,24928(v0)
  __builtin_disable_interrupts();
9d0064dc:	41626000 	di	v0
9d0064e0:	000000c0 	ehb

  __builtin_enable_interrupts();
9d0064e4:	41626020 	ei	v0

  while(1)
  {
    NU32_ReadUART3(buffer,BUF_SIZE); // we expect the next character to be a menu command
    NU32_LED2 = 1;                   // clear the error LED
9d0064e8:	3c10bf88 	lui	s0,0xbf88
    switch (buffer[0]) {
9d0064ec:	3c159d00 	lui	s5,0x9d00
        else if(mode == ITEST){
          sprintf(buffer, "ITEST\r\n");}
        else if(mode == HOLD){
          sprintf(buffer, "HOLD\r\n");}
        else if(mode == TRACK){
          sprintf(buffer, "TRACK\r\n");}
9d0064f0:	3c029d00 	lui	v0,0x9d00
9d0064f4:	afa20598 	sw	v0,1432(sp)
9d0064f8:	8c421eb4 	lw	v0,7860(v0)
9d0064fc:	afa2059c 	sw	v0,1436(sp)
          sprintf(buffer, "ITEST\r\n");}
9d006500:	3c169d00 	lui	s6,0x9d00
9d006504:	8ed71eac 	lw	s7,7852(s6)
        float pos_d = pos/(4.0*334.0) * 360.0;
9d006508:	3c029d00 	lui	v0,0x9d00
9d00650c:	8c521ec0 	lw	s2,7872(v0)
9d006510:	10000157 	b	9d006a70 <main+0x604>
9d006514:	8c531ec4 	lw	s3,7876(v0)
        float current = INA219_read_current();
9d006518:	0f403042 	jal	9d00c108 <INA219_read_current>
9d00651c:	00000000 	nop
        sprintf(buffer, "%f\r\n", current);
9d006520:	0f403779 	jal	9d00dde4 <__extendsfdf2>
9d006524:	00402025 	move	a0,v0
9d006528:	00403025 	move	a2,v0
9d00652c:	00603825 	move	a3,v1
9d006530:	3c059d00 	lui	a1,0x9d00
9d006534:	24a51e78 	addiu	a1,a1,7800
9d006538:	0f403f35 	jal	9d00fcd4 <_dsprintf_cdeEfFgGnopuxX>
9d00653c:	27a40018 	addiu	a0,sp,24
        NU32_WriteUART3(buffer);
9d006540:	0f402e0d 	jal	9d00b834 <NU32_WriteUART3>
9d006544:	27a40018 	addiu	a0,sp,24
        break;
9d006548:	1000014a 	b	9d006a74 <main+0x608>
9d00654c:	240500c8 	li	a1,200
        WriteUART2("a"); // asks Pico for position
9d006550:	3c049d00 	lui	a0,0x9d00
9d006554:	0f4027ef 	jal	9d009fbc <WriteUART2>
9d006558:	24841e80 	addiu	a0,a0,7808
        while(!get_encoder_flag()){} // wait for new position while flag is 0
9d00655c:	0f402789 	jal	9d009e24 <get_encoder_flag>
9d006560:	00000000 	nop
9d006564:	1040fffd 	beqz	v0,9d00655c <main+0xf0>
9d006568:	00000000 	nop
        set_encoder_flag(0);
9d00656c:	0f40278c 	jal	9d009e30 <set_encoder_flag>
9d006570:	00002025 	move	a0,zero
        int pos = get_encoder_count();
9d006574:	0f40278f 	jal	9d009e3c <get_encoder_count>
9d006578:	00000000 	nop
        float pos_d = pos/(4.0*334.0) * 360.0;
9d00657c:	0f403aee 	jal	9d00ebb8 <__floatsidf>
9d006580:	00402025 	move	a0,v0
9d006584:	02403025 	move	a2,s2
9d006588:	02603825 	move	a3,s3
9d00658c:	00402025 	move	a0,v0
9d006590:	0f401da9 	jal	9d0076a4 <__divdf3>
9d006594:	00602825 	move	a1,v1
9d006598:	3c049d00 	lui	a0,0x9d00
9d00659c:	8c861ec8 	lw	a2,7880(a0)
9d0065a0:	8c871ecc 	lw	a3,7884(a0)
9d0065a4:	00402025 	move	a0,v0
9d0065a8:	0f402611 	jal	9d009844 <__muldf3>
9d0065ac:	00602825 	move	a1,v1
9d0065b0:	00402025 	move	a0,v0
9d0065b4:	0f4034cd 	jal	9d00d334 <__truncdfsf2>
9d0065b8:	00602825 	move	a1,v1
        sprintf(buffer, "%f\r\n", pos_d);
9d0065bc:	0f403779 	jal	9d00dde4 <__extendsfdf2>
9d0065c0:	00402025 	move	a0,v0
9d0065c4:	00403025 	move	a2,v0
9d0065c8:	00603825 	move	a3,v1
9d0065cc:	3c059d00 	lui	a1,0x9d00
9d0065d0:	24a51e78 	addiu	a1,a1,7800
9d0065d4:	0f403f35 	jal	9d00fcd4 <_dsprintf_cdeEfFgGnopuxX>
9d0065d8:	27a40018 	addiu	a0,sp,24
        NU32_WriteUART3(buffer);
9d0065dc:	0f402e0d 	jal	9d00b834 <NU32_WriteUART3>
9d0065e0:	27a40018 	addiu	a0,sp,24
        break;
9d0065e4:	10000123 	b	9d006a74 <main+0x608>
9d0065e8:	240500c8 	li	a1,200
        WriteUART2("a"); // asks Pico for position
9d0065ec:	3c049d00 	lui	a0,0x9d00
9d0065f0:	0f4027ef 	jal	9d009fbc <WriteUART2>
9d0065f4:	24841e80 	addiu	a0,a0,7808
        while(!get_encoder_flag()){} // wait for new position while flag is 0
9d0065f8:	0f402789 	jal	9d009e24 <get_encoder_flag>
9d0065fc:	00000000 	nop
9d006600:	1040fffd 	beqz	v0,9d0065f8 <main+0x18c>
9d006604:	00000000 	nop
        set_encoder_flag(0);
9d006608:	0f40278c 	jal	9d009e30 <set_encoder_flag>
9d00660c:	00002025 	move	a0,zero
        int pos = get_encoder_count();
9d006610:	0f40278f 	jal	9d009e3c <get_encoder_count>
9d006614:	00000000 	nop
        sprintf(buffer, "%d\r\n", pos);
9d006618:	00403025 	move	a2,v0
9d00661c:	3c059d00 	lui	a1,0x9d00
9d006620:	24a51e84 	addiu	a1,a1,7812
9d006624:	0f403f35 	jal	9d00fcd4 <_dsprintf_cdeEfFgGnopuxX>
9d006628:	27a40018 	addiu	a0,sp,24
        NU32_WriteUART3(buffer);
9d00662c:	0f402e0d 	jal	9d00b834 <NU32_WriteUART3>
9d006630:	27a40018 	addiu	a0,sp,24
        break;
9d006634:	1000010f 	b	9d006a74 <main+0x608>
9d006638:	240500c8 	li	a1,200
        WriteUART2("b"); // set encoder to position zero
9d00663c:	3c049d00 	lui	a0,0x9d00
9d006640:	0f4027ef 	jal	9d009fbc <WriteUART2>
9d006644:	24841e8c 	addiu	a0,a0,7820
        break;
9d006648:	1000010a 	b	9d006a74 <main+0x608>
9d00664c:	240500c8 	li	a1,200
        signed int pwm_user = 0;
9d006650:	afa004c8 	sw	zero,1224(sp)
        NU32_ReadUART3(msg, sizeof(msg));
9d006654:	2405000a 	li	a1,10
9d006658:	0f402df6 	jal	9d00b7d8 <NU32_ReadUART3>
9d00665c:	27a400e0 	addiu	a0,sp,224
        sscanf(msg,"%d", &pwm_user);
9d006660:	27a604c8 	addiu	a2,sp,1224
9d006664:	3c059d00 	lui	a1,0x9d00
9d006668:	24a51e90 	addiu	a1,a1,7824
9d00666c:	0f403f49 	jal	9d00fd24 <_dsscanf_cdeEfFgGnopuxX>
9d006670:	27a400e0 	addiu	a0,sp,224
        set_PWM_dutycycle(pwm_user);
9d006674:	0f401138 	jal	9d0044e0 <set_PWM_dutycycle>
9d006678:	8fa404c8 	lw	a0,1224(sp)
        set_operating_mode(PWM);
9d00667c:	0f404042 	jal	9d010108 <set_operating_mode>
9d006680:	24040001 	li	a0,1
    NU32_ReadUART3(buffer,BUF_SIZE); // we expect the next character to be a menu command
9d006684:	100000fb 	b	9d006a74 <main+0x608>
9d006688:	240500c8 	li	a1,200
        NU32_ReadUART3(gns, sizeof(gns));
9d00668c:	24050064 	li	a1,100
9d006690:	0f402df6 	jal	9d00b7d8 <NU32_ReadUART3>
9d006694:	27a400e0 	addiu	a0,sp,224
        sscanf(gns, "%f %f", &kp_u, &ki_u);
9d006698:	27a704c8 	addiu	a3,sp,1224
9d00669c:	27a6052c 	addiu	a2,sp,1324
9d0066a0:	3c059d00 	lui	a1,0x9d00
9d0066a4:	24a51e94 	addiu	a1,a1,7828
9d0066a8:	0f403f49 	jal	9d00fd24 <_dsscanf_cdeEfFgGnopuxX>
9d0066ac:	27a400e0 	addiu	a0,sp,224
        set_current_gains(kp_u, ki_u);
9d0066b0:	8fa504c8 	lw	a1,1224(sp)
9d0066b4:	0f40113b 	jal	9d0044ec <set_current_gains>
9d0066b8:	8fa4052c 	lw	a0,1324(sp)
    NU32_ReadUART3(buffer,BUF_SIZE); // we expect the next character to be a menu command
9d0066bc:	100000ed 	b	9d006a74 <main+0x608>
9d0066c0:	240500c8 	li	a1,200
        kp_u = get_current_kp();
9d0066c4:	0f40113f 	jal	9d0044fc <get_current_kp>
9d0066c8:	00000000 	nop
        ki_u = get_current_ki();
9d0066cc:	0f401142 	jal	9d004508 <get_current_ki>
9d0066d0:	00408825 	move	s1,v0
9d0066d4:	0040a025 	move	s4,v0
        sprintf(kp_gain, "%f\r\n", kp_u);
9d0066d8:	0f403779 	jal	9d00dde4 <__extendsfdf2>
9d0066dc:	02202025 	move	a0,s1
9d0066e0:	00403025 	move	a2,v0
9d0066e4:	00603825 	move	a3,v1
9d0066e8:	3c119d00 	lui	s1,0x9d00
9d0066ec:	26251e78 	addiu	a1,s1,7800
9d0066f0:	0f403f35 	jal	9d00fcd4 <_dsprintf_cdeEfFgGnopuxX>
9d0066f4:	27a404c8 	addiu	a0,sp,1224
        sprintf(ki_gain, "%f\r\n", ki_u);
9d0066f8:	0f403779 	jal	9d00dde4 <__extendsfdf2>
9d0066fc:	02802025 	move	a0,s4
9d006700:	00403025 	move	a2,v0
9d006704:	00603825 	move	a3,v1
9d006708:	26251e78 	addiu	a1,s1,7800
9d00670c:	0f403f35 	jal	9d00fcd4 <_dsprintf_cdeEfFgGnopuxX>
9d006710:	27a400e0 	addiu	a0,sp,224
        NU32_WriteUART3(kp_gain);
9d006714:	0f402e0d 	jal	9d00b834 <NU32_WriteUART3>
9d006718:	27a404c8 	addiu	a0,sp,1224
        NU32_WriteUART3(ki_gain);
9d00671c:	0f402e0d 	jal	9d00b834 <NU32_WriteUART3>
9d006720:	27a400e0 	addiu	a0,sp,224
    NU32_ReadUART3(buffer,BUF_SIZE); // we expect the next character to be a menu command
9d006724:	100000d3 	b	9d006a74 <main+0x608>
9d006728:	240500c8 	li	a1,200
        NU32_ReadUART3(gns, sizeof(gns));
9d00672c:	24050064 	li	a1,100
9d006730:	0f402df6 	jal	9d00b7d8 <NU32_ReadUART3>
9d006734:	27a400e0 	addiu	a0,sp,224
        sscanf(gns, "%f %f %f", &kp_p, &ki_p, &kd_p);
9d006738:	27a204c8 	addiu	v0,sp,1224
9d00673c:	afa20010 	sw	v0,16(sp)
9d006740:	27a7052c 	addiu	a3,sp,1324
9d006744:	27a60590 	addiu	a2,sp,1424
9d006748:	3c059d00 	lui	a1,0x9d00
9d00674c:	24a51e9c 	addiu	a1,a1,7836
9d006750:	0f403f49 	jal	9d00fd24 <_dsscanf_cdeEfFgGnopuxX>
9d006754:	27a400e0 	addiu	a0,sp,224
        set_position_gains(kp_p, ki_p, kd_p);
9d006758:	8fa604c8 	lw	a2,1224(sp)
9d00675c:	8fa5052c 	lw	a1,1324(sp)
9d006760:	0f401bfc 	jal	9d006ff0 <set_position_gains>
9d006764:	8fa40590 	lw	a0,1424(sp)
    NU32_ReadUART3(buffer,BUF_SIZE); // we expect the next character to be a menu command
9d006768:	100000c2 	b	9d006a74 <main+0x608>
9d00676c:	240500c8 	li	a1,200
        kp_p = get_position_kp();
9d006770:	0f401c01 	jal	9d007004 <get_position_kp>
9d006774:	00000000 	nop
        ki_p = get_position_ki();
9d006778:	0f401c04 	jal	9d007010 <get_position_ki>
9d00677c:	00408825 	move	s1,v0
        kd_p = get_position_kd();
9d006780:	0f401c07 	jal	9d00701c <get_position_kd>
9d006784:	0040f025 	move	s8,v0
9d006788:	0040a025 	move	s4,v0
        sprintf(kpp_gain, "%f\r\n", kp_p);
9d00678c:	0f403779 	jal	9d00dde4 <__extendsfdf2>
9d006790:	02202025 	move	a0,s1
9d006794:	00403025 	move	a2,v0
9d006798:	00603825 	move	a3,v1
9d00679c:	3c119d00 	lui	s1,0x9d00
9d0067a0:	26251e78 	addiu	a1,s1,7800
9d0067a4:	0f403f35 	jal	9d00fcd4 <_dsprintf_cdeEfFgGnopuxX>
9d0067a8:	27a4052c 	addiu	a0,sp,1324
        sprintf(kip_gain, "%f\r\n", ki_p);
9d0067ac:	0f403779 	jal	9d00dde4 <__extendsfdf2>
9d0067b0:	03c02025 	move	a0,s8
9d0067b4:	00403025 	move	a2,v0
9d0067b8:	00603825 	move	a3,v1
9d0067bc:	26251e78 	addiu	a1,s1,7800
9d0067c0:	0f403f35 	jal	9d00fcd4 <_dsprintf_cdeEfFgGnopuxX>
9d0067c4:	27a404c8 	addiu	a0,sp,1224
        sprintf(kdp_gain, "%f\r\n", kd_p);
9d0067c8:	0f403779 	jal	9d00dde4 <__extendsfdf2>
9d0067cc:	02802025 	move	a0,s4
9d0067d0:	00403025 	move	a2,v0
9d0067d4:	00603825 	move	a3,v1
9d0067d8:	26251e78 	addiu	a1,s1,7800
9d0067dc:	0f403f35 	jal	9d00fcd4 <_dsprintf_cdeEfFgGnopuxX>
9d0067e0:	27a400e0 	addiu	a0,sp,224
        NU32_WriteUART3(kpp_gain);
9d0067e4:	0f402e0d 	jal	9d00b834 <NU32_WriteUART3>
9d0067e8:	27a4052c 	addiu	a0,sp,1324
        NU32_WriteUART3(kip_gain);
9d0067ec:	0f402e0d 	jal	9d00b834 <NU32_WriteUART3>
9d0067f0:	27a404c8 	addiu	a0,sp,1224
        NU32_WriteUART3(kdp_gain);
9d0067f4:	0f402e0d 	jal	9d00b834 <NU32_WriteUART3>
9d0067f8:	27a400e0 	addiu	a0,sp,224
    NU32_ReadUART3(buffer,BUF_SIZE); // we expect the next character to be a menu command
9d0067fc:	1000009d 	b	9d006a74 <main+0x608>
9d006800:	240500c8 	li	a1,200
        set_operating_mode(ITEST);
9d006804:	0f404042 	jal	9d010108 <set_operating_mode>
9d006808:	24040002 	li	a0,2
        while(get_operating_mode() == ITEST){}
9d00680c:	24110002 	li	s1,2
9d006810:	0f404045 	jal	9d010114 <get_operating_mode>
9d006814:	00000000 	nop
9d006818:	1051fffd 	beq	v0,s1,9d006810 <main+0x3a4>
9d00681c:	00000000 	nop
        ITEST_print();
9d006820:	0f401148 	jal	9d004520 <ITEST_print>
9d006824:	00000000 	nop
        break;
9d006828:	10000092 	b	9d006a74 <main+0x608>
9d00682c:	240500c8 	li	a1,200
        NU32_ReadUART3(deg, sizeof(deg));
9d006830:	24050032 	li	a1,50
9d006834:	0f402df6 	jal	9d00b7d8 <NU32_ReadUART3>
9d006838:	27a400e0 	addiu	a0,sp,224
        sscanf(deg, "%f", &pdeg);
9d00683c:	27a604c8 	addiu	a2,sp,1224
9d006840:	3c059d00 	lui	a1,0x9d00
9d006844:	24a51ea8 	addiu	a1,a1,7848
9d006848:	0f403f49 	jal	9d00fd24 <_dsscanf_cdeEfFgGnopuxX>
9d00684c:	27a400e0 	addiu	a0,sp,224
        set_angle(pdeg);
9d006850:	0f401c0a 	jal	9d007028 <set_angle>
9d006854:	8fa404c8 	lw	a0,1224(sp)
        set_operating_mode(HOLD);
9d006858:	0f404042 	jal	9d010108 <set_operating_mode>
9d00685c:	24040003 	li	a0,3
    NU32_ReadUART3(buffer,BUF_SIZE); // we expect the next character to be a menu command
9d006860:	10000084 	b	9d006a74 <main+0x608>
9d006864:	240500c8 	li	a1,200
        NU32_ReadUART3(ref_len, sizeof(ref_len));
9d006868:	24050014 	li	a1,20
9d00686c:	0f402df6 	jal	9d00b7d8 <NU32_ReadUART3>
9d006870:	27a404c8 	addiu	a0,sp,1224
        sscanf(ref_len, "%d", &j);
9d006874:	27a60590 	addiu	a2,sp,1424
9d006878:	3c059d00 	lui	a1,0x9d00
9d00687c:	24a51e90 	addiu	a1,a1,7824
9d006880:	0f403f49 	jal	9d00fd24 <_dsscanf_cdeEfFgGnopuxX>
9d006884:	27a404c8 	addiu	a0,sp,1224
        for (int i = 0; i<j; i++){
9d006888:	8fa20590 	lw	v0,1424(sp)
9d00688c:	58400078 	blezl	v0,9d006a70 <main+0x604>
9d006890:	af82806c 	sw	v0,-32660(gp)
9d006894:	3c11a000 	lui	s1,0xa000
9d006898:	263100c4 	addiu	s1,s1,196
9d00689c:	0000a025 	move	s4,zero
          sscanf(the_big_kahuna, "%f", &temp);
9d0068a0:	3c1e9d00 	lui	s8,0x9d00
9d0068a4:	27de1ea8 	addiu	s8,s8,7848
          NU32_ReadUART3(the_big_kahuna, sizeof(the_big_kahuna));
9d0068a8:	240503e8 	li	a1,1000
9d0068ac:	0f402df6 	jal	9d00b7d8 <NU32_ReadUART3>
9d0068b0:	27a400e0 	addiu	a0,sp,224
          sscanf(the_big_kahuna, "%f", &temp);
9d0068b4:	27a6052c 	addiu	a2,sp,1324
9d0068b8:	03c02825 	move	a1,s8
9d0068bc:	0f403f49 	jal	9d00fd24 <_dsscanf_cdeEfFgGnopuxX>
9d0068c0:	27a400e0 	addiu	a0,sp,224
          TRACKArray[i] = temp;
9d0068c4:	8fa2052c 	lw	v0,1324(sp)
9d0068c8:	ae220000 	sw	v0,0(s1)
        for (int i = 0; i<j; i++){
9d0068cc:	26940001 	addiu	s4,s4,1
9d0068d0:	8fa20590 	lw	v0,1424(sp)
9d0068d4:	0282182a 	slt	v1,s4,v0
9d0068d8:	1460fff3 	bnez	v1,9d0068a8 <main+0x43c>
9d0068dc:	26310004 	addiu	s1,s1,4
        array_length = j;
9d0068e0:	10000063 	b	9d006a70 <main+0x604>
9d0068e4:	af82806c 	sw	v0,-32660(gp)
        NU32_ReadUART3(ref_len, sizeof(ref_len));
9d0068e8:	24050014 	li	a1,20
9d0068ec:	0f402df6 	jal	9d00b7d8 <NU32_ReadUART3>
9d0068f0:	27a404c8 	addiu	a0,sp,1224
        sscanf(ref_len, "%d", &p);
9d0068f4:	27a60590 	addiu	a2,sp,1424
9d0068f8:	3c059d00 	lui	a1,0x9d00
9d0068fc:	24a51e90 	addiu	a1,a1,7824
9d006900:	0f403f49 	jal	9d00fd24 <_dsscanf_cdeEfFgGnopuxX>
9d006904:	27a404c8 	addiu	a0,sp,1224
        for (int i = 0; i<p; i++){
9d006908:	8fa20590 	lw	v0,1424(sp)
9d00690c:	58400058 	blezl	v0,9d006a70 <main+0x604>
9d006910:	af82806c 	sw	v0,-32660(gp)
9d006914:	3c11a000 	lui	s1,0xa000
9d006918:	263100c4 	addiu	s1,s1,196
9d00691c:	0000a025 	move	s4,zero
          sscanf(the_big_kalua, "%f", &temp);
9d006920:	3c1e9d00 	lui	s8,0x9d00
9d006924:	27de1ea8 	addiu	s8,s8,7848
          NU32_ReadUART3(the_big_kalua, sizeof(the_big_kalua));
9d006928:	240503e8 	li	a1,1000
9d00692c:	0f402df6 	jal	9d00b7d8 <NU32_ReadUART3>
9d006930:	27a400e0 	addiu	a0,sp,224
          sscanf(the_big_kalua, "%f", &temp);
9d006934:	27a6052c 	addiu	a2,sp,1324
9d006938:	03c02825 	move	a1,s8
9d00693c:	0f403f49 	jal	9d00fd24 <_dsscanf_cdeEfFgGnopuxX>
9d006940:	27a400e0 	addiu	a0,sp,224
          TRACKArray[i] = temp;
9d006944:	8fa2052c 	lw	v0,1324(sp)
9d006948:	ae220000 	sw	v0,0(s1)
        for (int i = 0; i<p; i++){
9d00694c:	26940001 	addiu	s4,s4,1
9d006950:	8fa20590 	lw	v0,1424(sp)
9d006954:	0282182a 	slt	v1,s4,v0
9d006958:	1460fff3 	bnez	v1,9d006928 <main+0x4bc>
9d00695c:	26310004 	addiu	s1,s1,4
        array_length = p;
9d006960:	10000043 	b	9d006a70 <main+0x604>
9d006964:	af82806c 	sw	v0,-32660(gp)
        set_operating_mode(TRACK);
9d006968:	0f404042 	jal	9d010108 <set_operating_mode>
9d00696c:	24040004 	li	a0,4
        while(get_operating_mode() == TRACK){}
9d006970:	24110004 	li	s1,4
9d006974:	0f404045 	jal	9d010114 <get_operating_mode>
9d006978:	00000000 	nop
9d00697c:	1051fffd 	beq	v0,s1,9d006974 <main+0x508>
9d006980:	00000000 	nop
        TRACK_print();
9d006984:	0f401c0d 	jal	9d007034 <TRACK_print>
9d006988:	00000000 	nop
        break;
9d00698c:	10000039 	b	9d006a74 <main+0x608>
9d006990:	240500c8 	li	a1,200
        set_operating_mode(IDLE);
9d006994:	0f404042 	jal	9d010108 <set_operating_mode>
9d006998:	00002025 	move	a0,zero
        break;
9d00699c:	10000035 	b	9d006a74 <main+0x608>
9d0069a0:	240500c8 	li	a1,200
        int mode = get_operating_mode();
9d0069a4:	0f404045 	jal	9d010114 <get_operating_mode>
9d0069a8:	00000000 	nop
        if(mode == IDLE){
9d0069ac:	1040000f 	beqz	v0,9d0069ec <main+0x580>
9d0069b0:	24030001 	li	v1,1
        else if(mode == PWM){
9d0069b4:	10430017 	beq	v0,v1,9d006a14 <main+0x5a8>
9d0069b8:	24030002 	li	v1,2
        else if(mode == ITEST){
9d0069bc:	1043001b 	beq	v0,v1,9d006a2c <main+0x5c0>
9d0069c0:	24030003 	li	v1,3
        else if(mode == HOLD){
9d0069c4:	1043001e 	beq	v0,v1,9d006a40 <main+0x5d4>
9d0069c8:	24030004 	li	v1,4
        else if(mode == TRACK){
9d0069cc:	1443000d 	bne	v0,v1,9d006a04 <main+0x598>
9d0069d0:	8fa20598 	lw	v0,1432(sp)
          sprintf(buffer, "TRACK\r\n");}
9d0069d4:	24421eb4 	addiu	v0,v0,7860
9d0069d8:	8c420004 	lw	v0,4(v0)
9d0069dc:	8fa3059c 	lw	v1,1436(sp)
9d0069e0:	afa30018 	sw	v1,24(sp)
9d0069e4:	10000007 	b	9d006a04 <main+0x598>
9d0069e8:	afa2001c 	sw	v0,28(sp)
          sprintf(buffer, "IDLE\r\n");}
9d0069ec:	3c02454c 	lui	v0,0x454c
9d0069f0:	24424449 	addiu	v0,v0,17481
9d0069f4:	afa20018 	sw	v0,24(sp)
9d0069f8:	24020a0d 	li	v0,2573
9d0069fc:	a7a2001c 	sh	v0,28(sp)
9d006a00:	a3a0001e 	sb	zero,30(sp)
        NU32_WriteUART3(buffer);
9d006a04:	0f402e0d 	jal	9d00b834 <NU32_WriteUART3>
9d006a08:	27a40018 	addiu	a0,sp,24
        break;
9d006a0c:	10000019 	b	9d006a74 <main+0x608>
9d006a10:	240500c8 	li	a1,200
          sprintf(buffer, "PWM\r\n");}
9d006a14:	3c020d4d 	lui	v0,0xd4d
9d006a18:	24425750 	addiu	v0,v0,22352
9d006a1c:	afa20018 	sw	v0,24(sp)
9d006a20:	2402000a 	li	v0,10
9d006a24:	1000fff7 	b	9d006a04 <main+0x598>
9d006a28:	a7a2001c 	sh	v0,28(sp)
          sprintf(buffer, "ITEST\r\n");}
9d006a2c:	26c21eac 	addiu	v0,s6,7852
9d006a30:	8c420004 	lw	v0,4(v0)
9d006a34:	afb70018 	sw	s7,24(sp)
9d006a38:	1000fff2 	b	9d006a04 <main+0x598>
9d006a3c:	afa2001c 	sw	v0,28(sp)
          sprintf(buffer, "HOLD\r\n");}
9d006a40:	3c02444c 	lui	v0,0x444c
9d006a44:	24424f48 	addiu	v0,v0,20296
9d006a48:	afa20018 	sw	v0,24(sp)
9d006a4c:	24020a0d 	li	v0,2573
9d006a50:	a7a2001c 	sh	v0,28(sp)
9d006a54:	1000ffeb 	b	9d006a04 <main+0x598>
9d006a58:	a3a0001e 	sb	zero,30(sp)
      }
      case 'q':
      {
        set_operating_mode(IDLE);
9d006a5c:	0f404042 	jal	9d010108 <set_operating_mode>
9d006a60:	00002025 	move	a0,zero
      }
      default:
      {
        NU32_LED2 = 0;  // turn on LED2 to indicate an error
9d006a64:	92026160 	lbu	v0,24928(s0)
9d006a68:	7c020844 	ins	v0,zero,0x1,0x1
9d006a6c:	a2026160 	sb	v0,24928(s0)
    NU32_ReadUART3(buffer,BUF_SIZE); // we expect the next character to be a menu command
9d006a70:	240500c8 	li	a1,200
9d006a74:	0f402df6 	jal	9d00b7d8 <NU32_ReadUART3>
9d006a78:	27a40018 	addiu	a0,sp,24
    NU32_LED2 = 1;                   // clear the error LED
9d006a7c:	92026160 	lbu	v0,24928(s0)
9d006a80:	24030001 	li	v1,1
9d006a84:	7c620844 	ins	v0,v1,0x1,0x1
9d006a88:	a2026160 	sb	v0,24928(s0)
    switch (buffer[0]) {
9d006a8c:	93a20018 	lbu	v0,24(sp)
9d006a90:	2442ff9e 	addiu	v0,v0,-98
9d006a94:	304300ff 	andi	v1,v0,0xff
9d006a98:	2c630011 	sltiu	v1,v1,17
9d006a9c:	1060fff1 	beqz	v1,9d006a64 <main+0x5f8>
9d006aa0:	304200ff 	andi	v0,v0,0xff
9d006aa4:	00021080 	sll	v0,v0,0x2
9d006aa8:	26a36abc 	addiu	v1,s5,27324
9d006aac:	00621021 	addu	v0,v1,v0
9d006ab0:	8c420000 	lw	v0,0(v0)
9d006ab4:	00400008 	jr	v0
9d006ab8:	00000000 	nop

9d006abc <__jump_main_5>:
9d006abc:	9d006518 9d0065ec 9d006550 9d00663c     .e...e..Pe..<f..
9d006acc:	9d006650 9d00668c 9d0066c4 9d00672c     Pf...f...f..,g..
9d006adc:	9d006770 9d006804 9d006830 9d006868     pg...h..0h..hh..
9d006aec:	9d0068e8 9d006968 9d006994 9d006a5c     .h..hi...i..\j..
9d006afc:	9d0069a4                                .i..

9d006b00 <PController>:


float TRACKArray[10000];
int array_length;

void __ISR(_TIMER_4_VECTOR, IPL5SOFT) PController(void){
9d006b00:	415de800 	rdpgpr	sp,sp
9d006b04:	401a7000 	mfc0	k0,c0_epc
9d006b08:	401b6000 	mfc0	k1,c0_status
9d006b0c:	27bdff78 	addiu	sp,sp,-136
9d006b10:	afba0084 	sw	k0,132(sp)
9d006b14:	401a6002 	mfc0	k0,c0_srsctl
9d006b18:	afbb0080 	sw	k1,128(sp)
9d006b1c:	afba007c 	sw	k0,124(sp)
9d006b20:	7c1b7844 	ins	k1,zero,0x1,0xf
9d006b24:	377b1400 	ori	k1,k1,0x1400
9d006b28:	409b6000 	mtc0	k1,c0_status
9d006b2c:	afbf006c 	sw	ra,108(sp)
9d006b30:	afb90068 	sw	t9,104(sp)
9d006b34:	afb80064 	sw	t8,100(sp)
9d006b38:	afb50060 	sw	s5,96(sp)
9d006b3c:	afb4005c 	sw	s4,92(sp)
9d006b40:	afb30058 	sw	s3,88(sp)
9d006b44:	afb20054 	sw	s2,84(sp)
9d006b48:	afb10050 	sw	s1,80(sp)
9d006b4c:	afb0004c 	sw	s0,76(sp)
9d006b50:	afaf0048 	sw	t7,72(sp)
9d006b54:	afae0044 	sw	t6,68(sp)
9d006b58:	afad0040 	sw	t5,64(sp)
9d006b5c:	afac003c 	sw	t4,60(sp)
9d006b60:	afab0038 	sw	t3,56(sp)
9d006b64:	afaa0034 	sw	t2,52(sp)
9d006b68:	afa90030 	sw	t1,48(sp)
9d006b6c:	afa8002c 	sw	t0,44(sp)
9d006b70:	afa70028 	sw	a3,40(sp)
9d006b74:	afa60024 	sw	a2,36(sp)
9d006b78:	afa50020 	sw	a1,32(sp)
9d006b7c:	afa4001c 	sw	a0,28(sp)
9d006b80:	afa30018 	sw	v1,24(sp)
9d006b84:	afa20014 	sw	v0,20(sp)
9d006b88:	afa10010 	sw	at,16(sp)
9d006b8c:	00001012 	mflo	v0
9d006b90:	afa20074 	sw	v0,116(sp)
9d006b94:	00001810 	mfhi	v1
9d006b98:	afa30070 	sw	v1,112(sp)
    static float e = 0, refp = 0;
    static int cp, curr_p;
    static float cpdeg = 0, curr_pdeg = 0; 
    static float edot; static float des_current = 0;

    mode = get_operating_mode();
9d006b9c:	0f404045 	jal	9d010114 <get_operating_mode>
9d006ba0:	00000000 	nop
    switch (mode){
9d006ba4:	24030003 	li	v1,3
9d006ba8:	1043002e 	beq	v0,v1,9d006c64 <PController+0x164>
9d006bac:	24030004 	li	v1,4
9d006bb0:	10430084 	beq	v0,v1,9d006dc4 <PController+0x2c4>
9d006bb4:	8f82804c 	lw	v0,-32692(gp)
                counter = 0;
            }
            break;
        }
    }
    IFS0bits.T4IF = 0;
9d006bb8:	3c02bf88 	lui	v0,0xbf88
9d006bbc:	8c431030 	lw	v1,4144(v0)
9d006bc0:	7c038404 	ins	v1,zero,0x10,0x1
9d006bc4:	ac431030 	sw	v1,4144(v0)
}
9d006bc8:	8fa20074 	lw	v0,116(sp)
9d006bcc:	00400013 	mtlo	v0
9d006bd0:	8fa30070 	lw	v1,112(sp)
9d006bd4:	00600011 	mthi	v1
9d006bd8:	8fbf006c 	lw	ra,108(sp)
9d006bdc:	8fb90068 	lw	t9,104(sp)
9d006be0:	8fb80064 	lw	t8,100(sp)
9d006be4:	8fb50060 	lw	s5,96(sp)
9d006be8:	8fb4005c 	lw	s4,92(sp)
9d006bec:	8fb30058 	lw	s3,88(sp)
9d006bf0:	8fb20054 	lw	s2,84(sp)
9d006bf4:	8fb10050 	lw	s1,80(sp)
9d006bf8:	8fb0004c 	lw	s0,76(sp)
9d006bfc:	8faf0048 	lw	t7,72(sp)
9d006c00:	8fae0044 	lw	t6,68(sp)
9d006c04:	8fad0040 	lw	t5,64(sp)
9d006c08:	8fac003c 	lw	t4,60(sp)
9d006c0c:	8fab0038 	lw	t3,56(sp)
9d006c10:	8faa0034 	lw	t2,52(sp)
9d006c14:	8fa90030 	lw	t1,48(sp)
9d006c18:	8fa8002c 	lw	t0,44(sp)
9d006c1c:	8fa70028 	lw	a3,40(sp)
9d006c20:	8fa60024 	lw	a2,36(sp)
9d006c24:	8fa50020 	lw	a1,32(sp)
9d006c28:	8fa4001c 	lw	a0,28(sp)
9d006c2c:	8fa30018 	lw	v1,24(sp)
9d006c30:	8fa20014 	lw	v0,20(sp)
9d006c34:	8fa10010 	lw	at,16(sp)
9d006c38:	41606000 	di
9d006c3c:	000000c0 	ehb
9d006c40:	8fba0084 	lw	k0,132(sp)
9d006c44:	8fbb0080 	lw	k1,128(sp)
9d006c48:	409a7000 	mtc0	k0,c0_epc
9d006c4c:	8fba007c 	lw	k0,124(sp)
9d006c50:	27bd0088 	addiu	sp,sp,136
9d006c54:	409a6002 	mtc0	k0,c0_srsctl
9d006c58:	41dde800 	wrpgpr	sp,sp
9d006c5c:	409b6000 	mtc0	k1,c0_status
9d006c60:	42000018 	eret
            WriteUART2("a"); // asks Pico for position
9d006c64:	3c049d00 	lui	a0,0x9d00
9d006c68:	0f4027ef 	jal	9d009fbc <WriteUART2>
9d006c6c:	24841ed0 	addiu	a0,a0,7888
            while(!get_encoder_flag()){} // wait for new position while flag is 0
9d006c70:	0f402789 	jal	9d009e24 <get_encoder_flag>
9d006c74:	00000000 	nop
9d006c78:	1040fffd 	beqz	v0,9d006c70 <PController+0x170>
9d006c7c:	00000000 	nop
            set_encoder_flag(0);
9d006c80:	0f40278c 	jal	9d009e30 <set_encoder_flag>
9d006c84:	00002025 	move	a0,zero
            cp = get_encoder_count();
9d006c88:	0f40278f 	jal	9d009e3c <get_encoder_count>
9d006c8c:	00000000 	nop
9d006c90:	00409025 	move	s2,v0
            float eint_max = 49999/kip;
9d006c94:	8f858060 	lw	a1,-32672(gp)
9d006c98:	3c029d00 	lui	v0,0x9d00
9d006c9c:	0f402ac9 	jal	9d00ab24 <__divsf3>
9d006ca0:	8c441ee4 	lw	a0,7908(v0)
9d006ca4:	00408825 	move	s1,v0
            e = pos_des - cpdeg;
9d006ca8:	8f90805c 	lw	s0,-32676(gp)
            cpdeg = cp/(4.0*334.0) * 360.0;
9d006cac:	0f403aee 	jal	9d00ebb8 <__floatsidf>
9d006cb0:	02402025 	move	a0,s2
9d006cb4:	3c049d00 	lui	a0,0x9d00
9d006cb8:	8c861ee8 	lw	a2,7912(a0)
9d006cbc:	8c871eec 	lw	a3,7916(a0)
9d006cc0:	00402025 	move	a0,v0
9d006cc4:	0f401da9 	jal	9d0076a4 <__divdf3>
9d006cc8:	00602825 	move	a1,v1
9d006ccc:	3c049d00 	lui	a0,0x9d00
9d006cd0:	8c861ef0 	lw	a2,7920(a0)
9d006cd4:	8c871ef4 	lw	a3,7924(a0)
9d006cd8:	00402025 	move	a0,v0
9d006cdc:	0f402611 	jal	9d009844 <__muldf3>
9d006ce0:	00602825 	move	a1,v1
9d006ce4:	00402025 	move	a0,v0
9d006ce8:	0f4034cd 	jal	9d00d334 <__truncdfsf2>
9d006cec:	00602825 	move	a1,v1
            e = pos_des - cpdeg;
9d006cf0:	00402825 	move	a1,v0
9d006cf4:	0f402a2b 	jal	9d00a8ac <__subsf3>
9d006cf8:	02002025 	move	a0,s0
9d006cfc:	00408025 	move	s0,v0
9d006d00:	af828050 	sw	v0,-32688(gp)
            eint = eint + e;
9d006d04:	8f858058 	lw	a1,-32680(gp)
9d006d08:	0f402a2d 	jal	9d00a8b4 <__addsf3>
9d006d0c:	00402025 	move	a0,v0
9d006d10:	af828058 	sw	v0,-32680(gp)
            if (eint > eint_max){
9d006d14:	8f848058 	lw	a0,-32680(gp)
9d006d18:	0f40389c 	jal	9d00e270 <__eqsf2>
9d006d1c:	02202825 	move	a1,s1
9d006d20:	58400020 	blezl	v0,9d006da4 <PController+0x2a4>
9d006d24:	3c028000 	lui	v0,0x8000
                eint = eint_max;
9d006d28:	af918058 	sw	s1,-32680(gp)
            edot = e - eprev;
9d006d2c:	8f938054 	lw	s3,-32684(gp)
            des_current = kpp*e + kip*eint + kdp*edot;
9d006d30:	8f858014 	lw	a1,-32748(gp)
9d006d34:	8f948060 	lw	s4,-32672(gp)
9d006d38:	8f958058 	lw	s5,-32680(gp)
9d006d3c:	8f928010 	lw	s2,-32752(gp)
9d006d40:	0f402cd6 	jal	9d00b358 <__mulsf3>
9d006d44:	02002025 	move	a0,s0
9d006d48:	00408825 	move	s1,v0
9d006d4c:	02a02825 	move	a1,s5
9d006d50:	0f402cd6 	jal	9d00b358 <__mulsf3>
9d006d54:	02802025 	move	a0,s4
9d006d58:	00402825 	move	a1,v0
9d006d5c:	0f402a2d 	jal	9d00a8b4 <__addsf3>
9d006d60:	02202025 	move	a0,s1
9d006d64:	00408825 	move	s1,v0
            edot = e - eprev;
9d006d68:	02602825 	move	a1,s3
9d006d6c:	0f402a2b 	jal	9d00a8ac <__subsf3>
9d006d70:	02002025 	move	a0,s0
            des_current = kpp*e + kip*eint + kdp*edot;
9d006d74:	02402825 	move	a1,s2
9d006d78:	0f402cd6 	jal	9d00b358 <__mulsf3>
9d006d7c:	00402025 	move	a0,v0
9d006d80:	00402825 	move	a1,v0
9d006d84:	0f402a2d 	jal	9d00a8b4 <__addsf3>
9d006d88:	02202025 	move	a0,s1
            set_des_current(des_current);
9d006d8c:	0f401145 	jal	9d004514 <set_des_current>
9d006d90:	00402025 	move	a0,v0
            eprev = e;
9d006d94:	8f828050 	lw	v0,-32688(gp)
9d006d98:	af828054 	sw	v0,-32684(gp)
            break;
9d006d9c:	1000ff87 	b	9d006bbc <PController+0xbc>
9d006da0:	3c02bf88 	lui	v0,0xbf88
            } else if (eint < -1*eint_max){
9d006da4:	02228826 	xor	s1,s1,v0
9d006da8:	8f858058 	lw	a1,-32680(gp)
9d006dac:	0f40389c 	jal	9d00e270 <__eqsf2>
9d006db0:	02202025 	move	a0,s1
9d006db4:	5c40ffdd 	bgtzl	v0,9d006d2c <PController+0x22c>
9d006db8:	af918058 	sw	s1,-32680(gp)
                eint = -1*eint_max;
9d006dbc:	1000ffdb 	b	9d006d2c <PController+0x22c>
9d006dc0:	00000000 	nop
            refp = TRACKArray[counter];
9d006dc4:	00021080 	sll	v0,v0,0x2
9d006dc8:	3c03a000 	lui	v1,0xa000
9d006dcc:	246300c4 	addiu	v1,v1,196
9d006dd0:	00431021 	addu	v0,v0,v1
9d006dd4:	8c420000 	lw	v0,0(v0)
9d006dd8:	af828048 	sw	v0,-32696(gp)
            WriteUART2("a"); // asks Pico for position
9d006ddc:	3c049d00 	lui	a0,0x9d00
9d006de0:	0f4027ef 	jal	9d009fbc <WriteUART2>
9d006de4:	24841ed0 	addiu	a0,a0,7888
            while(!get_encoder_flag()){} // wait for new position while flag is 0
9d006de8:	0f402789 	jal	9d009e24 <get_encoder_flag>
9d006dec:	00000000 	nop
9d006df0:	1040fffd 	beqz	v0,9d006de8 <PController+0x2e8>
9d006df4:	00000000 	nop
            set_encoder_flag(0);
9d006df8:	0f40278c 	jal	9d009e30 <set_encoder_flag>
9d006dfc:	00002025 	move	a0,zero
            curr_p = get_encoder_count();
9d006e00:	0f40278f 	jal	9d009e3c <get_encoder_count>
9d006e04:	00000000 	nop
            curr_pdeg = curr_p/(4.0*334.0) * 360.0;
9d006e08:	0f403aee 	jal	9d00ebb8 <__floatsidf>
9d006e0c:	00402025 	move	a0,v0
9d006e10:	3c049d00 	lui	a0,0x9d00
9d006e14:	8c861ee8 	lw	a2,7912(a0)
9d006e18:	8c871eec 	lw	a3,7916(a0)
9d006e1c:	00402025 	move	a0,v0
9d006e20:	0f401da9 	jal	9d0076a4 <__divdf3>
9d006e24:	00602825 	move	a1,v1
9d006e28:	3c049d00 	lui	a0,0x9d00
9d006e2c:	8c861ef0 	lw	a2,7920(a0)
9d006e30:	8c871ef4 	lw	a3,7924(a0)
9d006e34:	00402025 	move	a0,v0
9d006e38:	0f402611 	jal	9d009844 <__muldf3>
9d006e3c:	00602825 	move	a1,v1
9d006e40:	00402025 	move	a0,v0
9d006e44:	0f4034cd 	jal	9d00d334 <__truncdfsf2>
9d006e48:	00602825 	move	a1,v1
            REALArray[counter] = curr_pdeg;
9d006e4c:	8f83804c 	lw	v1,-32692(gp)
9d006e50:	00031880 	sll	v1,v1,0x2
9d006e54:	3c04a001 	lui	a0,0xa001
9d006e58:	24849d04 	addiu	a0,a0,-25340
9d006e5c:	00641821 	addu	v1,v1,a0
9d006e60:	ac620000 	sw	v0,0(v1)
            e = refp - curr_pdeg;
9d006e64:	00402825 	move	a1,v0
9d006e68:	0f402a2b 	jal	9d00a8ac <__subsf3>
9d006e6c:	8f848048 	lw	a0,-32696(gp)
9d006e70:	00408025 	move	s0,v0
9d006e74:	af828050 	sw	v0,-32688(gp)
            eint = eint + e;
9d006e78:	8f858058 	lw	a1,-32680(gp)
9d006e7c:	0f402a2d 	jal	9d00a8b4 <__addsf3>
9d006e80:	00402025 	move	a0,v0
9d006e84:	af828058 	sw	v0,-32680(gp)
            edot = e - eprev;
9d006e88:	8f938054 	lw	s3,-32684(gp)
            des_current = kpp*e + kip*eint + kdp*edot;
9d006e8c:	8f858014 	lw	a1,-32748(gp)
9d006e90:	8f948060 	lw	s4,-32672(gp)
9d006e94:	8f958058 	lw	s5,-32680(gp)
9d006e98:	8f928010 	lw	s2,-32752(gp)
9d006e9c:	0f402cd6 	jal	9d00b358 <__mulsf3>
9d006ea0:	02002025 	move	a0,s0
9d006ea4:	00408825 	move	s1,v0
9d006ea8:	02a02825 	move	a1,s5
9d006eac:	0f402cd6 	jal	9d00b358 <__mulsf3>
9d006eb0:	02802025 	move	a0,s4
9d006eb4:	00402825 	move	a1,v0
9d006eb8:	0f402a2d 	jal	9d00a8b4 <__addsf3>
9d006ebc:	02202025 	move	a0,s1
9d006ec0:	00408825 	move	s1,v0
            edot = e - eprev;
9d006ec4:	02602825 	move	a1,s3
9d006ec8:	0f402a2b 	jal	9d00a8ac <__subsf3>
9d006ecc:	02002025 	move	a0,s0
            des_current = kpp*e + kip*eint + kdp*edot;
9d006ed0:	02402825 	move	a1,s2
9d006ed4:	0f402cd6 	jal	9d00b358 <__mulsf3>
9d006ed8:	00402025 	move	a0,v0
9d006edc:	00402825 	move	a1,v0
9d006ee0:	0f402a2d 	jal	9d00a8b4 <__addsf3>
9d006ee4:	02202025 	move	a0,s1
            set_des_current(des_current);
9d006ee8:	0f401145 	jal	9d004514 <set_des_current>
9d006eec:	00402025 	move	a0,v0
            eprev = e;
9d006ef0:	8f828050 	lw	v0,-32688(gp)
9d006ef4:	af828054 	sw	v0,-32684(gp)
            if (counter < (array_length-1)){
9d006ef8:	8f83806c 	lw	v1,-32660(gp)
9d006efc:	2463ffff 	addiu	v1,v1,-1
9d006f00:	8f82804c 	lw	v0,-32692(gp)
9d006f04:	0043202a 	slt	a0,v0,v1
9d006f08:	10800004 	beqz	a0,9d006f1c <PController+0x41c>
9d006f0c:	00000000 	nop
                counter++;
9d006f10:	24420001 	addiu	v0,v0,1
9d006f14:	1000ff28 	b	9d006bb8 <PController+0xb8>
9d006f18:	af82804c 	sw	v0,-32692(gp)
            else if (counter == array_length-1){
9d006f1c:	5462ff27 	bnel	v1,v0,9d006bbc <PController+0xbc>
9d006f20:	3c02bf88 	lui	v0,0xbf88
                pos_des = TRACKArray[counter];
9d006f24:	00021080 	sll	v0,v0,0x2
9d006f28:	3c03a000 	lui	v1,0xa000
9d006f2c:	246300c4 	addiu	v1,v1,196
9d006f30:	00431021 	addu	v0,v0,v1
9d006f34:	8c420000 	lw	v0,0(v0)
9d006f38:	af82805c 	sw	v0,-32676(gp)
                set_operating_mode(HOLD);
9d006f3c:	0f404042 	jal	9d010108 <set_operating_mode>
9d006f40:	24040003 	li	a0,3
                counter = 0;
9d006f44:	1000ff1c 	b	9d006bb8 <PController+0xb8>
9d006f48:	af80804c 	sw	zero,-32692(gp)

9d006f4c <PositionControl_Startup>:



void PositionControl_Startup(){
9d006f4c:	27bdfff8 	addiu	sp,sp,-8
9d006f50:	afbf0004 	sw	ra,4(sp)
    __builtin_disable_interrupts();
9d006f54:	41626000 	di	v0
9d006f58:	000000c0 	ehb

    //Timer4 for 200Hz ISR
    T4CONbits.TCKPS = 3;            // Prescalar of 8
9d006f5c:	3c02bf80 	lui	v0,0xbf80
9d006f60:	94430c00 	lhu	v1,3072(v0)
9d006f64:	24040003 	li	a0,3
9d006f68:	7c833104 	ins	v1,a0,0x4,0x3
9d006f6c:	a4430c00 	sh	v1,3072(v0)
    PR4 = 49999;
9d006f70:	3c03bf80 	lui	v1,0xbf80
9d006f74:	3404c34f 	li	a0,0xc34f
9d006f78:	ac640c20 	sw	a0,3104(v1)
    TMR4 = 0;
9d006f7c:	3c03bf80 	lui	v1,0xbf80
9d006f80:	ac600c10 	sw	zero,3088(v1)
    T4CONbits.TGATE = 0;            //             not gated input (the default)
9d006f84:	94430c00 	lhu	v1,3072(v0)
9d006f88:	7c0339c4 	ins	v1,zero,0x7,0x1
9d006f8c:	a4430c00 	sh	v1,3072(v0)
    IPC4bits.T4IP = 5;              // INT step 4: priority
9d006f90:	3c03bf88 	lui	v1,0xbf88
9d006f94:	8c6410d0 	lw	a0,4304(v1)
9d006f98:	24050005 	li	a1,5
9d006f9c:	7ca42084 	ins	a0,a1,0x2,0x3
9d006fa0:	ac6410d0 	sw	a0,4304(v1)
    IPC4bits.T4IS = 0;              //             subpriority
9d006fa4:	8c6410d0 	lw	a0,4304(v1)
9d006fa8:	7c040804 	ins	a0,zero,0x0,0x2
9d006fac:	ac6410d0 	sw	a0,4304(v1)
    IFS0bits.T4IF = 0;              // INT step 5: clear interrupt flag
9d006fb0:	3c03bf88 	lui	v1,0xbf88
9d006fb4:	8c641030 	lw	a0,4144(v1)
9d006fb8:	7c048404 	ins	a0,zero,0x10,0x1
9d006fbc:	ac641030 	sw	a0,4144(v1)
    IEC0bits.T4IE = 1;              // INT step 6: enable interrupt
9d006fc0:	3c03bf88 	lui	v1,0xbf88
9d006fc4:	8c651060 	lw	a1,4192(v1)
9d006fc8:	24040001 	li	a0,1
9d006fcc:	7c858404 	ins	a1,a0,0x10,0x1
9d006fd0:	ac651060 	sw	a1,4192(v1)


    T4CONbits.ON = 1;               // Turn on Timer4 (200 Hz ISR)
9d006fd4:	94430c00 	lhu	v1,3072(v0)
9d006fd8:	7c837bc4 	ins	v1,a0,0xf,0x1
9d006fdc:	a4430c00 	sh	v1,3072(v0)
    __builtin_enable_interrupts();
9d006fe0:	41626020 	ei	v0

}
9d006fe4:	8fbf0004 	lw	ra,4(sp)
9d006fe8:	03e00008 	jr	ra
9d006fec:	27bd0008 	addiu	sp,sp,8

9d006ff0 <set_position_gains>:


void set_position_gains(float kp_p, float ki_p, float kd_p){
    kpp = kp_p;
9d006ff0:	af848014 	sw	a0,-32748(gp)
    kip = ki_p;
9d006ff4:	af858060 	sw	a1,-32672(gp)
    kdp = kd_p;
9d006ff8:	af868010 	sw	a2,-32752(gp)
}
9d006ffc:	03e00008 	jr	ra
9d007000:	00000000 	nop

9d007004 <get_position_kp>:

float get_position_kp(){
    return kpp;
9d007004:	8f828014 	lw	v0,-32748(gp)
}
9d007008:	03e00008 	jr	ra
9d00700c:	00000000 	nop

9d007010 <get_position_ki>:

float get_position_ki(){
    return kip;
9d007010:	8f828060 	lw	v0,-32672(gp)
}
9d007014:	03e00008 	jr	ra
9d007018:	00000000 	nop

9d00701c <get_position_kd>:

float get_position_kd(){
    return kdp;
9d00701c:	8f828010 	lw	v0,-32752(gp)
}
9d007020:	03e00008 	jr	ra
9d007024:	00000000 	nop

9d007028 <set_angle>:

void set_angle(float pdes){
    pos_des = pdes; // IN DEGREES
9d007028:	af84805c 	sw	a0,-32676(gp)
}
9d00702c:	03e00008 	jr	ra
9d007030:	00000000 	nop

9d007034 <TRACK_print>:

void TRACK_print(){
9d007034:	27bdff80 	addiu	sp,sp,-128
9d007038:	afbf007c 	sw	ra,124(sp)
9d00703c:	afb60078 	sw	s6,120(sp)
9d007040:	afb50074 	sw	s5,116(sp)
9d007044:	afb40070 	sw	s4,112(sp)
9d007048:	afb3006c 	sw	s3,108(sp)
9d00704c:	afb20068 	sw	s2,104(sp)
9d007050:	afb10064 	sw	s1,100(sp)
9d007054:	afb00060 	sw	s0,96(sp)
    char m[50];
    char track_length[20];
    sprintf(track_length,"%d\r\n", array_length);
9d007058:	8f86806c 	lw	a2,-32660(gp)
9d00705c:	3c059d00 	lui	a1,0x9d00
9d007060:	24a51ed4 	addiu	a1,a1,7892
9d007064:	0f403f35 	jal	9d00fcd4 <_dsprintf_cdeEfFgGnopuxX>
9d007068:	27a4004c 	addiu	a0,sp,76
    NU32_WriteUART3(track_length);
9d00706c:	0f402e0d 	jal	9d00b834 <NU32_WriteUART3>
9d007070:	27a4004c 	addiu	a0,sp,76
    int i;
    for(i = 0; i<array_length; i++){
9d007074:	8f82806c 	lw	v0,-32660(gp)
9d007078:	1840001e 	blez	v0,9d0070f4 <TRACK_print+0xc0>
9d00707c:	3c11a000 	lui	s1,0xa000
9d007080:	263100c4 	addiu	s1,s1,196
9d007084:	00008025 	move	s0,zero
        sprintf(m,"%f %f\r\n", TRACKArray[i], REALArray[i]);
9d007088:	3c15a001 	lui	s5,0xa001
9d00708c:	26b59d04 	addiu	s5,s5,-25340
9d007090:	3c149d00 	lui	s4,0x9d00
9d007094:	26941edc 	addiu	s4,s4,7900
9d007098:	00101080 	sll	v0,s0,0x2
9d00709c:	00551021 	addu	v0,v0,s5
9d0070a0:	8c560000 	lw	s6,0(v0)
9d0070a4:	0f403779 	jal	9d00dde4 <__extendsfdf2>
9d0070a8:	8e240000 	lw	a0,0(s1)
9d0070ac:	00409025 	move	s2,v0
9d0070b0:	00609825 	move	s3,v1
9d0070b4:	0f403779 	jal	9d00dde4 <__extendsfdf2>
9d0070b8:	02c02025 	move	a0,s6
9d0070bc:	afa20010 	sw	v0,16(sp)
9d0070c0:	afa30014 	sw	v1,20(sp)
9d0070c4:	02403025 	move	a2,s2
9d0070c8:	02603825 	move	a3,s3
9d0070cc:	02802825 	move	a1,s4
9d0070d0:	0f403f35 	jal	9d00fcd4 <_dsprintf_cdeEfFgGnopuxX>
9d0070d4:	27a40018 	addiu	a0,sp,24
        NU32_WriteUART3(m);
9d0070d8:	0f402e0d 	jal	9d00b834 <NU32_WriteUART3>
9d0070dc:	27a40018 	addiu	a0,sp,24
    for(i = 0; i<array_length; i++){
9d0070e0:	26100001 	addiu	s0,s0,1
9d0070e4:	8f82806c 	lw	v0,-32660(gp)
9d0070e8:	0202102a 	slt	v0,s0,v0
9d0070ec:	1440ffea 	bnez	v0,9d007098 <TRACK_print+0x64>
9d0070f0:	26310004 	addiu	s1,s1,4
    }
9d0070f4:	8fbf007c 	lw	ra,124(sp)
9d0070f8:	8fb60078 	lw	s6,120(sp)
9d0070fc:	8fb50074 	lw	s5,116(sp)
9d007100:	8fb40070 	lw	s4,112(sp)
9d007104:	8fb3006c 	lw	s3,108(sp)
9d007108:	8fb20068 	lw	s2,104(sp)
9d00710c:	8fb10064 	lw	s1,100(sp)
9d007110:	8fb00060 	lw	s0,96(sp)
9d007114:	03e00008 	jr	ra
9d007118:	27bd0080 	addiu	sp,sp,128

Disassembly of section .text.__printf_core:

9d00711c <__printf_core>:
9d00711c:	27bdff18 	addiu	sp,sp,-232
9d007120:	afb500d8 	sw	s5,216(sp)
9d007124:	3c159d00 	lui	s5,0x9d00
9d007128:	afb600dc 	sw	s6,220(sp)
9d00712c:	afb400d4 	sw	s4,212(sp)
9d007130:	afb300d0 	sw	s3,208(sp)
9d007134:	afb200cc 	sw	s2,204(sp)
9d007138:	afb100c8 	sw	s1,200(sp)
9d00713c:	afbf00e4 	sw	ra,228(sp)
9d007140:	afb700e0 	sw	s7,224(sp)
9d007144:	afb000c4 	sw	s0,196(sp)
9d007148:	00809025 	move	s2,a0
9d00714c:	00c08825 	move	s1,a2
9d007150:	afa500b0 	sw	a1,176(sp)
9d007154:	00009825 	move	s3,zero
9d007158:	27b60010 	addiu	s6,sp,16
9d00715c:	24140025 	li	s4,37
9d007160:	26b51f28 	addiu	s5,s5,7976
9d007164:	8fa500b0 	lw	a1,176(sp)
9d007168:	80a20000 	lb	v0,0(a1)
9d00716c:	104000e5 	beqz	v0,9d007504 <__printf_core+0x3e8>
9d007170:	2402ffff 	li	v0,-1
9d007174:	afa20094 	sw	v0,148(sp)
9d007178:	24020080 	li	v0,128
9d00717c:	afa00090 	sw	zero,144(sp)
9d007180:	afa00098 	sw	zero,152(sp)
9d007184:	afb6009c 	sw	s6,156(sp)
9d007188:	afa200a0 	sw	v0,160(sp)
9d00718c:	00008025 	move	s0,zero
9d007190:	00b01021 	addu	v0,a1,s0
9d007194:	80420000 	lb	v0,0(v0)
9d007198:	10400003 	beqz	v0,9d0071a8 <__printf_core+0x8c>
9d00719c:	00000000 	nop
9d0071a0:	5454fffb 	bnel	v0,s4,9d007190 <__printf_core+0x74>
9d0071a4:	26100001 	addiu	s0,s0,1
9d0071a8:	12000008 	beqz	s0,9d0071cc <__printf_core+0xb0>
9d0071ac:	8fb700b0 	lw	s7,176(sp)
9d0071b0:	02003025 	move	a2,s0
9d0071b4:	0f4039a2 	jal	9d00e688 <__out>
9d0071b8:	02402025 	move	a0,s2
9d0071bc:	8fa200b0 	lw	v0,176(sp)
9d0071c0:	00501021 	addu	v0,v0,s0
9d0071c4:	afa200b0 	sw	v0,176(sp)
9d0071c8:	8fb700b0 	lw	s7,176(sp)
9d0071cc:	82e20000 	lb	v0,0(s7)
9d0071d0:	545400c5 	bnel	v0,s4,9d0074e8 <__printf_core+0x3cc>
9d0071d4:	02708021 	addu	s0,s3,s0
9d0071d8:	26f70001 	addiu	s7,s7,1
9d0071dc:	afb700b0 	sw	s7,176(sp)
9d0071e0:	2405002b 	li	a1,43
9d0071e4:	2406002d 	li	a2,45
9d0071e8:	24030030 	li	v1,48
9d0071ec:	24070020 	li	a3,32
9d0071f0:	24080023 	li	t0,35
9d0071f4:	8fa400b0 	lw	a0,176(sp)
9d0071f8:	80820000 	lb	v0,0(a0)
9d0071fc:	5045001b 	beql	v0,a1,9d00726c <__printf_core+0x150>
9d007200:	8fa20090 	lw	v0,144(sp)
9d007204:	2849002c 	slti	t1,v0,44
9d007208:	1120001e 	beqz	t1,9d007284 <__printf_core+0x168>
9d00720c:	00000000 	nop
9d007210:	50470018 	beql	v0,a3,9d007274 <__printf_core+0x158>
9d007214:	8fa20090 	lw	v0,144(sp)
9d007218:	50480018 	beql	v0,t0,9d00727c <__printf_core+0x160>
9d00721c:	8fa20090 	lw	v0,144(sp)
9d007220:	2403002a 	li	v1,42
9d007224:	5043001e 	beql	v0,v1,9d0072a0 <__printf_core+0x184>
9d007228:	8e220000 	lw	v0,0(s1)
9d00722c:	0f403a4f 	jal	9d00e93c <atoi>
9d007230:	00000000 	nop
9d007234:	afa20098 	sw	v0,152(sp)
9d007238:	8fa300b0 	lw	v1,176(sp)
9d00723c:	80620000 	lb	v0,0(v1)
9d007240:	2442ffd0 	addiu	v0,v0,-48
9d007244:	2c42000a 	sltiu	v0,v0,10
9d007248:	10400021 	beqz	v0,9d0072d0 <__printf_core+0x1b4>
9d00724c:	24630001 	addiu	v1,v1,1
9d007250:	1000fff9 	b	9d007238 <__printf_core+0x11c>
9d007254:	afa300b0 	sw	v1,176(sp)
9d007258:	34420001 	ori	v0,v0,0x1
9d00725c:	24840001 	addiu	a0,a0,1
9d007260:	afa20090 	sw	v0,144(sp)
9d007264:	1000ffe3 	b	9d0071f4 <__printf_core+0xd8>
9d007268:	afa400b0 	sw	a0,176(sp)
9d00726c:	1000fffb 	b	9d00725c <__printf_core+0x140>
9d007270:	34420004 	ori	v0,v0,0x4
9d007274:	1000fff9 	b	9d00725c <__printf_core+0x140>
9d007278:	34420008 	ori	v0,v0,0x8
9d00727c:	1000fff7 	b	9d00725c <__printf_core+0x140>
9d007280:	34420010 	ori	v0,v0,0x10
9d007284:	5046fff4 	beql	v0,a2,9d007258 <__printf_core+0x13c>
9d007288:	8fa20090 	lw	v0,144(sp)
9d00728c:	5443ffe5 	bnel	v0,v1,9d007224 <__printf_core+0x108>
9d007290:	2403002a 	li	v1,42
9d007294:	8fa20090 	lw	v0,144(sp)
9d007298:	1000fff0 	b	9d00725c <__printf_core+0x140>
9d00729c:	34420002 	ori	v0,v0,0x2
9d0072a0:	24840001 	addiu	a0,a0,1
9d0072a4:	afa400b0 	sw	a0,176(sp)
9d0072a8:	24430004 	addiu	v1,v0,4
9d0072ac:	8c420000 	lw	v0,0(v0)
9d0072b0:	ae230000 	sw	v1,0(s1)
9d0072b4:	04410006 	bgez	v0,9d0072d0 <__printf_core+0x1b4>
9d0072b8:	afa20098 	sw	v0,152(sp)
9d0072bc:	8fa30090 	lw	v1,144(sp)
9d0072c0:	00021023 	negu	v0,v0
9d0072c4:	afa20098 	sw	v0,152(sp)
9d0072c8:	38630001 	xori	v1,v1,0x1
9d0072cc:	afa30090 	sw	v1,144(sp)
9d0072d0:	8fa20090 	lw	v0,144(sp)
9d0072d4:	30430001 	andi	v1,v0,0x1
9d0072d8:	50600004 	beqzl	v1,9d0072ec <__printf_core+0x1d0>
9d0072dc:	8fa200b0 	lw	v0,176(sp)
9d0072e0:	7c020844 	ins	v0,zero,0x1,0x1
9d0072e4:	afa20090 	sw	v0,144(sp)
9d0072e8:	8fa200b0 	lw	v0,176(sp)
9d0072ec:	2403002e 	li	v1,46
9d0072f0:	80440000 	lb	a0,0(v0)
9d0072f4:	1483000d 	bne	a0,v1,9d00732c <__printf_core+0x210>
9d0072f8:	24440001 	addiu	a0,v0,1
9d0072fc:	afa00094 	sw	zero,148(sp)
9d007300:	afa400b0 	sw	a0,176(sp)
9d007304:	80450001 	lb	a1,1(v0)
9d007308:	2403002a 	li	v1,42
9d00730c:	14a30024 	bne	a1,v1,9d0073a0 <__printf_core+0x284>
9d007310:	24420002 	addiu	v0,v0,2
9d007314:	afa200b0 	sw	v0,176(sp)
9d007318:	8e220000 	lw	v0,0(s1)
9d00731c:	24430004 	addiu	v1,v0,4
9d007320:	8c420000 	lw	v0,0(v0)
9d007324:	ae230000 	sw	v1,0(s1)
9d007328:	afa20094 	sw	v0,148(sp)
9d00732c:	0f403c66 	jal	9d00f198 <__fmt_state>
9d007330:	27a400b0 	addiu	a0,sp,176
9d007334:	afa200b8 	sw	v0,184(sp)
9d007338:	8fa200b0 	lw	v0,176(sp)
9d00733c:	0f403fda 	jal	9d00ff68 <tolower>
9d007340:	80440000 	lb	a0,0(v0)
9d007344:	24030069 	li	v1,105
9d007348:	1043007a 	beq	v0,v1,9d007534 <__printf_core+0x418>
9d00734c:	8fa500b8 	lw	a1,184(sp)
9d007350:	2843006a 	slti	v1,v0,106
9d007354:	1060002f 	beqz	v1,9d007414 <__printf_core+0x2f8>
9d007358:	24030070 	li	v1,112
9d00735c:	24030063 	li	v1,99
9d007360:	104300bc 	beq	v0,v1,9d007654 <__printf_core+0x538>
9d007364:	28430064 	slti	v1,v0,100
9d007368:	10600018 	beqz	v1,9d0073cc <__printf_core+0x2b0>
9d00736c:	24030064 	li	v1,100
9d007370:	105400c5 	beq	v0,s4,9d007688 <__printf_core+0x56c>
9d007374:	24030061 	li	v1,97
9d007378:	5043004e 	beql	v0,v1,9d0074b4 <__printf_core+0x398>
9d00737c:	02203025 	move	a2,s1
9d007380:	24020025 	li	v0,37
9d007384:	a3a200a8 	sb	v0,168(sp)
9d007388:	2402ffff 	li	v0,-1
9d00738c:	afb700b0 	sw	s7,176(sp)
9d007390:	afa00090 	sw	zero,144(sp)
9d007394:	afa00098 	sw	zero,152(sp)
9d007398:	100000b8 	b	9d00767c <__printf_core+0x560>
9d00739c:	afa20094 	sw	v0,148(sp)
9d0073a0:	0f403a4f 	jal	9d00e93c <atoi>
9d0073a4:	00000000 	nop
9d0073a8:	afa20094 	sw	v0,148(sp)
9d0073ac:	8fa300b0 	lw	v1,176(sp)
9d0073b0:	80620000 	lb	v0,0(v1)
9d0073b4:	2442ffd0 	addiu	v0,v0,-48
9d0073b8:	2c42000a 	sltiu	v0,v0,10
9d0073bc:	1040ffdb 	beqz	v0,9d00732c <__printf_core+0x210>
9d0073c0:	24630001 	addiu	v1,v1,1
9d0073c4:	1000fff9 	b	9d0073ac <__printf_core+0x290>
9d0073c8:	afa300b0 	sw	v1,176(sp)
9d0073cc:	10430059 	beq	v0,v1,9d007534 <__printf_core+0x418>
9d0073d0:	28420068 	slti	v0,v0,104
9d0073d4:	1040ffeb 	beqz	v0,9d007384 <__printf_core+0x268>
9d0073d8:	24020025 	li	v0,37
9d0073dc:	02203025 	move	a2,s1
9d0073e0:	0f403d00 	jal	9d00f400 <__pop_float>
9d0073e4:	27a400a8 	addiu	a0,sp,168
9d0073e8:	10400097 	beqz	v0,9d007648 <__printf_core+0x52c>
9d0073ec:	8fa200b0 	lw	v0,176(sp)
9d0073f0:	27a600a8 	addiu	a2,sp,168
9d0073f4:	27a50090 	addiu	a1,sp,144
9d0073f8:	24430001 	addiu	v1,v0,1
9d0073fc:	afa300b0 	sw	v1,176(sp)
9d007400:	80470000 	lb	a3,0(v0)
9d007404:	0f40117e 	jal	9d0045f8 <__fmt_fp>
9d007408:	02402025 	move	a0,s2
9d00740c:	10000035 	b	9d0074e4 <__printf_core+0x3c8>
9d007410:	02028021 	addu	s0,s0,v0
9d007414:	10430072 	beq	v0,v1,9d0075e0 <__printf_core+0x4c4>
9d007418:	28430071 	slti	v1,v0,113
9d00741c:	10600014 	beqz	v1,9d007470 <__printf_core+0x354>
9d007420:	24030075 	li	v1,117
9d007424:	2403006e 	li	v1,110
9d007428:	10430082 	beq	v0,v1,9d007634 <__printf_core+0x518>
9d00742c:	2403006f 	li	v1,111
9d007430:	1443ffd4 	bne	v0,v1,9d007384 <__printf_core+0x268>
9d007434:	24020025 	li	v0,37
9d007438:	02203825 	move	a3,s1
9d00743c:	00003025 	move	a2,zero
9d007440:	0f402e83 	jal	9d00ba0c <__pop_int>
9d007444:	27a400a8 	addiu	a0,sp,168
9d007448:	1040007f 	beqz	v0,9d007648 <__printf_core+0x52c>
9d00744c:	8fa200b0 	lw	v0,176(sp)
9d007450:	27a600a8 	addiu	a2,sp,168
9d007454:	27a50090 	addiu	a1,sp,144
9d007458:	24420001 	addiu	v0,v0,1
9d00745c:	02402025 	move	a0,s2
9d007460:	0f40350d 	jal	9d00d434 <__fmt_o>
9d007464:	afa200b0 	sw	v0,176(sp)
9d007468:	1000001e 	b	9d0074e4 <__printf_core+0x3c8>
9d00746c:	02028021 	addu	s0,s0,v0
9d007470:	1043003e 	beq	v0,v1,9d00756c <__printf_core+0x450>
9d007474:	24030078 	li	v1,120
9d007478:	1043004a 	beq	v0,v1,9d0075a4 <__printf_core+0x488>
9d00747c:	24030073 	li	v1,115
9d007480:	1443ffc0 	bne	v0,v1,9d007384 <__printf_core+0x268>
9d007484:	24020025 	li	v0,37
9d007488:	24020080 	li	v0,128
9d00748c:	14a2006e 	bne	a1,v0,9d007648 <__printf_core+0x52c>
9d007490:	8fa200b0 	lw	v0,176(sp)
9d007494:	00003825 	move	a3,zero
9d007498:	24420001 	addiu	v0,v0,1
9d00749c:	afa200b0 	sw	v0,176(sp)
9d0074a0:	8e220000 	lw	v0,0(s1)
9d0074a4:	24430004 	addiu	v1,v0,4
9d0074a8:	ae230000 	sw	v1,0(s1)
9d0074ac:	1000005c 	b	9d007620 <__printf_core+0x504>
9d0074b0:	8c460000 	lw	a2,0(v0)
9d0074b4:	0f403d00 	jal	9d00f400 <__pop_float>
9d0074b8:	27a400a8 	addiu	a0,sp,168
9d0074bc:	10400062 	beqz	v0,9d007648 <__printf_core+0x52c>
9d0074c0:	8fa200b0 	lw	v0,176(sp)
9d0074c4:	27a600a8 	addiu	a2,sp,168
9d0074c8:	27a50090 	addiu	a1,sp,144
9d0074cc:	24430001 	addiu	v1,v0,1
9d0074d0:	afa300b0 	sw	v1,176(sp)
9d0074d4:	80470000 	lb	a3,0(v0)
9d0074d8:	0f404077 	jal	9d0101dc <__fmt_a>
9d0074dc:	02402025 	move	a0,s2
9d0074e0:	02028021 	addu	s0,s0,v0
9d0074e4:	02708021 	addu	s0,s3,s0
9d0074e8:	0213982a 	slt	s3,s0,s3
9d0074ec:	1260ff1d 	beqz	s3,9d007164 <__printf_core+0x48>
9d0074f0:	02009825 	move	s3,s0
9d0074f4:	3c02a001 	lui	v0,0xa001
9d0074f8:	2403004f 	li	v1,79
9d0074fc:	ac433fbc 	sw	v1,16316(v0)
9d007500:	2413ffff 	li	s3,-1
9d007504:	8fbf00e4 	lw	ra,228(sp)
9d007508:	02601025 	move	v0,s3
9d00750c:	8fb700e0 	lw	s7,224(sp)
9d007510:	8fb600dc 	lw	s6,220(sp)
9d007514:	8fb500d8 	lw	s5,216(sp)
9d007518:	8fb400d4 	lw	s4,212(sp)
9d00751c:	8fb300d0 	lw	s3,208(sp)
9d007520:	8fb200cc 	lw	s2,204(sp)
9d007524:	8fb100c8 	lw	s1,200(sp)
9d007528:	8fb000c4 	lw	s0,196(sp)
9d00752c:	03e00008 	jr	ra
9d007530:	27bd00e8 	addiu	sp,sp,232
9d007534:	02203825 	move	a3,s1
9d007538:	24060001 	li	a2,1
9d00753c:	0f402e83 	jal	9d00ba0c <__pop_int>
9d007540:	27a400a8 	addiu	a0,sp,168
9d007544:	10400040 	beqz	v0,9d007648 <__printf_core+0x52c>
9d007548:	8fa200b0 	lw	v0,176(sp)
9d00754c:	27a600a8 	addiu	a2,sp,168
9d007550:	27a50090 	addiu	a1,sp,144
9d007554:	24420001 	addiu	v0,v0,1
9d007558:	02402025 	move	a0,s2
9d00755c:	0f4030ab 	jal	9d00c2ac <__fmt_d>
9d007560:	afa200b0 	sw	v0,176(sp)
9d007564:	1000ffdf 	b	9d0074e4 <__printf_core+0x3c8>
9d007568:	02028021 	addu	s0,s0,v0
9d00756c:	02203825 	move	a3,s1
9d007570:	00003025 	move	a2,zero
9d007574:	0f402e83 	jal	9d00ba0c <__pop_int>
9d007578:	27a400a8 	addiu	a0,sp,168
9d00757c:	10400032 	beqz	v0,9d007648 <__printf_core+0x52c>
9d007580:	8fa200b0 	lw	v0,176(sp)
9d007584:	27a600a8 	addiu	a2,sp,168
9d007588:	27a50090 	addiu	a1,sp,144
9d00758c:	24420001 	addiu	v0,v0,1
9d007590:	02402025 	move	a0,s2
9d007594:	0f403698 	jal	9d00da60 <__fmt_u>
9d007598:	afa200b0 	sw	v0,176(sp)
9d00759c:	1000ffd1 	b	9d0074e4 <__printf_core+0x3c8>
9d0075a0:	02028021 	addu	s0,s0,v0
9d0075a4:	02203825 	move	a3,s1
9d0075a8:	00003025 	move	a2,zero
9d0075ac:	0f402e83 	jal	9d00ba0c <__pop_int>
9d0075b0:	27a400a8 	addiu	a0,sp,168
9d0075b4:	10400024 	beqz	v0,9d007648 <__printf_core+0x52c>
9d0075b8:	8fa200b0 	lw	v0,176(sp)
9d0075bc:	24430001 	addiu	v1,v0,1
9d0075c0:	afa300b0 	sw	v1,176(sp)
9d0075c4:	80470000 	lb	a3,0(v0)
9d0075c8:	27a600a8 	addiu	a2,sp,168
9d0075cc:	27a50090 	addiu	a1,sp,144
9d0075d0:	0f402b55 	jal	9d00ad54 <__fmt_x>
9d0075d4:	02402025 	move	a0,s2
9d0075d8:	1000ffc2 	b	9d0074e4 <__printf_core+0x3c8>
9d0075dc:	02028021 	addu	s0,s0,v0
9d0075e0:	02203825 	move	a3,s1
9d0075e4:	00003025 	move	a2,zero
9d0075e8:	240500f0 	li	a1,240
9d0075ec:	0f402e83 	jal	9d00ba0c <__pop_int>
9d0075f0:	27a400a8 	addiu	a0,sp,168
9d0075f4:	10400014 	beqz	v0,9d007648 <__printf_core+0x52c>
9d0075f8:	8fa200b0 	lw	v0,176(sp)
9d0075fc:	8fa300ac 	lw	v1,172(sp)
9d007600:	24420001 	addiu	v0,v0,1
9d007604:	afa200b0 	sw	v0,176(sp)
9d007608:	8fa200a8 	lw	v0,168(sp)
9d00760c:	00431025 	or	v0,v0,v1
9d007610:	1440ffed 	bnez	v0,9d0075c8 <__printf_core+0x4ac>
9d007614:	24070078 	li	a3,120
9d007618:	00003825 	move	a3,zero
9d00761c:	02a03025 	move	a2,s5
9d007620:	27a50090 	addiu	a1,sp,144
9d007624:	0f4037a4 	jal	9d00de90 <__fmt_s>
9d007628:	02402025 	move	a0,s2
9d00762c:	1000ffad 	b	9d0074e4 <__printf_core+0x3c8>
9d007630:	02028021 	addu	s0,s0,v0
9d007634:	02203825 	move	a3,s1
9d007638:	02703021 	addu	a2,s3,s0
9d00763c:	0f40358a 	jal	9d00d628 <__pop_ptr>
9d007640:	27a400a8 	addiu	a0,sp,168
9d007644:	8fa200b0 	lw	v0,176(sp)
9d007648:	24420001 	addiu	v0,v0,1
9d00764c:	1000ffa5 	b	9d0074e4 <__printf_core+0x3c8>
9d007650:	afa200b0 	sw	v0,176(sp)
9d007654:	24020080 	li	v0,128
9d007658:	14a2fffb 	bne	a1,v0,9d007648 <__printf_core+0x52c>
9d00765c:	8fa200b0 	lw	v0,176(sp)
9d007660:	24420001 	addiu	v0,v0,1
9d007664:	afa200b0 	sw	v0,176(sp)
9d007668:	8e220000 	lw	v0,0(s1)
9d00766c:	24430004 	addiu	v1,v0,4
9d007670:	8c420000 	lw	v0,0(v0)
9d007674:	ae230000 	sw	v1,0(s1)
9d007678:	a3a200a8 	sb	v0,168(sp)
9d00767c:	24070001 	li	a3,1
9d007680:	1000ffe7 	b	9d007620 <__printf_core+0x504>
9d007684:	27a600a8 	addiu	a2,sp,168
9d007688:	24020080 	li	v0,128
9d00768c:	14a2ffee 	bne	a1,v0,9d007648 <__printf_core+0x52c>
9d007690:	8fa200b0 	lw	v0,176(sp)
9d007694:	a3b400a8 	sb	s4,168(sp)
9d007698:	24420001 	addiu	v0,v0,1
9d00769c:	1000fff7 	b	9d00767c <__printf_core+0x560>
9d0076a0:	afa200b0 	sw	v0,176(sp)

Disassembly of section .text.dp32mul:

9d0076a4 <__divdf3>:
9d0076a4:	00055040 000a5542 00054ac0 00047d42     @P..BU...J..B}..
9d0076b4:	012f4825 000442c0 3c0e8000 012e4825     %H/..B.....<%H..
9d0076c4:	00076840 000d6d42 000762c0 00067d42     @h..Bm...b..B}..
9d0076d4:	018f6025 00065ac0 018e6025 00a72826     %`...Z..%`..&(..
9d0076e4:	00ae2824 254fffff 2de107fe 102000cb     $(....O%...-.. .
9d0076f4:	00000000                                ....

9d0076f8 <Dlab1>:
9d0076f8:	25afffff 	addiu	t7,t5,-1
9d0076fc:	2de107fe 	sltiu	at,t7,2046
9d007700:	102000f4 	beqz	at,9d007ad4 <DspecB>
9d007704:	00000000 	nop

9d007708 <Dlab2>:
9d007708:	014d5023 	subu	t2,t2,t5
9d00770c:	254a03ff 	addiu	t2,t2,1023
9d007710:	00084042 	srl	t0,t0,0x1
9d007714:	00097fc0 	sll	t7,t1,0x1f
9d007718:	010f4025 	or	t0,t0,t7
9d00771c:	00094842 	srl	t1,t1,0x1
9d007720:	000c3c02 	srl	a3,t4,0x10
9d007724:	00e001f4 	teq	a3,zero,0x7
9d007728:	0127001b 	divu	zero,t1,a3
9d00772c:	00007012 	mflo	t6
9d007730:	00004810 	mfhi	t1
9d007734:	3186ffff 	andi	a2,t4,0xffff
9d007738:	00ce0019 	multu	a2,t6
9d00773c:	00002012 	mflo	a0
9d007740:	00094c00 	sll	t1,t1,0x10
9d007744:	00087c02 	srl	t7,t0,0x10
9d007748:	012f4825 	or	t1,t1,t7
9d00774c:	0124782b 	sltu	t7,t1,a0
9d007750:	11e00006 	beqz	t7,9d00776c <i20>
9d007754:	01244823 	subu	t1,t1,a0

9d007758 <b21>:
9d007758:	25ceffff 	addiu	t6,t6,-1
9d00775c:	012c4821 	addu	t1,t1,t4
9d007760:	012c082b 	sltu	at,t1,t4
9d007764:	1020fffc 	beqz	at,9d007758 <b21>
9d007768:	00000000 	nop

9d00776c <i20>:
9d00776c:	00e001f4 	teq	a3,zero,0x7
9d007770:	0127001b 	divu	zero,t1,a3
9d007774:	00003812 	mflo	a3
9d007778:	00004810 	mfhi	t1
9d00777c:	00c70019 	multu	a2,a3
9d007780:	00002012 	mflo	a0
9d007784:	00094c00 	sll	t1,t1,0x10
9d007788:	310fffff 	andi	t7,t0,0xffff
9d00778c:	012f4825 	or	t1,t1,t7
9d007790:	0124782b 	sltu	t7,t1,a0
9d007794:	11e00006 	beqz	t7,9d0077b0 <i22>
9d007798:	01244823 	subu	t1,t1,a0

9d00779c <b23>:
9d00779c:	24e7ffff 	addiu	a3,a3,-1
9d0077a0:	012c4821 	addu	t1,t1,t4
9d0077a4:	012c082b 	sltu	at,t1,t4
9d0077a8:	1020fffc 	beqz	at,9d00779c <b23>
9d0077ac:	00000000 	nop

9d0077b0 <i22>:
9d0077b0:	000e7400 	sll	t6,t6,0x10
9d0077b4:	01c77021 	addu	t6,t6,a3
9d0077b8:	01cb0019 	multu	t6,t3
9d0077bc:	00003812 	mflo	a3
9d0077c0:	00002010 	mfhi	a0
9d0077c4:	24080000 	li	t0,0
9d0077c8:	0107782b 	sltu	t7,t0,a3
9d0077cc:	01074023 	subu	t0,t0,a3
9d0077d0:	012f102b 	sltu	v0,t1,t7
9d0077d4:	012f4823 	subu	t1,t1,t7
9d0077d8:	0124782b 	sltu	t7,t1,a0
9d0077dc:	01e27825 	or	t7,t7,v0
9d0077e0:	11e0000b 	beqz	t7,9d007810 <i24>
9d0077e4:	01244823 	subu	t1,t1,a0

9d0077e8 <Dlab3>:
9d0077e8:	25ceffff 	addiu	t6,t6,-1
9d0077ec:	010b4021 	addu	t0,t0,t3
9d0077f0:	010b782b 	sltu	t7,t0,t3
9d0077f4:	012c4821 	addu	t1,t1,t4
9d0077f8:	012f4821 	addu	t1,t1,t7
9d0077fc:	112c0002 	beq	t1,t4,9d007808 <L31>
9d007800:	00000000 	nop
9d007804:	012c782b 	sltu	t7,t1,t4

9d007808 <L31>:
9d007808:	11e0fff7 	beqz	t7,9d0077e8 <Dlab3>
9d00780c:	00000000 	nop

9d007810 <i24>:
9d007810:	152c0006 	bne	t1,t4,9d00782c <i25>
9d007814:	00000000 	nop
9d007818:	000b2025 	or	a0,zero,t3
9d00781c:	00084825 	or	t1,zero,t0
9d007820:	240d0000 	li	t5,0
9d007824:	1000002a 	b	9d0078d0 <e25>
9d007828:	000d3825 	or	a3,zero,t5

9d00782c <i25>:
9d00782c:	000c3c02 	srl	a3,t4,0x10
9d007830:	00e001f4 	teq	a3,zero,0x7
9d007834:	0127001b 	divu	zero,t1,a3
9d007838:	00006812 	mflo	t5
9d00783c:	00004810 	mfhi	t1
9d007840:	3186ffff 	andi	a2,t4,0xffff
9d007844:	00cd0019 	multu	a2,t5
9d007848:	00002012 	mflo	a0
9d00784c:	00094c00 	sll	t1,t1,0x10
9d007850:	00087c02 	srl	t7,t0,0x10
9d007854:	012f4825 	or	t1,t1,t7
9d007858:	0124782b 	sltu	t7,t1,a0
9d00785c:	11e00006 	beqz	t7,9d007878 <i26>
9d007860:	01244823 	subu	t1,t1,a0

9d007864 <b27>:
9d007864:	25adffff 	addiu	t5,t5,-1
9d007868:	012c4821 	addu	t1,t1,t4
9d00786c:	012c082b 	sltu	at,t1,t4
9d007870:	1020fffc 	beqz	at,9d007864 <b27>
9d007874:	00000000 	nop

9d007878 <i26>:
9d007878:	00e001f4 	teq	a3,zero,0x7
9d00787c:	0127001b 	divu	zero,t1,a3
9d007880:	00003812 	mflo	a3
9d007884:	00004810 	mfhi	t1
9d007888:	00c70019 	multu	a2,a3
9d00788c:	00002012 	mflo	a0
9d007890:	00094c00 	sll	t1,t1,0x10
9d007894:	310fffff 	andi	t7,t0,0xffff
9d007898:	012f4825 	or	t1,t1,t7
9d00789c:	0124782b 	sltu	t7,t1,a0
9d0078a0:	11e00006 	beqz	t7,9d0078bc <i28>
9d0078a4:	01244823 	subu	t1,t1,a0

9d0078a8 <b29>:
9d0078a8:	24e7ffff 	addiu	a3,a3,-1
9d0078ac:	012c4821 	addu	t1,t1,t4
9d0078b0:	012c082b 	sltu	at,t1,t4
9d0078b4:	1020fffc 	beqz	at,9d0078a8 <b29>
9d0078b8:	00000000 	nop

9d0078bc <i28>:
9d0078bc:	000d6c00 	sll	t5,t5,0x10
9d0078c0:	01a76821 	addu	t5,t5,a3
9d0078c4:	01ab0019 	multu	t5,t3
9d0078c8:	00003812 	mflo	a3
9d0078cc:	00002010 	mfhi	a0

9d0078d0 <e25>:
9d0078d0:	24080000 	li	t0,0
9d0078d4:	0107782b 	sltu	t7,t0,a3
9d0078d8:	01074023 	subu	t0,t0,a3
9d0078dc:	012f102b 	sltu	v0,t1,t7
9d0078e0:	012f4823 	subu	t1,t1,t7
9d0078e4:	0124782b 	sltu	t7,t1,a0
9d0078e8:	01e27825 	or	t7,t7,v0
9d0078ec:	11e0000b 	beqz	t7,9d00791c <i30>
9d0078f0:	01244823 	subu	t1,t1,a0

9d0078f4 <Dlab4>:
9d0078f4:	25adffff 	addiu	t5,t5,-1
9d0078f8:	010b4021 	addu	t0,t0,t3
9d0078fc:	010b782b 	sltu	t7,t0,t3
9d007900:	012c4821 	addu	t1,t1,t4
9d007904:	012f4821 	addu	t1,t1,t7
9d007908:	112c0002 	beq	t1,t4,9d007914 <L32>
9d00790c:	00000000 	nop
9d007910:	012c782b 	sltu	t7,t1,t4

9d007914 <L32>:
9d007914:	11e0fff7 	beqz	t7,9d0078f4 <Dlab4>
9d007918:	00000000 	nop

9d00791c <i30>:
9d00791c:	05c00006 	bltz	t6,9d007938 <i31>
9d007920:	00000000 	nop
9d007924:	01a0782a 	slt	t7,t5,zero
9d007928:	01ad6821 	addu	t5,t5,t5
9d00792c:	01ce7021 	addu	t6,t6,t6
9d007930:	01cf7021 	addu	t6,t6,t7
9d007934:	254affff 	addiu	t2,t2,-1

9d007938 <i31>:
9d007938:	01287825 	or	t7,t1,t0
9d00793c:	11e00002 	beqz	t7,9d007948 <i32>
9d007940:	00000000 	nop
9d007944:	35ad0001 	ori	t5,t5,0x1

9d007948 <i32>:
9d007948:	000e4825 	or	t1,zero,t6
9d00794c:	000d4025 	or	t0,zero,t5
9d007950:	254fffff 	addiu	t7,t2,-1
9d007954:	2de107fe 	sltiu	at,t7,2046
9d007958:	10200015 	beqz	at,9d0079b0 <Doveund>
9d00795c:	00000000 	nop
9d007960:	25080400 	addiu	t0,t0,1024
9d007964:	2d0f0400 	sltiu	t7,t0,1024
9d007968:	012f4821 	addu	t1,t1,t7
9d00796c:	012f782b 	sltu	t7,t1,t7
9d007970:	014f5021 	addu	t2,t2,t7

9d007974 <Dlab8>:
9d007974:	00087ac2 	srl	t7,t0,0xb
9d007978:	31ef0001 	andi	t7,t7,0x1
9d00797c:	010f4023 	subu	t0,t0,t7
9d007980:	000822c2 	srl	a0,t0,0xb
9d007984:	00097d40 	sll	t7,t1,0x15
9d007988:	008f2025 	or	a0,a0,t7
9d00798c:	00097840 	sll	t7,t1,0x1
9d007990:	000f7b02 	srl	t7,t7,0xc
9d007994:	00af2825 	or	a1,a1,t7
9d007998:	000a7d00 	sll	t7,t2,0x14
9d00799c:	00af2825 	or	a1,a1,t7

9d0079a0 <Dret>:
9d0079a0:	00041025 	or	v0,zero,a0
9d0079a4:	00051825 	or	v1,zero,a1

9d0079a8 <D999>:
9d0079a8:	03e00008 	jr	ra
9d0079ac:	00000000 	nop

9d0079b0 <Doveund>:
9d0079b0:	1d400044 	bgtz	t2,9d007ac4 <Dinf>
9d0079b4:	00000000 	nop
9d0079b8:	240e0001 	li	t6,1
9d0079bc:	01ca7023 	subu	t6,t6,t2

9d0079c0 <L33>:
9d0079c0:	2dc10020 	sltiu	at,t6,32
9d0079c4:	14200007 	bnez	at,9d0079e4 <L34>
9d0079c8:	00000000 	nop
9d0079cc:	21ceffe0 	addi	t6,t6,-32
9d0079d0:	0008202b 	sltu	a0,zero,t0
9d0079d4:	1009000d 	beq	zero,t1,9d007a0c <L35>
9d0079d8:	01244025 	or	t0,t1,a0
9d0079dc:	1000fff8 	b	9d0079c0 <L33>
9d0079e0:	34090000 	li	t1,0x0

9d0079e4 <L34>:
9d0079e4:	11c00009 	beqz	t6,9d007a0c <L35>
9d0079e8:	00000000 	nop
9d0079ec:	000e3022 	neg	a2,t6
9d0079f0:	00c82004 	sllv	a0,t0,a2
9d0079f4:	00c93004 	sllv	a2,t1,a2
9d0079f8:	01c84006 	srlv	t0,t0,t6
9d0079fc:	01c94806 	srlv	t1,t1,t6
9d007a00:	10800002 	beqz	a0,9d007a0c <L35>
9d007a04:	00c84025 	or	t0,a2,t0
9d007a08:	35080002 	ori	t0,t0,0x2

9d007a0c <L35>:
9d007a0c:	25080400 	addiu	t0,t0,1024
9d007a10:	2d0f0400 	sltiu	t7,t0,1024
9d007a14:	012f4821 	addu	t1,t1,t7
9d007a18:	1000ffd6 	b	9d007974 <Dlab8>
9d007a1c:	000957c2 	srl	t2,t1,0x1f

9d007a20 <DspecA>:
9d007a20:	0100782a 	slt	t7,t0,zero
9d007a24:	01084021 	addu	t0,t0,t0
9d007a28:	01294821 	addu	t1,t1,t1
9d007a2c:	15400017 	bnez	t2,9d007a8c <i33>
9d007a30:	012f4821 	addu	t1,t1,t7
9d007a34:	01287825 	or	t7,t1,t0
9d007a38:	11e00014 	beqz	t7,9d007a8c <i33>
9d007a3c:	00000000 	nop
9d007a40:	15200008 	bnez	t1,9d007a64 <L36>
9d007a44:	00000000 	nop
9d007a48:	15000003 	bnez	t0,9d007a58 <L37>
9d007a4c:	00000000 	nop
9d007a50:	1000ff29 	b	9d0076f8 <Dlab1>
9d007a54:	240a0000 	li	t2,0

9d007a58 <L37>:
9d007a58:	01004825 	move	t1,t0
9d007a5c:	24080000 	li	t0,0
9d007a60:	254affe0 	addiu	t2,t2,-32

9d007a64 <L36>:
9d007a64:	712e7020 	clz	t6,t1
9d007a68:	11c0ff23 	beqz	t6,9d0076f8 <Dlab1>
9d007a6c:	00000000 	nop
9d007a70:	014e5023 	subu	t2,t2,t6
9d007a74:	000e3022 	neg	a2,t6
9d007a78:	00c83006 	srlv	a2,t0,a2
9d007a7c:	01c84004 	sllv	t0,t0,t6
9d007a80:	01c94804 	sllv	t1,t1,t6
9d007a84:	1000ff1c 	b	9d0076f8 <Dlab1>
9d007a88:	01264825 	or	t1,t1,a2

9d007a8c <i33>:
9d007a8c:	154d0005 	bne	t2,t5,9d007aa4 <i35>
9d007a90:	00000000 	nop
9d007a94:	000c7840 	sll	t7,t4,0x1
9d007a98:	01eb7825 	or	t7,t7,t3
9d007a9c:	11e0002b 	beqz	t7,9d007b4c <Dnan>
9d007aa0:	00000000 	nop

9d007aa4 <i35>:
9d007aa4:	240107ff 	li	at,2047
9d007aa8:	11a1000a 	beq	t5,at,9d007ad4 <DspecB>
9d007aac:	00000000 	nop
9d007ab0:	1140ffbb 	beqz	t2,9d0079a0 <Dret>
9d007ab4:	00000000 	nop
9d007ab8:	01287825 	or	t7,t1,t0
9d007abc:	15e00023 	bnez	t7,9d007b4c <Dnan>
9d007ac0:	00000000 	nop

9d007ac4 <Dinf>:
9d007ac4:	3c017ff0 	lui	at,0x7ff0
9d007ac8:	00a12825 	or	a1,a1,at
9d007acc:	1000ffb4 	b	9d0079a0 <Dret>
9d007ad0:	24040000 	li	a0,0

9d007ad4 <DspecB>:
9d007ad4:	0160782a 	slt	t7,t3,zero
9d007ad8:	016b5821 	addu	t3,t3,t3
9d007adc:	018c6021 	addu	t4,t4,t4
9d007ae0:	15a00017 	bnez	t5,9d007b40 <i36>
9d007ae4:	018f6021 	addu	t4,t4,t7
9d007ae8:	018b7825 	or	t7,t4,t3
9d007aec:	11e0fff5 	beqz	t7,9d007ac4 <Dinf>
9d007af0:	00000000 	nop
9d007af4:	15800008 	bnez	t4,9d007b18 <L39>
9d007af8:	00000000 	nop
9d007afc:	15600003 	bnez	t3,9d007b0c <L40>
9d007b00:	00000000 	nop
9d007b04:	1000ff00 	b	9d007708 <Dlab2>
9d007b08:	240d0000 	li	t5,0

9d007b0c <L40>:
9d007b0c:	01606025 	move	t4,t3
9d007b10:	240b0000 	li	t3,0
9d007b14:	25adffe0 	addiu	t5,t5,-32

9d007b18 <L39>:
9d007b18:	718e7020 	clz	t6,t4
9d007b1c:	11c0fefa 	beqz	t6,9d007708 <Dlab2>
9d007b20:	00000000 	nop
9d007b24:	01ae6823 	subu	t5,t5,t6
9d007b28:	000e3022 	neg	a2,t6
9d007b2c:	00cb3006 	srlv	a2,t3,a2
9d007b30:	01cb5804 	sllv	t3,t3,t6
9d007b34:	01cc6004 	sllv	t4,t4,t6
9d007b38:	1000fef3 	b	9d007708 <Dlab2>
9d007b3c:	01866025 	or	t4,t4,a2

9d007b40 <i36>:
9d007b40:	018b7825 	or	t7,t4,t3
9d007b44:	11e00002 	beqz	t7,9d007b50 <i38>
9d007b48:	00000000 	nop

9d007b4c <Dnan>:
9d007b4c:	3c05fff8 	lui	a1,0xfff8

9d007b50 <i38>:
9d007b50:	1000ff93 	b	9d0079a0 <Dret>
9d007b54:	24040000 	li	a0,0
9d007b58:	00000000 	nop

Disassembly of section .text.dreml:

9d007b5c <dreml>:
9d007b5c:	27bdffa8 	addiu	sp,sp,-88
9d007b60:	afa70064 	sw	a3,100(sp)
9d007b64:	afa5005c 	sw	a1,92(sp)
9d007b68:	afbe0050 	sw	s8,80(sp)
9d007b6c:	afb10034 	sw	s1,52(sp)
9d007b70:	97be005e 	lhu	s8,94(sp)
9d007b74:	97b10066 	lhu	s1,102(sp)
9d007b78:	afb40040 	sw	s4,64(sp)
9d007b7c:	afb00030 	sw	s0,48(sp)
9d007b80:	24147ff0 	li	s4,32752
9d007b84:	32307fff 	andi	s0,s1,0x7fff
9d007b88:	33c27ff0 	andi	v0,s8,0x7ff0
9d007b8c:	afbf0054 	sw	ra,84(sp)
9d007b90:	afb7004c 	sw	s7,76(sp)
9d007b94:	afb60048 	sw	s6,72(sp)
9d007b98:	afb50044 	sw	s5,68(sp)
9d007b9c:	afb3003c 	sw	s3,60(sp)
9d007ba0:	afb20038 	sw	s2,56(sp)
9d007ba4:	afa60060 	sw	a2,96(sp)
9d007ba8:	afa40058 	sw	a0,88(sp)
9d007bac:	105400a6 	beq	v0,s4,9d007e48 <dreml+0x2ec>
9d007bb0:	a7b00066 	sh	s0,102(sp)
9d007bb4:	8fb20060 	lw	s2,96(sp)
9d007bb8:	8fb30064 	lw	s3,100(sp)
9d007bbc:	00003025 	move	a2,zero
9d007bc0:	00003825 	move	a3,zero
9d007bc4:	02402025 	move	a0,s2
9d007bc8:	0f403250 	jal	9d00c940 <__eqdf2>
9d007bcc:	02602825 	move	a1,s3
9d007bd0:	10400088 	beqz	v0,9d007df4 <dreml+0x298>
9d007bd4:	32317ff0 	andi	s1,s1,0x7ff0
9d007bd8:	123400b3 	beq	s1,s4,9d007ea8 <dreml+0x34c>
9d007bdc:	00108103 	sra	s0,s0,0x4
9d007be0:	321007fe 	andi	s0,s0,0x7fe
9d007be4:	120000cb 	beqz	s0,9d007f14 <dreml+0x3b8>
9d007be8:	3c109d00 	lui	s0,0x9d00
9d007bec:	8e061fb8 	lw	a2,8120(s0)
9d007bf0:	8e071fbc 	lw	a3,8124(s0)
9d007bf4:	02402025 	move	a0,s2
9d007bf8:	0f402611 	jal	9d009844 <__muldf3>
9d007bfc:	02602825 	move	a1,s3
9d007c00:	afa20020 	sw	v0,32(sp)
9d007c04:	3c029d00 	lui	v0,0x9d00
9d007c08:	8c461fc0 	lw	a2,8128(v0)
9d007c0c:	8c471fc4 	lw	a3,8132(v0)
9d007c10:	02402025 	move	a0,s2
9d007c14:	02602825 	move	a1,s3
9d007c18:	0f403250 	jal	9d00c940 <__eqdf2>
9d007c1c:	afa30024 	sw	v1,36(sp)
9d007c20:	044100aa 	bgez	v0,9d007ecc <dreml+0x370>
9d007c24:	33c87fff 	andi	t0,s8,0x7fff
9d007c28:	02403025 	move	a2,s2
9d007c2c:	02603825 	move	a3,s3
9d007c30:	02402025 	move	a0,s2
9d007c34:	02602825 	move	a1,s3
9d007c38:	0f402210 	jal	9d008840 <__adddf3>
9d007c3c:	afa80018 	sw	t0,24(sp)
9d007c40:	8fa80018 	lw	t0,24(sp)
9d007c44:	8fb00058 	lw	s0,88(sp)
9d007c48:	7c1e7004 	ins	s8,zero,0x0,0xf
9d007c4c:	a7a8005e 	sh	t0,94(sp)
9d007c50:	8fb1005c 	lw	s1,92(sp)
9d007c54:	00402025 	move	a0,v0
9d007c58:	0040a825 	move	s5,v0
9d007c5c:	00602825 	move	a1,v1
9d007c60:	7c1e1620 	seh	v0,s8
9d007c64:	02003025 	move	a2,s0
9d007c68:	02203825 	move	a3,s1
9d007c6c:	0003b402 	srl	s6,v1,0x10
9d007c70:	0060a025 	move	s4,v1
9d007c74:	0f40329b 	jal	9d00ca6c <dpcmplt>
9d007c78:	afa20028 	sw	v0,40(sp)
9d007c7c:	32d77ff0 	andi	s7,s6,0x7ff0
9d007c80:	04400003 	bltz	v0,9d007c90 <dreml+0x134>
9d007c84:	8fa80018 	lw	t0,24(sp)
9d007c88:	10000029 	b	9d007d30 <dreml+0x1d4>
9d007c8c:	8fb40020 	lw	s4,32(sp)
9d007c90:	31037ff0 	andi	v1,t0,0x7ff0
9d007c94:	02c31821 	addu	v1,s6,v1
9d007c98:	00771823 	subu	v1,v1,s7
9d007c9c:	307effff 	andi	s8,v1,0xffff
9d007ca0:	afb40014 	sw	s4,20(sp)
9d007ca4:	afb50010 	sw	s5,16(sp)
9d007ca8:	a7be0016 	sh	s8,22(sp)
9d007cac:	8fa80010 	lw	t0,16(sp)
9d007cb0:	8fa90014 	lw	t1,20(sp)
9d007cb4:	02003025 	move	a2,s0
9d007cb8:	01002025 	move	a0,t0
9d007cbc:	01202825 	move	a1,t1
9d007cc0:	02203825 	move	a3,s1
9d007cc4:	afa80018 	sw	t0,24(sp)
9d007cc8:	0f403250 	jal	9d00c940 <__eqdf2>
9d007ccc:	afa9001c 	sw	t1,28(sp)
9d007cd0:	02002025 	move	a0,s0
9d007cd4:	02202825 	move	a1,s1
9d007cd8:	27c3fff0 	addiu	v1,s8,-16
9d007cdc:	8fa80018 	lw	t0,24(sp)
9d007ce0:	18400004 	blez	v0,9d007cf4 <dreml+0x198>
9d007ce4:	8fa9001c 	lw	t1,28(sp)
9d007ce8:	a7a30016 	sh	v1,22(sp)
9d007cec:	8fa80010 	lw	t0,16(sp)
9d007cf0:	8fa90014 	lw	t1,20(sp)
9d007cf4:	01003025 	move	a2,t0
9d007cf8:	0f40220e 	jal	9d008838 <__subdf3>
9d007cfc:	01203825 	move	a3,t1
9d007d00:	00403025 	move	a2,v0
9d007d04:	02a02025 	move	a0,s5
9d007d08:	02802825 	move	a1,s4
9d007d0c:	00603825 	move	a3,v1
9d007d10:	00408025 	move	s0,v0
9d007d14:	00608825 	move	s1,v1
9d007d18:	afa20058 	sw	v0,88(sp)
9d007d1c:	0f40329b 	jal	9d00ca6c <dpcmplt>
9d007d20:	afa3005c 	sw	v1,92(sp)
9d007d24:	0440ffda 	bltz	v0,9d007c90 <dreml+0x134>
9d007d28:	97a8005e 	lhu	t0,94(sp)
9d007d2c:	8fb40020 	lw	s4,32(sp)
9d007d30:	8fb50024 	lw	s5,36(sp)
9d007d34:	02002025 	move	a0,s0
9d007d38:	02803025 	move	a2,s4
9d007d3c:	02a03825 	move	a3,s5
9d007d40:	0f403250 	jal	9d00c940 <__eqdf2>
9d007d44:	02202825 	move	a1,s1
9d007d48:	18400017 	blez	v0,9d007da8 <dreml+0x24c>
9d007d4c:	97a2005e 	lhu	v0,94(sp)
9d007d50:	02002025 	move	a0,s0
9d007d54:	02202825 	move	a1,s1
9d007d58:	02403025 	move	a2,s2
9d007d5c:	0f40220e 	jal	9d008838 <__subdf3>
9d007d60:	02603825 	move	a3,s3
9d007d64:	00402025 	move	a0,v0
9d007d68:	02803025 	move	a2,s4
9d007d6c:	02a03825 	move	a3,s5
9d007d70:	00602825 	move	a1,v1
9d007d74:	00408025 	move	s0,v0
9d007d78:	0f403250 	jal	9d00c940 <__eqdf2>
9d007d7c:	00608825 	move	s1,v1
9d007d80:	04420089 	bltzl	v0,9d007fa8 <dreml+0x44c>
9d007d84:	afb00058 	sw	s0,88(sp)
9d007d88:	02403025 	move	a2,s2
9d007d8c:	02603825 	move	a3,s3
9d007d90:	02002025 	move	a0,s0
9d007d94:	0f40220e 	jal	9d008838 <__subdf3>
9d007d98:	02202825 	move	a1,s1
9d007d9c:	afa20058 	sw	v0,88(sp)
9d007da0:	afa3005c 	sw	v1,92(sp)
9d007da4:	97a2005e 	lhu	v0,94(sp)
9d007da8:	8fa30028 	lw	v1,40(sp)
9d007dac:	0062f026 	xor	s8,v1,v0
9d007db0:	a7be005e 	sh	s8,94(sp)
9d007db4:	8fb20058 	lw	s2,88(sp)
9d007db8:	8fb3005c 	lw	s3,92(sp)
9d007dbc:	8fbf0054 	lw	ra,84(sp)
9d007dc0:	02401025 	move	v0,s2
9d007dc4:	02601825 	move	v1,s3
9d007dc8:	8fbe0050 	lw	s8,80(sp)
9d007dcc:	8fb7004c 	lw	s7,76(sp)
9d007dd0:	8fb60048 	lw	s6,72(sp)
9d007dd4:	8fb50044 	lw	s5,68(sp)
9d007dd8:	8fb40040 	lw	s4,64(sp)
9d007ddc:	8fb3003c 	lw	s3,60(sp)
9d007de0:	8fb20038 	lw	s2,56(sp)
9d007de4:	8fb10034 	lw	s1,52(sp)
9d007de8:	8fb00030 	lw	s0,48(sp)
9d007dec:	03e00008 	jr	ra
9d007df0:	27bd0058 	addiu	sp,sp,88
9d007df4:	00003025 	move	a2,zero
9d007df8:	00003825 	move	a3,zero
9d007dfc:	00c02025 	move	a0,a2
9d007e00:	0f401da9 	jal	9d0076a4 <__divdf3>
9d007e04:	00e02825 	move	a1,a3
9d007e08:	00409025 	move	s2,v0
9d007e0c:	00609825 	move	s3,v1
9d007e10:	8fbf0054 	lw	ra,84(sp)
9d007e14:	02401025 	move	v0,s2
9d007e18:	02601825 	move	v1,s3
9d007e1c:	8fbe0050 	lw	s8,80(sp)
9d007e20:	8fb7004c 	lw	s7,76(sp)
9d007e24:	8fb60048 	lw	s6,72(sp)
9d007e28:	8fb50044 	lw	s5,68(sp)
9d007e2c:	8fb40040 	lw	s4,64(sp)
9d007e30:	8fb3003c 	lw	s3,60(sp)
9d007e34:	8fb20038 	lw	s2,56(sp)
9d007e38:	8fb10034 	lw	s1,52(sp)
9d007e3c:	8fb00030 	lw	s0,48(sp)
9d007e40:	03e00008 	jr	ra
9d007e44:	27bd0058 	addiu	sp,sp,88
9d007e48:	8fa60060 	lw	a2,96(sp)
9d007e4c:	0f40220e 	jal	9d008838 <__subdf3>
9d007e50:	8fa70064 	lw	a3,100(sp)
9d007e54:	00403025 	move	a2,v0
9d007e58:	00603825 	move	a3,v1
9d007e5c:	00402025 	move	a0,v0
9d007e60:	0f40220e 	jal	9d008838 <__subdf3>
9d007e64:	00602825 	move	a1,v1
9d007e68:	8fbf0054 	lw	ra,84(sp)
9d007e6c:	00409025 	move	s2,v0
9d007e70:	00609825 	move	s3,v1
9d007e74:	02401025 	move	v0,s2
9d007e78:	02601825 	move	v1,s3
9d007e7c:	8fbe0050 	lw	s8,80(sp)
9d007e80:	8fb7004c 	lw	s7,76(sp)
9d007e84:	8fb60048 	lw	s6,72(sp)
9d007e88:	8fb50044 	lw	s5,68(sp)
9d007e8c:	8fb40040 	lw	s4,64(sp)
9d007e90:	8fb3003c 	lw	s3,60(sp)
9d007e94:	8fb20038 	lw	s2,56(sp)
9d007e98:	8fb10034 	lw	s1,52(sp)
9d007e9c:	8fb00030 	lw	s0,48(sp)
9d007ea0:	03e00008 	jr	ra
9d007ea4:	27bd0058 	addiu	sp,sp,88
9d007ea8:	02403025 	move	a2,s2
9d007eac:	02603825 	move	a3,s3
9d007eb0:	02402025 	move	a0,s2
9d007eb4:	0f403250 	jal	9d00c940 <__eqdf2>
9d007eb8:	02602825 	move	a1,s3
9d007ebc:	1440ffd5 	bnez	v0,9d007e14 <dreml+0x2b8>
9d007ec0:	8fbf0054 	lw	ra,84(sp)
9d007ec4:	1000ffbc 	b	9d007db8 <dreml+0x25c>
9d007ec8:	8fb20058 	lw	s2,88(sp)
9d007ecc:	8e061fb8 	lw	a2,8120(s0)
9d007ed0:	8e071fbc 	lw	a3,8124(s0)
9d007ed4:	8fa40058 	lw	a0,88(sp)
9d007ed8:	0f402611 	jal	9d009844 <__muldf3>
9d007edc:	8fa5005c 	lw	a1,92(sp)
9d007ee0:	8fa60020 	lw	a2,32(sp)
9d007ee4:	8fa70024 	lw	a3,36(sp)
9d007ee8:	00402025 	move	a0,v0
9d007eec:	0f401ed7 	jal	9d007b5c <dreml>
9d007ef0:	00602825 	move	a1,v1
9d007ef4:	00403025 	move	a2,v0
9d007ef8:	00603825 	move	a3,v1
9d007efc:	00402025 	move	a0,v0
9d007f00:	0f402210 	jal	9d008840 <__adddf3>
9d007f04:	00602825 	move	a1,v1
9d007f08:	00409025 	move	s2,v0
9d007f0c:	1000ffc0 	b	9d007e10 <dreml+0x2b4>
9d007f10:	00609825 	move	s3,v1
9d007f14:	3c029d00 	lui	v0,0x9d00
9d007f18:	8c441fb0 	lw	a0,8112(v0)
9d007f1c:	8c451fb4 	lw	a1,8116(v0)
9d007f20:	0f402f9f 	jal	9d00be7c <__mchp_ldexp>
9d007f24:	24060036 	li	a2,54
9d007f28:	00403025 	move	a2,v0
9d007f2c:	02402025 	move	a0,s2
9d007f30:	02602825 	move	a1,s3
9d007f34:	00603825 	move	a3,v1
9d007f38:	00408025 	move	s0,v0
9d007f3c:	0f402611 	jal	9d009844 <__muldf3>
9d007f40:	00608825 	move	s1,v1
9d007f44:	8fa40058 	lw	a0,88(sp)
9d007f48:	8fa5005c 	lw	a1,92(sp)
9d007f4c:	00403025 	move	a2,v0
9d007f50:	00603825 	move	a3,v1
9d007f54:	00409025 	move	s2,v0
9d007f58:	0f401ed7 	jal	9d007b5c <dreml>
9d007f5c:	00609825 	move	s3,v1
9d007f60:	00402025 	move	a0,v0
9d007f64:	02003025 	move	a2,s0
9d007f68:	02203825 	move	a3,s1
9d007f6c:	0f402611 	jal	9d009844 <__muldf3>
9d007f70:	00602825 	move	a1,v1
9d007f74:	00402025 	move	a0,v0
9d007f78:	02403025 	move	a2,s2
9d007f7c:	02603825 	move	a3,s3
9d007f80:	0f401ed7 	jal	9d007b5c <dreml>
9d007f84:	00602825 	move	a1,v1
9d007f88:	00402025 	move	a0,v0
9d007f8c:	02003025 	move	a2,s0
9d007f90:	02203825 	move	a3,s1
9d007f94:	0f401da9 	jal	9d0076a4 <__divdf3>
9d007f98:	00602825 	move	a1,v1
9d007f9c:	00409025 	move	s2,v0
9d007fa0:	1000ff9b 	b	9d007e10 <dreml+0x2b4>
9d007fa4:	00609825 	move	s3,v1
9d007fa8:	1000ff7e 	b	9d007da4 <dreml+0x248>
9d007fac:	afb1005c 	sw	s1,92(sp)

Disassembly of section .text:

9d007fb0 <__moddi3>:
9d007fb0:	04a10006 	bgez	a1,9d007fcc <__moddi3+0x1c>
9d007fb4:	00006025 	move	t4,zero
9d007fb8:	00042023 	negu	a0,a0
9d007fbc:	0004102b 	sltu	v0,zero,a0
9d007fc0:	00052823 	negu	a1,a1
9d007fc4:	00a22823 	subu	a1,a1,v0
9d007fc8:	240cffff 	li	t4,-1
9d007fcc:	04e10006 	bgez	a3,9d007fe8 <__moddi3+0x38>
9d007fd0:	00c04825 	move	t1,a2
9d007fd4:	00063023 	negu	a2,a2
9d007fd8:	0006102b 	sltu	v0,zero,a2
9d007fdc:	00073823 	negu	a3,a3
9d007fe0:	00e23823 	subu	a3,a3,v0
9d007fe4:	00c04825 	move	t1,a2
9d007fe8:	00801025 	move	v0,a0
9d007fec:	14e000a1 	bnez	a3,9d008274 <__moddi3+0x2c4>
9d007ff0:	00a01825 	move	v1,a1
9d007ff4:	00a6302b 	sltu	a2,a1,a2
9d007ff8:	10c0003b 	beqz	a2,9d0080e8 <__moddi3+0x138>
9d007ffc:	712a5020 	clz	t2,t1
9d008000:	51400008 	beqzl	t2,9d008024 <__moddi3+0x74>
9d008004:	00092402 	srl	a0,t1,0x10
9d008008:	01451804 	sllv	v1,a1,t2
9d00800c:	000a2823 	negu	a1,t2
9d008010:	00a42806 	srlv	a1,a0,a1
9d008014:	01494804 	sllv	t1,t1,t2
9d008018:	00a31825 	or	v1,a1,v1
9d00801c:	01441004 	sllv	v0,a0,t2
9d008020:	00092402 	srl	a0,t1,0x10
9d008024:	0064001b 	divu	zero,v1,a0
9d008028:	008001f4 	teq	a0,zero,0x7
9d00802c:	3127ffff 	andi	a3,t1,0xffff
9d008030:	00001812 	mflo	v1
9d008034:	00002810 	mfhi	a1
9d008038:	70673002 	mul	a2,v1,a3
9d00803c:	00051c00 	sll	v1,a1,0x10
9d008040:	00022c02 	srl	a1,v0,0x10
9d008044:	00651825 	or	v1,v1,a1
9d008048:	0066282b 	sltu	a1,v1,a2
9d00804c:	50a00009 	beqzl	a1,9d008074 <__moddi3+0xc4>
9d008050:	00661823 	subu	v1,v1,a2
9d008054:	00691821 	addu	v1,v1,t1
9d008058:	0069282b 	sltu	a1,v1,t1
9d00805c:	54a00005 	bnezl	a1,9d008074 <__moddi3+0xc4>
9d008060:	00661823 	subu	v1,v1,a2
9d008064:	0066282b 	sltu	a1,v1,a2
9d008068:	54a00001 	bnezl	a1,9d008070 <__moddi3+0xc0>
9d00806c:	00691821 	addu	v1,v1,t1
9d008070:	00661823 	subu	v1,v1,a2
9d008074:	0064001b 	divu	zero,v1,a0
9d008078:	008001f4 	teq	a0,zero,0x7
9d00807c:	3042ffff 	andi	v0,v0,0xffff
9d008080:	00001812 	mflo	v1
9d008084:	00003010 	mfhi	a2
9d008088:	70672002 	mul	a0,v1,a3
9d00808c:	00061c00 	sll	v1,a2,0x10
9d008090:	00621025 	or	v0,v1,v0
9d008094:	0044182b 	sltu	v1,v0,a0
9d008098:	50600009 	beqzl	v1,9d0080c0 <__moddi3+0x110>
9d00809c:	00441023 	subu	v0,v0,a0
9d0080a0:	00491021 	addu	v0,v0,t1
9d0080a4:	0049182b 	sltu	v1,v0,t1
9d0080a8:	54600005 	bnezl	v1,9d0080c0 <__moddi3+0x110>
9d0080ac:	00441023 	subu	v0,v0,a0
9d0080b0:	0044182b 	sltu	v1,v0,a0
9d0080b4:	54600001 	bnezl	v1,9d0080bc <__moddi3+0x10c>
9d0080b8:	00491021 	addu	v0,v0,t1
9d0080bc:	00441023 	subu	v0,v0,a0
9d0080c0:	01421006 	srlv	v0,v0,t2
9d0080c4:	00001825 	move	v1,zero
9d0080c8:	11800005 	beqz	t4,9d0080e0 <__moddi3+0x130>
9d0080cc:	00000000 	nop
9d0080d0:	00021023 	negu	v0,v0
9d0080d4:	0002202b 	sltu	a0,zero,v0
9d0080d8:	00031823 	negu	v1,v1
9d0080dc:	00641823 	subu	v1,v1,a0
9d0080e0:	03e00008 	jr	ra
9d0080e4:	00000000 	nop
9d0080e8:	15200006 	bnez	t1,9d008104 <__moddi3+0x154>
9d0080ec:	00000000 	nop
9d0080f0:	24090001 	li	t1,1
9d0080f4:	0127001b 	divu	zero,t1,a3
9d0080f8:	00e001f4 	teq	a3,zero,0x7
9d0080fc:	00004812 	mflo	t1
9d008100:	712a5020 	clz	t2,t1
9d008104:	1540002b 	bnez	t2,9d0081b4 <__moddi3+0x204>
9d008108:	24070020 	li	a3,32
9d00810c:	00a92823 	subu	a1,a1,t1
9d008110:	00092402 	srl	a0,t1,0x10
9d008114:	00a4001b 	divu	zero,a1,a0
9d008118:	008001f4 	teq	a0,zero,0x7
9d00811c:	3127ffff 	andi	a3,t1,0xffff
9d008120:	00002812 	mflo	a1
9d008124:	00001810 	mfhi	v1
9d008128:	70a73002 	mul	a2,a1,a3
9d00812c:	00032c00 	sll	a1,v1,0x10
9d008130:	00021c02 	srl	v1,v0,0x10
9d008134:	00a32825 	or	a1,a1,v1
9d008138:	00a6182b 	sltu	v1,a1,a2
9d00813c:	50600009 	beqzl	v1,9d008164 <__moddi3+0x1b4>
9d008140:	00a63023 	subu	a2,a1,a2
9d008144:	00a92821 	addu	a1,a1,t1
9d008148:	00a9182b 	sltu	v1,a1,t1
9d00814c:	54600005 	bnezl	v1,9d008164 <__moddi3+0x1b4>
9d008150:	00a63023 	subu	a2,a1,a2
9d008154:	00a6182b 	sltu	v1,a1,a2
9d008158:	54600001 	bnezl	v1,9d008160 <__moddi3+0x1b0>
9d00815c:	00a92821 	addu	a1,a1,t1
9d008160:	00a63023 	subu	a2,a1,a2
9d008164:	00c4001b 	divu	zero,a2,a0
9d008168:	008001f4 	teq	a0,zero,0x7
9d00816c:	3042ffff 	andi	v0,v0,0xffff
9d008170:	00003012 	mflo	a2
9d008174:	00002810 	mfhi	a1
9d008178:	70c71802 	mul	v1,a2,a3
9d00817c:	00053400 	sll	a2,a1,0x10
9d008180:	00c21025 	or	v0,a2,v0
9d008184:	0043202b 	sltu	a0,v0,v1
9d008188:	5080ffcd 	beqzl	a0,9d0080c0 <__moddi3+0x110>
9d00818c:	00431023 	subu	v0,v0,v1
9d008190:	00491021 	addu	v0,v0,t1
9d008194:	0049202b 	sltu	a0,v0,t1
9d008198:	5480ffc9 	bnezl	a0,9d0080c0 <__moddi3+0x110>
9d00819c:	00431023 	subu	v0,v0,v1
9d0081a0:	0043202b 	sltu	a0,v0,v1
9d0081a4:	54800001 	bnezl	a0,9d0081ac <__moddi3+0x1fc>
9d0081a8:	00491021 	addu	v0,v0,t1
9d0081ac:	1000ffc4 	b	9d0080c0 <__moddi3+0x110>
9d0081b0:	00431023 	subu	v0,v0,v1
9d0081b4:	00ea3823 	subu	a3,a3,t2
9d0081b8:	01494804 	sllv	t1,t1,t2
9d0081bc:	00e41806 	srlv	v1,a0,a3
9d0081c0:	00093402 	srl	a2,t1,0x10
9d0081c4:	00e53806 	srlv	a3,a1,a3
9d0081c8:	00e6001b 	divu	zero,a3,a2
9d0081cc:	00c001f4 	teq	a2,zero,0x7
9d0081d0:	01451004 	sllv	v0,a1,t2
9d0081d4:	312bffff 	andi	t3,t1,0xffff
9d0081d8:	00621825 	or	v1,v1,v0
9d0081dc:	01441004 	sllv	v0,a0,t2
9d0081e0:	00032c02 	srl	a1,v1,0x10
9d0081e4:	00003812 	mflo	a3
9d0081e8:	00002010 	mfhi	a0
9d0081ec:	70eb4002 	mul	t0,a3,t3
9d0081f0:	00043c00 	sll	a3,a0,0x10
9d0081f4:	00e53825 	or	a3,a3,a1
9d0081f8:	00e8202b 	sltu	a0,a3,t0
9d0081fc:	50800009 	beqzl	a0,9d008224 <__moddi3+0x274>
9d008200:	00e83823 	subu	a3,a3,t0
9d008204:	00e93821 	addu	a3,a3,t1
9d008208:	00e9202b 	sltu	a0,a3,t1
9d00820c:	54800005 	bnezl	a0,9d008224 <__moddi3+0x274>
9d008210:	00e83823 	subu	a3,a3,t0
9d008214:	00e8202b 	sltu	a0,a3,t0
9d008218:	54800001 	bnezl	a0,9d008220 <__moddi3+0x270>
9d00821c:	00e93821 	addu	a3,a3,t1
9d008220:	00e83823 	subu	a3,a3,t0
9d008224:	00e6001b 	divu	zero,a3,a2
9d008228:	00c001f4 	teq	a2,zero,0x7
9d00822c:	3065ffff 	andi	a1,v1,0xffff
9d008230:	00003012 	mflo	a2
9d008234:	00003810 	mfhi	a3
9d008238:	00073c00 	sll	a3,a3,0x10
9d00823c:	00e52825 	or	a1,a3,a1
9d008240:	70cb3002 	mul	a2,a2,t3
9d008244:	00a6182b 	sltu	v1,a1,a2
9d008248:	5060ffb1 	beqzl	v1,9d008110 <__moddi3+0x160>
9d00824c:	00a62823 	subu	a1,a1,a2
9d008250:	00a92821 	addu	a1,a1,t1
9d008254:	00a9182b 	sltu	v1,a1,t1
9d008258:	5460ffad 	bnezl	v1,9d008110 <__moddi3+0x160>
9d00825c:	00a62823 	subu	a1,a1,a2
9d008260:	00a6182b 	sltu	v1,a1,a2
9d008264:	54600001 	bnezl	v1,9d00826c <__moddi3+0x2bc>
9d008268:	00a92821 	addu	a1,a1,t1
9d00826c:	1000ffa8 	b	9d008110 <__moddi3+0x160>
9d008270:	00a62823 	subu	a1,a1,a2
9d008274:	00a7402b 	sltu	t0,a1,a3
9d008278:	1500ff93 	bnez	t0,9d0080c8 <__moddi3+0x118>
9d00827c:	70ed6820 	clz	t5,a3
9d008280:	15a0000c 	bnez	t5,9d0082b4 <__moddi3+0x304>
9d008284:	240b0020 	li	t3,32
9d008288:	00e5402b 	sltu	t0,a3,a1
9d00828c:	55000005 	bnezl	t0,9d0082a4 <__moddi3+0x2f4>
9d008290:	00861023 	subu	v0,a0,a2
9d008294:	0086402b 	sltu	t0,a0,a2
9d008298:	1500ff8b 	bnez	t0,9d0080c8 <__moddi3+0x118>
9d00829c:	00000000 	nop
9d0082a0:	00861023 	subu	v0,a0,a2
9d0082a4:	00a72823 	subu	a1,a1,a3
9d0082a8:	0082182b 	sltu	v1,a0,v0
9d0082ac:	1000ff86 	b	9d0080c8 <__moddi3+0x118>
9d0082b0:	00a31823 	subu	v1,a1,v1
9d0082b4:	016d5823 	subu	t3,t3,t5
9d0082b8:	01664006 	srlv	t0,a2,t3
9d0082bc:	01a73804 	sllv	a3,a3,t5
9d0082c0:	01073825 	or	a3,t0,a3
9d0082c4:	01a51004 	sllv	v0,a1,t5
9d0082c8:	00074c02 	srl	t1,a3,0x10
9d0082cc:	01652806 	srlv	a1,a1,t3
9d0082d0:	00a9001b 	divu	zero,a1,t1
9d0082d4:	012001f4 	teq	t1,zero,0x7
9d0082d8:	01644006 	srlv	t0,a0,t3
9d0082dc:	01021025 	or	v0,t0,v0
9d0082e0:	30e8ffff 	andi	t0,a3,0xffff
9d0082e4:	01a6c004 	sllv	t8,a2,t5
9d0082e8:	00023402 	srl	a2,v0,0x10
9d0082ec:	01a42004 	sllv	a0,a0,t5
9d0082f0:	00002812 	mflo	a1
9d0082f4:	00005010 	mfhi	t2
9d0082f8:	000a5400 	sll	t2,t2,0x10
9d0082fc:	01465025 	or	t2,t2,a2
9d008300:	71051802 	mul	v1,t0,a1
9d008304:	0143302b 	sltu	a2,t2,v1
9d008308:	10c0000a 	beqz	a2,9d008334 <__moddi3+0x384>
9d00830c:	00a07825 	move	t7,a1
9d008310:	01475021 	addu	t2,t2,a3
9d008314:	0147302b 	sltu	a2,t2,a3
9d008318:	14c00006 	bnez	a2,9d008334 <__moddi3+0x384>
9d00831c:	24afffff 	addiu	t7,a1,-1
9d008320:	0143302b 	sltu	a2,t2,v1
9d008324:	50c00004 	beqzl	a2,9d008338 <__moddi3+0x388>
9d008328:	01435023 	subu	t2,t2,v1
9d00832c:	24affffe 	addiu	t7,a1,-2
9d008330:	01475021 	addu	t2,t2,a3
9d008334:	01435023 	subu	t2,t2,v1
9d008338:	0149001b 	divu	zero,t2,t1
9d00833c:	012001f4 	teq	t1,zero,0x7
9d008340:	00004812 	mflo	t1
9d008344:	00005010 	mfhi	t2
9d008348:	000a5400 	sll	t2,t2,0x10
9d00834c:	71091802 	mul	v1,t0,t1
9d008350:	3048ffff 	andi	t0,v0,0xffff
9d008354:	01484025 	or	t0,t2,t0
9d008358:	0103282b 	sltu	a1,t0,v1
9d00835c:	10a0000a 	beqz	a1,9d008388 <__moddi3+0x3d8>
9d008360:	01201025 	move	v0,t1
9d008364:	01074021 	addu	t0,t0,a3
9d008368:	0107282b 	sltu	a1,t0,a3
9d00836c:	14a00006 	bnez	a1,9d008388 <__moddi3+0x3d8>
9d008370:	2522ffff 	addiu	v0,t1,-1
9d008374:	0103282b 	sltu	a1,t0,v1
9d008378:	10a00004 	beqz	a1,9d00838c <__moddi3+0x3dc>
9d00837c:	000f7400 	sll	t6,t7,0x10
9d008380:	2522fffe 	addiu	v0,t1,-2
9d008384:	01074021 	addu	t0,t0,a3
9d008388:	000f7400 	sll	t6,t7,0x10
9d00838c:	01c27025 	or	t6,t6,v0
9d008390:	01d80019 	multu	t6,t8
9d008394:	01034023 	subu	t0,t0,v1
9d008398:	00007810 	mfhi	t7
9d00839c:	010f102b 	sltu	v0,t0,t7
9d0083a0:	01e01825 	move	v1,t7
9d0083a4:	00007012 	mflo	t6
9d0083a8:	14400006 	bnez	v0,9d0083c4 <__moddi3+0x414>
9d0083ac:	00003012 	mflo	a2
9d0083b0:	150f0009 	bne	t0,t7,9d0083d8 <__moddi3+0x428>
9d0083b4:	00863023 	subu	a2,a0,a2
9d0083b8:	008e102b 	sltu	v0,a0,t6
9d0083bc:	50400007 	beqzl	v0,9d0083dc <__moddi3+0x42c>
9d0083c0:	01034023 	subu	t0,t0,v1
9d0083c4:	01d83023 	subu	a2,t6,t8
9d0083c8:	01e73823 	subu	a3,t7,a3
9d0083cc:	01c6702b 	sltu	t6,t6,a2
9d0083d0:	00ee1823 	subu	v1,a3,t6
9d0083d4:	00863023 	subu	a2,a0,a2
9d0083d8:	01034023 	subu	t0,t0,v1
9d0083dc:	0086182b 	sltu	v1,a0,a2
9d0083e0:	01031823 	subu	v1,t0,v1
9d0083e4:	01631004 	sllv	v0,v1,t3
9d0083e8:	01a63006 	srlv	a2,a2,t5
9d0083ec:	00461025 	or	v0,v0,a2
9d0083f0:	1000ff35 	b	9d0080c8 <__moddi3+0x118>
9d0083f4:	01a31806 	srlv	v1,v1,t5

9d0083f8 <__divdi3>:
9d0083f8:	04a10007 	bgez	a1,9d008418 <__divdi3+0x20>
9d0083fc:	00004825 	move	t1,zero
9d008400:	00041023 	negu	v0,a0
9d008404:	0002402b 	sltu	t0,zero,v0
9d008408:	00052823 	negu	a1,a1
9d00840c:	00402025 	move	a0,v0
9d008410:	00a82823 	subu	a1,a1,t0
9d008414:	2409ffff 	li	t1,-1
9d008418:	04e10007 	bgez	a3,9d008438 <__divdi3+0x40>
9d00841c:	00c04025 	move	t0,a2
9d008420:	00063023 	negu	a2,a2
9d008424:	0006102b 	sltu	v0,zero,a2
9d008428:	00073823 	negu	a3,a3
9d00842c:	00094827 	nor	t1,zero,t1
9d008430:	00e23823 	subu	a3,a3,v0
9d008434:	00c04025 	move	t0,a2
9d008438:	00e01825 	move	v1,a3
9d00843c:	00805025 	move	t2,a0
9d008440:	14e000aa 	bnez	a3,9d0086ec <__divdi3+0x2f4>
9d008444:	00a01025 	move	v0,a1
9d008448:	00a6302b 	sltu	a2,a1,a2
9d00844c:	10c0003b 	beqz	a2,9d00853c <__divdi3+0x144>
9d008450:	00000000 	nop
9d008454:	71052820 	clz	a1,t0
9d008458:	50a00008 	beqzl	a1,9d00847c <__divdi3+0x84>
9d00845c:	00082c02 	srl	a1,t0,0x10
9d008460:	00a22004 	sllv	a0,v0,a1
9d008464:	00051023 	negu	v0,a1
9d008468:	004a1006 	srlv	v0,t2,v0
9d00846c:	00a84004 	sllv	t0,t0,a1
9d008470:	00441025 	or	v0,v0,a0
9d008474:	00aa5004 	sllv	t2,t2,a1
9d008478:	00082c02 	srl	a1,t0,0x10
9d00847c:	0045001b 	divu	zero,v0,a1
9d008480:	00a001f4 	teq	a1,zero,0x7
9d008484:	310bffff 	andi	t3,t0,0xffff
9d008488:	000a1402 	srl	v0,t2,0x10
9d00848c:	00003812 	mflo	a3
9d008490:	00002010 	mfhi	a0
9d008494:	00042400 	sll	a0,a0,0x10
9d008498:	00821025 	or	v0,a0,v0
9d00849c:	71676002 	mul	t4,t3,a3
9d0084a0:	004c202b 	sltu	a0,v0,t4
9d0084a4:	1080000a 	beqz	a0,9d0084d0 <__divdi3+0xd8>
9d0084a8:	00e03025 	move	a2,a3
9d0084ac:	00481021 	addu	v0,v0,t0
9d0084b0:	0048202b 	sltu	a0,v0,t0
9d0084b4:	14800006 	bnez	a0,9d0084d0 <__divdi3+0xd8>
9d0084b8:	24e6ffff 	addiu	a2,a3,-1
9d0084bc:	004c202b 	sltu	a0,v0,t4
9d0084c0:	50800004 	beqzl	a0,9d0084d4 <__divdi3+0xdc>
9d0084c4:	004c1023 	subu	v0,v0,t4
9d0084c8:	24e6fffe 	addiu	a2,a3,-2
9d0084cc:	00481021 	addu	v0,v0,t0
9d0084d0:	004c1023 	subu	v0,v0,t4
9d0084d4:	0045001b 	divu	zero,v0,a1
9d0084d8:	00a001f4 	teq	a1,zero,0x7
9d0084dc:	314affff 	andi	t2,t2,0xffff
9d0084e0:	00001012 	mflo	v0
9d0084e4:	00002810 	mfhi	a1
9d0084e8:	00052c00 	sll	a1,a1,0x10
9d0084ec:	00aa5025 	or	t2,a1,t2
9d0084f0:	71625802 	mul	t3,t3,v0
9d0084f4:	014b282b 	sltu	a1,t2,t3
9d0084f8:	10a00006 	beqz	a1,9d008514 <__divdi3+0x11c>
9d0084fc:	00402025 	move	a0,v0
9d008500:	010a5021 	addu	t2,t0,t2
9d008504:	0148402b 	sltu	t0,t2,t0
9d008508:	2444ffff 	addiu	a0,v0,-1
9d00850c:	1100003d 	beqz	t0,9d008604 <__divdi3+0x20c>
9d008510:	014b502b 	sltu	t2,t2,t3
9d008514:	00061400 	sll	v0,a2,0x10
9d008518:	00441025 	or	v0,v0,a0
9d00851c:	11200005 	beqz	t1,9d008534 <__divdi3+0x13c>
9d008520:	00000000 	nop
9d008524:	00021023 	negu	v0,v0
9d008528:	0002202b 	sltu	a0,zero,v0
9d00852c:	00031823 	negu	v1,v1
9d008530:	00641823 	subu	v1,v1,a0
9d008534:	03e00008 	jr	ra
9d008538:	00000000 	nop
9d00853c:	15000006 	bnez	t0,9d008558 <__divdi3+0x160>
9d008540:	71021020 	clz	v0,t0
9d008544:	24080001 	li	t0,1
9d008548:	0107001b 	divu	zero,t0,a3
9d00854c:	00e001f4 	teq	a3,zero,0x7
9d008550:	00004012 	mflo	t0
9d008554:	71021020 	clz	v0,t0
9d008558:	1440002e 	bnez	v0,9d008614 <__divdi3+0x21c>
9d00855c:	24030020 	li	v1,32
9d008560:	00a82823 	subu	a1,a1,t0
9d008564:	24030001 	li	v1,1
9d008568:	00083c02 	srl	a3,t0,0x10
9d00856c:	00a7001b 	divu	zero,a1,a3
9d008570:	00e001f4 	teq	a3,zero,0x7
9d008574:	310bffff 	andi	t3,t0,0xffff
9d008578:	000a1402 	srl	v0,t2,0x10
9d00857c:	00002812 	mflo	a1
9d008580:	00002010 	mfhi	a0
9d008584:	00042400 	sll	a0,a0,0x10
9d008588:	00821025 	or	v0,a0,v0
9d00858c:	71656002 	mul	t4,t3,a1
9d008590:	004c202b 	sltu	a0,v0,t4
9d008594:	1080000a 	beqz	a0,9d0085c0 <__divdi3+0x1c8>
9d008598:	00a03025 	move	a2,a1
9d00859c:	00481021 	addu	v0,v0,t0
9d0085a0:	0048202b 	sltu	a0,v0,t0
9d0085a4:	14800006 	bnez	a0,9d0085c0 <__divdi3+0x1c8>
9d0085a8:	24a6ffff 	addiu	a2,a1,-1
9d0085ac:	004c202b 	sltu	a0,v0,t4
9d0085b0:	50800004 	beqzl	a0,9d0085c4 <__divdi3+0x1cc>
9d0085b4:	004c1023 	subu	v0,v0,t4
9d0085b8:	24a6fffe 	addiu	a2,a1,-2
9d0085bc:	00481021 	addu	v0,v0,t0
9d0085c0:	004c1023 	subu	v0,v0,t4
9d0085c4:	0047001b 	divu	zero,v0,a3
9d0085c8:	00e001f4 	teq	a3,zero,0x7
9d0085cc:	314affff 	andi	t2,t2,0xffff
9d0085d0:	00001012 	mflo	v0
9d0085d4:	00003810 	mfhi	a3
9d0085d8:	00073c00 	sll	a3,a3,0x10
9d0085dc:	00ea5025 	or	t2,a3,t2
9d0085e0:	71622802 	mul	a1,t3,v0
9d0085e4:	0145382b 	sltu	a3,t2,a1
9d0085e8:	10e0ffca 	beqz	a3,9d008514 <__divdi3+0x11c>
9d0085ec:	00402025 	move	a0,v0
9d0085f0:	010a5021 	addu	t2,t0,t2
9d0085f4:	0148402b 	sltu	t0,t2,t0
9d0085f8:	1500ffc6 	bnez	t0,9d008514 <__divdi3+0x11c>
9d0085fc:	2444ffff 	addiu	a0,v0,-1
9d008600:	0145502b 	sltu	t2,t2,a1
9d008604:	5540ffc3 	bnezl	t2,9d008514 <__divdi3+0x11c>
9d008608:	2444fffe 	addiu	a0,v0,-2
9d00860c:	1000ffc2 	b	9d008518 <__divdi3+0x120>
9d008610:	00061400 	sll	v0,a2,0x10
9d008614:	00621823 	subu	v1,v1,v0
9d008618:	00484004 	sllv	t0,t0,v0
9d00861c:	00453004 	sllv	a2,a1,v0
9d008620:	00445004 	sllv	t2,a0,v0
9d008624:	00652806 	srlv	a1,a1,v1
9d008628:	00081402 	srl	v0,t0,0x10
9d00862c:	00a2001b 	divu	zero,a1,v0
9d008630:	004001f4 	teq	v0,zero,0x7
9d008634:	3107ffff 	andi	a3,t0,0xffff
9d008638:	00645806 	srlv	t3,a0,v1
9d00863c:	01665825 	or	t3,t3,a2
9d008640:	000b3402 	srl	a2,t3,0x10
9d008644:	00002812 	mflo	a1
9d008648:	00002010 	mfhi	a0
9d00864c:	00042400 	sll	a0,a0,0x10
9d008650:	00862025 	or	a0,a0,a2
9d008654:	70e51802 	mul	v1,a3,a1
9d008658:	0083602b 	sltu	t4,a0,v1
9d00865c:	1180000a 	beqz	t4,9d008688 <__divdi3+0x290>
9d008660:	00a03025 	move	a2,a1
9d008664:	00882021 	addu	a0,a0,t0
9d008668:	0088602b 	sltu	t4,a0,t0
9d00866c:	15800006 	bnez	t4,9d008688 <__divdi3+0x290>
9d008670:	24a6ffff 	addiu	a2,a1,-1
9d008674:	0083602b 	sltu	t4,a0,v1
9d008678:	51800004 	beqzl	t4,9d00868c <__divdi3+0x294>
9d00867c:	00832023 	subu	a0,a0,v1
9d008680:	24a6fffe 	addiu	a2,a1,-2
9d008684:	00882021 	addu	a0,a0,t0
9d008688:	00832023 	subu	a0,a0,v1
9d00868c:	0082001b 	divu	zero,a0,v0
9d008690:	004001f4 	teq	v0,zero,0x7
9d008694:	3165ffff 	andi	a1,t3,0xffff
9d008698:	00001012 	mflo	v0
9d00869c:	00002010 	mfhi	a0
9d0086a0:	00042400 	sll	a0,a0,0x10
9d0086a4:	00852825 	or	a1,a0,a1
9d0086a8:	70e23802 	mul	a3,a3,v0
9d0086ac:	00a7182b 	sltu	v1,a1,a3
9d0086b0:	1060000a 	beqz	v1,9d0086dc <__divdi3+0x2e4>
9d0086b4:	00402025 	move	a0,v0
9d0086b8:	00a82821 	addu	a1,a1,t0
9d0086bc:	00a8182b 	sltu	v1,a1,t0
9d0086c0:	14600006 	bnez	v1,9d0086dc <__divdi3+0x2e4>
9d0086c4:	2444ffff 	addiu	a0,v0,-1
9d0086c8:	00a7182b 	sltu	v1,a1,a3
9d0086cc:	50600004 	beqzl	v1,9d0086e0 <__divdi3+0x2e8>
9d0086d0:	00061c00 	sll	v1,a2,0x10
9d0086d4:	2444fffe 	addiu	a0,v0,-2
9d0086d8:	00a82821 	addu	a1,a1,t0
9d0086dc:	00061c00 	sll	v1,a2,0x10
9d0086e0:	00a72823 	subu	a1,a1,a3
9d0086e4:	1000ffa0 	b	9d008568 <__divdi3+0x170>
9d0086e8:	00641825 	or	v1,v1,a0
9d0086ec:	00a7102b 	sltu	v0,a1,a3
9d0086f0:	1440004f 	bnez	v0,9d008830 <__divdi3+0x438>
9d0086f4:	00001825 	move	v1,zero
9d0086f8:	70eb5820 	clz	t3,a3
9d0086fc:	15600008 	bnez	t3,9d008720 <__divdi3+0x328>
9d008700:	240a0020 	li	t2,32
9d008704:	00e5282b 	sltu	a1,a3,a1
9d008708:	54a0ff84 	bnezl	a1,9d00851c <__divdi3+0x124>
9d00870c:	24020001 	li	v0,1
9d008710:	0086102b 	sltu	v0,a0,a2
9d008714:	38420001 	xori	v0,v0,0x1
9d008718:	1000ff80 	b	9d00851c <__divdi3+0x124>
9d00871c:	00001825 	move	v1,zero
9d008720:	014b5023 	subu	t2,t2,t3
9d008724:	01461006 	srlv	v0,a2,t2
9d008728:	01673804 	sllv	a3,a3,t3
9d00872c:	00473825 	or	a3,v0,a3
9d008730:	00074402 	srl	t0,a3,0x10
9d008734:	01651004 	sllv	v0,a1,t3
9d008738:	01452806 	srlv	a1,a1,t2
9d00873c:	00a8001b 	divu	zero,a1,t0
9d008740:	010001f4 	teq	t0,zero,0x7
9d008744:	01446806 	srlv	t5,a0,t2
9d008748:	30ecffff 	andi	t4,a3,0xffff
9d00874c:	01a26825 	or	t5,t5,v0
9d008750:	000d1c02 	srl	v1,t5,0x10
9d008754:	01663004 	sllv	a2,a2,t3
9d008758:	00002812 	mflo	a1
9d00875c:	00005010 	mfhi	t2
9d008760:	000a5400 	sll	t2,t2,0x10
9d008764:	01435025 	or	t2,t2,v1
9d008768:	71851002 	mul	v0,t4,a1
9d00876c:	0142702b 	sltu	t6,t2,v0
9d008770:	11c0000a 	beqz	t6,9d00879c <__divdi3+0x3a4>
9d008774:	00a01825 	move	v1,a1
9d008778:	01475021 	addu	t2,t2,a3
9d00877c:	0147702b 	sltu	t6,t2,a3
9d008780:	15c00006 	bnez	t6,9d00879c <__divdi3+0x3a4>
9d008784:	24a3ffff 	addiu	v1,a1,-1
9d008788:	0142702b 	sltu	t6,t2,v0
9d00878c:	51c00004 	beqzl	t6,9d0087a0 <__divdi3+0x3a8>
9d008790:	01425023 	subu	t2,t2,v0
9d008794:	24a3fffe 	addiu	v1,a1,-2
9d008798:	01475021 	addu	t2,t2,a3
9d00879c:	01425023 	subu	t2,t2,v0
9d0087a0:	0148001b 	divu	zero,t2,t0
9d0087a4:	010001f4 	teq	t0,zero,0x7
9d0087a8:	31a5ffff 	andi	a1,t5,0xffff
9d0087ac:	00004012 	mflo	t0
9d0087b0:	00005010 	mfhi	t2
9d0087b4:	000a5400 	sll	t2,t2,0x10
9d0087b8:	01452825 	or	a1,t2,a1
9d0087bc:	71886002 	mul	t4,t4,t0
9d0087c0:	00ac102b 	sltu	v0,a1,t4
9d0087c4:	1040000a 	beqz	v0,9d0087f0 <__divdi3+0x3f8>
9d0087c8:	01005025 	move	t2,t0
9d0087cc:	00a72821 	addu	a1,a1,a3
9d0087d0:	00a7102b 	sltu	v0,a1,a3
9d0087d4:	14400006 	bnez	v0,9d0087f0 <__divdi3+0x3f8>
9d0087d8:	250affff 	addiu	t2,t0,-1
9d0087dc:	00ac102b 	sltu	v0,a1,t4
9d0087e0:	10400004 	beqz	v0,9d0087f4 <__divdi3+0x3fc>
9d0087e4:	00031400 	sll	v0,v1,0x10
9d0087e8:	250afffe 	addiu	t2,t0,-2
9d0087ec:	00a72821 	addu	a1,a1,a3
9d0087f0:	00031400 	sll	v0,v1,0x10
9d0087f4:	004a1025 	or	v0,v0,t2
9d0087f8:	00460019 	multu	v0,a2
9d0087fc:	00ac2823 	subu	a1,a1,t4
9d008800:	00003810 	mfhi	a3
9d008804:	00a7182b 	sltu	v1,a1,a3
9d008808:	14600007 	bnez	v1,9d008828 <__divdi3+0x430>
9d00880c:	00003012 	mflo	a2
9d008810:	14a7ff42 	bne	a1,a3,9d00851c <__divdi3+0x124>
9d008814:	00001825 	move	v1,zero
9d008818:	01642004 	sllv	a0,a0,t3
9d00881c:	0086202b 	sltu	a0,a0,a2
9d008820:	1080ff3e 	beqz	a0,9d00851c <__divdi3+0x124>
9d008824:	00000000 	nop
9d008828:	1000ffbb 	b	9d008718 <__divdi3+0x320>
9d00882c:	2442ffff 	addiu	v0,v0,-1
9d008830:	1000ff3a 	b	9d00851c <__divdi3+0x124>
9d008834:	00001025 	move	v0,zero

Disassembly of section .text.dp32subadd:

9d008838 <__subdf3>:
9d008838:	3c018000 00e13826                       ...<&8..

9d008840 <__adddf3>:
9d008840:	00055840 000b5d42 000552c0 00047d42     @X..B]...R..B}..
9d008850:	014f5025 00044ac0 3c088000 01485025     %PO..J.....<%PH.
9d008860:	00077040 000e7542 00076ac0 00067d42     @p..Bu...j..B}..
9d008870:	01af6825 000662c0 01a86825 256fffff     %h...b..%h....o%
9d008880:	2de107fe 1020008d 00000000              ...-.. .....

9d00888c <Blab1>:
9d00888c:	25cfffff 	addiu	t7,t6,-1
9d008890:	2de107fe 	sltiu	at,t7,2046
9d008894:	102000bb 	beqz	at,9d008b84 <BspecB>
9d008898:	00000000 	nop

9d00889c <Blab2>:
9d00889c:	3c018000 	lui	at,0x8000
9d0088a0:	00a12824 	and	a1,a1,at
9d0088a4:	016e4023 	subu	t0,t3,t6
9d0088a8:	1100002c 	beqz	t0,9d00895c <Badd3>
9d0088ac:	00000000 	nop
9d0088b0:	19000015 	blez	t0,9d008908 <i1>
9d0088b4:	00000000 	nop

9d0088b8 <L1>:
9d0088b8:	2d010020 	sltiu	at,t0,32
9d0088bc:	14200007 	bnez	at,9d0088dc <L2>
9d0088c0:	00000000 	nop
9d0088c4:	2108ffe0 	addi	t0,t0,-32
9d0088c8:	000c302b 	sltu	a2,zero,t4
9d0088cc:	100d0023 	beq	zero,t5,9d00895c <Badd3>
9d0088d0:	01a66025 	or	t4,t5,a2
9d0088d4:	1000fff8 	b	9d0088b8 <L1>
9d0088d8:	340d0000 	li	t5,0x0

9d0088dc <L2>:
9d0088dc:	1100001f 	beqz	t0,9d00895c <Badd3>
9d0088e0:	00000000 	nop
9d0088e4:	00082022 	neg	a0,t0
9d0088e8:	008c3004 	sllv	a2,t4,a0
9d0088ec:	008d2004 	sllv	a0,t5,a0
9d0088f0:	010c6006 	srlv	t4,t4,t0
9d0088f4:	010d6806 	srlv	t5,t5,t0
9d0088f8:	10c00018 	beqz	a2,9d00895c <Badd3>
9d0088fc:	008c6025 	or	t4,a0,t4
9d008900:	10000016 	b	9d00895c <Badd3>
9d008904:	358c0002 	ori	t4,t4,0x2

9d008908 <i1>:
9d008908:	000e5825 	or	t3,zero,t6
9d00890c:	00084023 	negu	t0,t0

9d008910 <L4>:
9d008910:	2d010020 	sltiu	at,t0,32
9d008914:	14200007 	bnez	at,9d008934 <L5>
9d008918:	00000000 	nop
9d00891c:	2108ffe0 	addi	t0,t0,-32
9d008920:	0009302b 	sltu	a2,zero,t1
9d008924:	100a000d 	beq	zero,t2,9d00895c <Badd3>
9d008928:	01464825 	or	t1,t2,a2
9d00892c:	1000fff8 	b	9d008910 <L4>
9d008930:	340a0000 	li	t2,0x0

9d008934 <L5>:
9d008934:	11000009 	beqz	t0,9d00895c <Badd3>
9d008938:	00000000 	nop
9d00893c:	00082022 	neg	a0,t0
9d008940:	00893004 	sllv	a2,t1,a0
9d008944:	008a2004 	sllv	a0,t2,a0
9d008948:	01094806 	srlv	t1,t1,t0
9d00894c:	010a5006 	srlv	t2,t2,t0
9d008950:	10c00002 	beqz	a2,9d00895c <Badd3>
9d008954:	00894825 	or	t1,a0,t1
9d008958:	35290002 	ori	t1,t1,0x2

9d00895c <Badd3>:
9d00895c:	00a77826 	xor	t7,a1,a3
9d008960:	05e0001c 	bltz	t7,9d0089d4 <Bsub1>
9d008964:	00000000 	nop
9d008968:	012c4821 	addu	t1,t1,t4
9d00896c:	012c782b 	sltu	t7,t1,t4
9d008970:	014d5021 	addu	t2,t2,t5
9d008974:	014f5021 	addu	t2,t2,t7
9d008978:	114d0002 	beq	t2,t5,9d008984 <L7>
9d00897c:	00000000 	nop
9d008980:	014d782b 	sltu	t7,t2,t5

9d008984 <L7>:
9d008984:	11e00037 	beqz	t7,9d008a64 <Bres>
9d008988:	00000000 	nop
9d00898c:	312f0001 	andi	t7,t1,0x1
9d008990:	11e00002 	beqz	t7,9d00899c <i3>
9d008994:	00000000 	nop
9d008998:	35290002 	ori	t1,t1,0x2

9d00899c <i3>:
9d00899c:	00094842 	srl	t1,t1,0x1
9d0089a0:	000a7fc0 	sll	t7,t2,0x1f
9d0089a4:	012f4825 	or	t1,t1,t7
9d0089a8:	000a5042 	srl	t2,t2,0x1
9d0089ac:	3c018000 	lui	at,0x8000
9d0089b0:	01415025 	or	t2,t2,at
9d0089b4:	256b0001 	addiu	t3,t3,1
9d0089b8:	240107ff 	li	at,2047
9d0089bc:	15610029 	bne	t3,at,9d008a64 <Bres>
9d0089c0:	00000000 	nop
9d0089c4:	3c017ff0 	lui	at,0x7ff0
9d0089c8:	00a12825 	or	a1,a1,at
9d0089cc:	10000037 	b	9d008aac <BretA>
9d0089d0:	24040000 	li	a0,0

9d0089d4 <Bsub1>:
9d0089d4:	012c782b 	sltu	t7,t1,t4
9d0089d8:	012c4823 	subu	t1,t1,t4
9d0089dc:	014f102b 	sltu	v0,t2,t7
9d0089e0:	014f5023 	subu	t2,t2,t7
9d0089e4:	014d782b 	sltu	t7,t2,t5
9d0089e8:	01e27825 	or	t7,t7,v0
9d0089ec:	11e00007 	beqz	t7,9d008a0c <i5>
9d0089f0:	014d5023 	subu	t2,t2,t5
9d0089f4:	3c018000 	lui	at,0x8000
9d0089f8:	00a12826 	xor	a1,a1,at
9d0089fc:	0009782b 	sltu	t7,zero,t1
9d008a00:	00094823 	negu	t1,t1
9d008a04:	000a5023 	negu	t2,t2
9d008a08:	014f5023 	subu	t2,t2,t7

9d008a0c <i5>:
9d008a0c:	15400008 	bnez	t2,9d008a30 <L8>
9d008a10:	00000000 	nop
9d008a14:	15200003 	bnez	t1,9d008a24 <L9>
9d008a18:	00000000 	nop
9d008a1c:	1000000d 	b	9d008a54 <L10>
9d008a20:	240b0000 	li	t3,0

9d008a24 <L9>:
9d008a24:	01205025 	move	t2,t1
9d008a28:	24090000 	li	t1,0
9d008a2c:	256bffe0 	addiu	t3,t3,-32

9d008a30 <L8>:
9d008a30:	71484020 	clz	t0,t2
9d008a34:	11000007 	beqz	t0,9d008a54 <L10>
9d008a38:	00000000 	nop
9d008a3c:	01685823 	subu	t3,t3,t0
9d008a40:	00082022 	neg	a0,t0
9d008a44:	00892006 	srlv	a0,t1,a0
9d008a48:	01094804 	sllv	t1,t1,t0
9d008a4c:	010a5004 	sllv	t2,t2,t0
9d008a50:	01445025 	or	t2,t2,a0

9d008a54 <L10>:
9d008a54:	01497825 	or	t7,t2,t1
9d008a58:	15e00002 	bnez	t7,9d008a64 <Bres>
9d008a5c:	00000000 	nop
9d008a60:	24050000 	li	a1,0

9d008a64 <Bres>:
9d008a64:	19600068 	blez	t3,9d008c08 <Bund>
9d008a68:	00000000 	nop

9d008a6c <Blab8>:
9d008a6c:	25290400 	addiu	t1,t1,1024
9d008a70:	2d2f0400 	sltiu	t7,t1,1024
9d008a74:	014f5021 	addu	t2,t2,t7
9d008a78:	014f782b 	sltu	t7,t2,t7
9d008a7c:	016f5821 	addu	t3,t3,t7
9d008a80:	00097ac2 	srl	t7,t1,0xb
9d008a84:	31ef0001 	andi	t7,t7,0x1
9d008a88:	012f4823 	subu	t1,t1,t7
9d008a8c:	000922c2 	srl	a0,t1,0xb
9d008a90:	000a7d40 	sll	t7,t2,0x15
9d008a94:	008f2025 	or	a0,a0,t7
9d008a98:	000a7840 	sll	t7,t2,0x1
9d008a9c:	000f7b02 	srl	t7,t7,0xc
9d008aa0:	00af2825 	or	a1,a1,t7
9d008aa4:	000b7d00 	sll	t7,t3,0x14
9d008aa8:	00af2825 	or	a1,a1,t7

9d008aac <BretA>:
9d008aac:	00041025 	or	v0,zero,a0
9d008ab0:	00051825 	or	v1,zero,a1

9d008ab4 <B999>:
9d008ab4:	03e00008 	jr	ra
9d008ab8:	00000000 	nop

9d008abc <BspecA>:
9d008abc:	0120782a 	slt	t7,t1,zero
9d008ac0:	01294821 	addu	t1,t1,t1
9d008ac4:	014a5021 	addu	t2,t2,t2
9d008ac8:	15600023 	bnez	t3,9d008b58 <i7>
9d008acc:	014f5021 	addu	t2,t2,t7
9d008ad0:	01497825 	or	t7,t2,t1
9d008ad4:	11e00014 	beqz	t7,9d008b28 <i8>
9d008ad8:	00000000 	nop
9d008adc:	15400008 	bnez	t2,9d008b00 <L11>
9d008ae0:	00000000 	nop
9d008ae4:	15200003 	bnez	t1,9d008af4 <L12>
9d008ae8:	00000000 	nop
9d008aec:	1000ff67 	b	9d00888c <Blab1>
9d008af0:	240b0000 	li	t3,0

9d008af4 <L12>:
9d008af4:	01205025 	move	t2,t1
9d008af8:	24090000 	li	t1,0
9d008afc:	256bffe0 	addiu	t3,t3,-32

9d008b00 <L11>:
9d008b00:	71484020 	clz	t0,t2
9d008b04:	1100ff61 	beqz	t0,9d00888c <Blab1>
9d008b08:	00000000 	nop
9d008b0c:	01685823 	subu	t3,t3,t0
9d008b10:	00082022 	neg	a0,t0
9d008b14:	00892006 	srlv	a0,t1,a0
9d008b18:	01094804 	sllv	t1,t1,t0
9d008b1c:	010a5004 	sllv	t2,t2,t0
9d008b20:	1000ff5a 	b	9d00888c <Blab1>
9d008b24:	01445025 	or	t2,t2,a0

9d008b28 <i8>:
9d008b28:	240107ff 	li	at,2047
9d008b2c:	11c10015 	beq	t6,at,9d008b84 <BspecB>
9d008b30:	00000000 	nop
9d008b34:	00e74021 	addu	t0,a3,a3
9d008b38:	01067825 	or	t7,t0,a2
9d008b3c:	15e00003 	bnez	t7,9d008b4c <BretB>
9d008b40:	00000000 	nop
9d008b44:	04e0ffd9 	bltz	a3,9d008aac <BretA>
9d008b48:	00000000 	nop

9d008b4c <BretB>:
9d008b4c:	00061025 	or	v0,zero,a2
9d008b50:	1000ffd8 	b	9d008ab4 <B999>
9d008b54:	00071825 	or	v1,zero,a3

9d008b58 <i7>:
9d008b58:	01497825 	or	t7,t2,t1
9d008b5c:	15e00027 	bnez	t7,9d008bfc <Bnan>
9d008b60:	00000000 	nop
9d008b64:	240107ff 	li	at,2047
9d008b68:	15c1ffd0 	bne	t6,at,9d008aac <BretA>
9d008b6c:	00000000 	nop
9d008b70:	00a77826 	xor	t7,a1,a3
9d008b74:	05e00021 	bltz	t7,9d008bfc <Bnan>
9d008b78:	00000000 	nop
9d008b7c:	1000fff3 	b	9d008b4c <BretB>
9d008b80:	00000000 	nop

9d008b84 <BspecB>:
9d008b84:	0180782a 	slt	t7,t4,zero
9d008b88:	018c6021 	addu	t4,t4,t4
9d008b8c:	01ad6821 	addu	t5,t5,t5
9d008b90:	15c00017 	bnez	t6,9d008bf0 <i11>
9d008b94:	01af6821 	addu	t5,t5,t7
9d008b98:	01ac7825 	or	t7,t5,t4
9d008b9c:	11e0ffc3 	beqz	t7,9d008aac <BretA>
9d008ba0:	00000000 	nop
9d008ba4:	15a00008 	bnez	t5,9d008bc8 <L14>
9d008ba8:	00000000 	nop
9d008bac:	15800003 	bnez	t4,9d008bbc <L15>
9d008bb0:	00000000 	nop
9d008bb4:	1000ff39 	b	9d00889c <Blab2>
9d008bb8:	240e0000 	li	t6,0

9d008bbc <L15>:
9d008bbc:	01806825 	move	t5,t4
9d008bc0:	240c0000 	li	t4,0
9d008bc4:	25ceffe0 	addiu	t6,t6,-32

9d008bc8 <L14>:
9d008bc8:	71a84020 	clz	t0,t5
9d008bcc:	1100ff33 	beqz	t0,9d00889c <Blab2>
9d008bd0:	00000000 	nop
9d008bd4:	01c87023 	subu	t6,t6,t0
9d008bd8:	00082022 	neg	a0,t0
9d008bdc:	008c2006 	srlv	a0,t4,a0
9d008be0:	010c6004 	sllv	t4,t4,t0
9d008be4:	010d6804 	sllv	t5,t5,t0
9d008be8:	1000ff2c 	b	9d00889c <Blab2>
9d008bec:	01a46825 	or	t5,t5,a0

9d008bf0 <i11>:
9d008bf0:	01ac7825 	or	t7,t5,t4
9d008bf4:	11e0ffd5 	beqz	t7,9d008b4c <BretB>
9d008bf8:	00000000 	nop

9d008bfc <Bnan>:
9d008bfc:	3c05fff8 	lui	a1,0xfff8
9d008c00:	1000ffaa 	b	9d008aac <BretA>
9d008c04:	24040000 	li	a0,0

9d008c08 <Bund>:
9d008c08:	24080001 	li	t0,1
9d008c0c:	010b4023 	subu	t0,t0,t3

9d008c10 <L17>:
9d008c10:	2d010020 	sltiu	at,t0,32
9d008c14:	14200007 	bnez	at,9d008c34 <L18>
9d008c18:	00000000 	nop
9d008c1c:	2108ffe0 	addi	t0,t0,-32
9d008c20:	0009302b 	sltu	a2,zero,t1
9d008c24:	100a000d 	beq	zero,t2,9d008c5c <L19>
9d008c28:	01464825 	or	t1,t2,a2
9d008c2c:	1000fff8 	b	9d008c10 <L17>
9d008c30:	340a0000 	li	t2,0x0

9d008c34 <L18>:
9d008c34:	11000009 	beqz	t0,9d008c5c <L19>
9d008c38:	00000000 	nop
9d008c3c:	00082022 	neg	a0,t0
9d008c40:	00893004 	sllv	a2,t1,a0
9d008c44:	008a2004 	sllv	a0,t2,a0
9d008c48:	01094806 	srlv	t1,t1,t0
9d008c4c:	010a5006 	srlv	t2,t2,t0
9d008c50:	10c00002 	beqz	a2,9d008c5c <L19>
9d008c54:	00894825 	or	t1,a0,t1
9d008c58:	35290002 	ori	t1,t1,0x2

9d008c5c <L19>:
9d008c5c:	1000ff83 	b	9d008a6c <Blab8>
9d008c60:	240b0000 	li	t3,0
9d008c64:	00000000 	nop

Disassembly of section .text.__scan_fp:

9d008c68 <__scan_fp>:
9d008c68:	27bdffb0 	addiu	sp,sp,-80
9d008c6c:	afb60040 	sw	s6,64(sp)
9d008c70:	00e0b025 	move	s6,a3
9d008c74:	afbe0048 	sw	s8,72(sp)
9d008c78:	afb5003c 	sw	s5,60(sp)
9d008c7c:	afb40038 	sw	s4,56(sp)
9d008c80:	afb30034 	sw	s3,52(sp)
9d008c84:	afb20030 	sw	s2,48(sp)
9d008c88:	afb1002c 	sw	s1,44(sp)
9d008c8c:	afb00028 	sw	s0,40(sp)
9d008c90:	8cd10010 	lw	s1,16(a2)
9d008c94:	8cd20008 	lw	s2,8(a2)
9d008c98:	afbf004c 	sw	ra,76(sp)
9d008c9c:	afb70044 	sw	s7,68(sp)
9d008ca0:	00809825 	move	s3,a0
9d008ca4:	afa50054 	sw	a1,84(sp)
9d008ca8:	0f4036f6 	jal	9d00dbd8 <__skipws>
9d008cac:	8cd0000c 	lw	s0,12(a2)
9d008cb0:	8ec30000 	lw	v1,0(s6)
9d008cb4:	0000f025 	move	s8,zero
9d008cb8:	0000a825 	move	s5,zero
9d008cbc:	00621021 	addu	v0,v1,v0
9d008cc0:	aec20000 	sw	v0,0(s6)
9d008cc4:	2622ffff 	addiu	v0,s1,-1
9d008cc8:	0052900a 	movz	s2,v0,s2
9d008ccc:	0052882a 	slt	s1,v0,s2
9d008cd0:	0251100a 	movz	v0,s2,s1
9d008cd4:	00408825 	move	s1,v0
9d008cd8:	00009025 	move	s2,zero
9d008cdc:	0000a025 	move	s4,zero
9d008ce0:	afa0001c 	sw	zero,28(sp)
9d008ce4:	03d1102a 	slt	v0,s8,s1
9d008ce8:	10400017 	beqz	v0,9d008d48 <__scan_fp+0xe0>
9d008cec:	afbe0018 	sw	s8,24(sp)
9d008cf0:	8e62003c 	lw	v0,60(s3)
9d008cf4:	8e63004c 	lw	v1,76(s3)
9d008cf8:	0043182b 	sltu	v1,v0,v1
9d008cfc:	10600022 	beqz	v1,9d008d88 <__scan_fp+0x120>
9d008d00:	24430001 	addiu	v1,v0,1
9d008d04:	ae63003c 	sw	v1,60(s3)
9d008d08:	90570000 	lbu	s7,0(v0)
9d008d0c:	26e2ffd5 	addiu	v0,s7,-43
9d008d10:	7c020844 	ins	v0,zero,0x1,0x1
9d008d14:	00521025 	or	v0,v0,s2
9d008d18:	54400038 	bnezl	v0,9d008dfc <__scan_fp+0x194>
9d008d1c:	8fa2001c 	lw	v0,28(sp)
9d008d20:	13c0002f 	beqz	s8,9d008de0 <__scan_fp+0x178>
9d008d24:	021e1021 	addu	v0,s0,s8
9d008d28:	529e002e 	beql	s4,s8,9d008de4 <__scan_fp+0x17c>
9d008d2c:	a0570000 	sb	s7,0(v0)
9d008d30:	8e62004c 	lw	v0,76(s3)
9d008d34:	10400005 	beqz	v0,9d008d4c <__scan_fp+0xe4>
9d008d38:	8fa20018 	lw	v0,24(sp)
9d008d3c:	8e62003c 	lw	v0,60(s3)
9d008d40:	2442ffff 	addiu	v0,v0,-1
9d008d44:	ae62003c 	sw	v0,60(s3)
9d008d48:	8fa20018 	lw	v0,24(sp)
9d008d4c:	02002025 	move	a0,s0
9d008d50:	27a50010 	addiu	a1,sp,16
9d008d54:	02029821 	addu	s3,s0,v0
9d008d58:	0f403fbe 	jal	9d00fef8 <strtold>
9d008d5c:	a2600000 	sb	zero,0(s3)
9d008d60:	8fa40054 	lw	a0,84(sp)
9d008d64:	ac830004 	sw	v1,4(a0)
9d008d68:	8fa30010 	lw	v1,16(sp)
9d008d6c:	ac820000 	sw	v0,0(a0)
9d008d70:	2402fffe 	li	v0,-2
9d008d74:	00708026 	xor	s0,v1,s0
9d008d78:	24030001 	li	v1,1
9d008d7c:	0050180a 	movz	v1,v0,s0
9d008d80:	1000000a 	b	9d008dac <__scan_fp+0x144>
9d008d84:	0060b825 	move	s7,v1
9d008d88:	0f403330 	jal	9d00ccc0 <__shgetc>
9d008d8c:	02602025 	move	a0,s3
9d008d90:	0040b825 	move	s7,v0
9d008d94:	2402ffff 	li	v0,-1
9d008d98:	16e2ffdd 	bne	s7,v0,9d008d10 <__scan_fp+0xa8>
9d008d9c:	26e2ffd5 	addiu	v0,s7,-43
9d008da0:	8fa20018 	lw	v0,24(sp)
9d008da4:	5440ffea 	bnezl	v0,9d008d50 <__scan_fp+0xe8>
9d008da8:	02002025 	move	a0,s0
9d008dac:	8fbf004c 	lw	ra,76(sp)
9d008db0:	02e01025 	move	v0,s7
9d008db4:	8fbe0048 	lw	s8,72(sp)
9d008db8:	8fb70044 	lw	s7,68(sp)
9d008dbc:	8fb60040 	lw	s6,64(sp)
9d008dc0:	8fb5003c 	lw	s5,60(sp)
9d008dc4:	8fb40038 	lw	s4,56(sp)
9d008dc8:	8fb30034 	lw	s3,52(sp)
9d008dcc:	8fb20030 	lw	s2,48(sp)
9d008dd0:	8fb1002c 	lw	s1,44(sp)
9d008dd4:	8fb00028 	lw	s0,40(sp)
9d008dd8:	03e00008 	jr	ra
9d008ddc:	27bd0050 	addiu	sp,sp,80
9d008de0:	a0570000 	sb	s7,0(v0)
9d008de4:	8ec20000 	lw	v0,0(s6)
9d008de8:	24120001 	li	s2,1
9d008dec:	24420001 	addiu	v0,v0,1
9d008df0:	aec20000 	sw	v0,0(s6)
9d008df4:	1000ffbb 	b	9d008ce4 <__scan_fp+0x7c>
9d008df8:	27de0001 	addiu	s8,s8,1
9d008dfc:	1440000d 	bnez	v0,9d008e34 <__scan_fp+0x1cc>
9d008e00:	2402002e 	li	v0,46
9d008e04:	16e2000b 	bne	s7,v0,9d008e34 <__scan_fp+0x1cc>
9d008e08:	00000000 	nop
9d008e0c:	5680ffc9 	bnezl	s4,9d008d34 <__scan_fp+0xcc>
9d008e10:	8e62004c 	lw	v0,76(s3)
9d008e14:	021e1021 	addu	v0,s0,s8
9d008e18:	a0570000 	sb	s7,0(v0)
9d008e1c:	8ec20000 	lw	v0,0(s6)
9d008e20:	24420001 	addiu	v0,v0,1
9d008e24:	aec20000 	sw	v0,0(s6)
9d008e28:	24020001 	li	v0,1
9d008e2c:	1000fff1 	b	9d008df4 <__scan_fp+0x18c>
9d008e30:	afa2001c 	sw	v0,28(sp)
9d008e34:	16800015 	bnez	s4,9d008e8c <__scan_fp+0x224>
9d008e38:	00000000 	nop
9d008e3c:	12a0000f 	beqz	s5,9d008e7c <__scan_fp+0x214>
9d008e40:	02e02025 	move	a0,s7
9d008e44:	0f403fda 	jal	9d00ff68 <tolower>
9d008e48:	00000000 	nop
9d008e4c:	38420070 	xori	v0,v0,0x70
9d008e50:	2c420001 	sltiu	v0,v0,1
9d008e54:	10400071 	beqz	v0,9d00901c <__scan_fp+0x3b4>
9d008e58:	26420001 	addiu	v0,s2,1
9d008e5c:	021e1021 	addu	v0,s0,s8
9d008e60:	a0570000 	sb	s7,0(v0)
9d008e64:	8ec20000 	lw	v0,0(s6)
9d008e68:	00009025 	move	s2,zero
9d008e6c:	27d40001 	addiu	s4,s8,1
9d008e70:	24420001 	addiu	v0,v0,1
9d008e74:	1000ffdf 	b	9d008df4 <__scan_fp+0x18c>
9d008e78:	aec20000 	sw	v0,0(s6)
9d008e7c:	0f403fda 	jal	9d00ff68 <tolower>
9d008e80:	00000000 	nop
9d008e84:	1000fff2 	b	9d008e50 <__scan_fp+0x1e8>
9d008e88:	38420065 	xori	v0,v0,0x65
9d008e8c:	12a0003c 	beqz	s5,9d008f80 <__scan_fp+0x318>
9d008e90:	26e2ffd0 	addiu	v0,s7,-48
9d008e94:	0f403f8e 	jal	9d00fe38 <isxdigit>
9d008e98:	02e02025 	move	a0,s7
9d008e9c:	2c420001 	sltiu	v0,v0,1
9d008ea0:	10400059 	beqz	v0,9d009008 <__scan_fp+0x3a0>
9d008ea4:	021e1021 	addu	v0,s0,s8
9d008ea8:	8e62004c 	lw	v0,76(s3)
9d008eac:	10400004 	beqz	v0,9d008ec0 <__scan_fp+0x258>
9d008eb0:	00000000 	nop
9d008eb4:	8e62003c 	lw	v0,60(s3)
9d008eb8:	2442ffff 	addiu	v0,v0,-1
9d008ebc:	ae62003c 	sw	v0,60(s3)
9d008ec0:	17d2ffa2 	bne	s8,s2,9d008d4c <__scan_fp+0xe4>
9d008ec4:	8fa20018 	lw	v0,24(sp)
9d008ec8:	3c029d00 	lui	v0,0x9d00
9d008ecc:	27d20002 	addiu	s2,s8,2
9d008ed0:	24421f30 	addiu	v0,v0,7984
9d008ed4:	0251882a 	slt	s1,s2,s1
9d008ed8:	1220ff9b 	beqz	s1,9d008d48 <__scan_fp+0xe0>
9d008edc:	afa20010 	sw	v0,16(sp)
9d008ee0:	3c029d00 	lui	v0,0x9d00
9d008ee4:	24421f34 	addiu	v0,v0,7988
9d008ee8:	afa20014 	sw	v0,20(sp)
9d008eec:	27c20003 	addiu	v0,s8,3
9d008ef0:	afa2001c 	sw	v0,28(sp)
9d008ef4:	03c0b825 	move	s7,s8
9d008ef8:	2414ffff 	li	s4,-1
9d008efc:	2415ffff 	li	s5,-1
9d008f00:	8e62003c 	lw	v0,60(s3)
9d008f04:	8e63004c 	lw	v1,76(s3)
9d008f08:	0043182b 	sltu	v1,v0,v1
9d008f0c:	1060001f 	beqz	v1,9d008f8c <__scan_fp+0x324>
9d008f10:	02e08825 	move	s1,s7
9d008f14:	24430001 	addiu	v1,v0,1
9d008f18:	ae63003c 	sw	v1,60(s3)
9d008f1c:	90430000 	lbu	v1,0(v0)
9d008f20:	16950020 	bne	s4,s5,9d008fa4 <__scan_fp+0x33c>
9d008f24:	00602025 	move	a0,v1
9d008f28:	0f403fda 	jal	9d00ff68 <tolower>
9d008f2c:	00000000 	nop
9d008f30:	00401825 	move	v1,v0
9d008f34:	24020069 	li	v0,105
9d008f38:	10620031 	beq	v1,v0,9d009000 <__scan_fp+0x398>
9d008f3c:	2402006e 	li	v0,110
9d008f40:	50620023 	beql	v1,v0,9d008fd0 <__scan_fp+0x368>
9d008f44:	24140001 	li	s4,1
9d008f48:	0257902a 	slt	s2,s2,s7
9d008f4c:	16400027 	bnez	s2,9d008fec <__scan_fp+0x384>
9d008f50:	8fa2001c 	lw	v0,28(sp)
9d008f54:	2631ffff 	addiu	s1,s1,-1
9d008f58:	023e102a 	slt	v0,s1,s8
9d008f5c:	1440ff7b 	bnez	v0,9d008d4c <__scan_fp+0xe4>
9d008f60:	8fa20018 	lw	v0,24(sp)
9d008f64:	8e62004c 	lw	v0,76(s3)
9d008f68:	5040fffb 	beqzl	v0,9d008f58 <__scan_fp+0x2f0>
9d008f6c:	2631ffff 	addiu	s1,s1,-1
9d008f70:	8e62003c 	lw	v0,60(s3)
9d008f74:	2442ffff 	addiu	v0,v0,-1
9d008f78:	1000fff6 	b	9d008f54 <__scan_fp+0x2ec>
9d008f7c:	ae62003c 	sw	v0,60(s3)
9d008f80:	2c42000a 	sltiu	v0,v0,10
9d008f84:	1000ffc6 	b	9d008ea0 <__scan_fp+0x238>
9d008f88:	38420001 	xori	v0,v0,0x1
9d008f8c:	0f403330 	jal	9d00ccc0 <__shgetc>
9d008f90:	02602025 	move	a0,s3
9d008f94:	1455ffe2 	bne	v0,s5,9d008f20 <__scan_fp+0x2b8>
9d008f98:	00401825 	move	v1,v0
9d008f9c:	1000ff6b 	b	9d008d4c <__scan_fp+0xe4>
9d008fa0:	8fa20018 	lw	v0,24(sp)
9d008fa4:	0f403fda 	jal	9d00ff68 <tolower>
9d008fa8:	afa30020 	sw	v1,32(sp)
9d008fac:	27a30010 	addiu	v1,sp,16
9d008fb0:	00145080 	sll	t2,s4,0x2
9d008fb4:	006a5021 	addu	t2,v1,t2
9d008fb8:	8d4a0000 	lw	t2,0(t2)
9d008fbc:	02fe2023 	subu	a0,s7,s8
9d008fc0:	01442021 	addu	a0,t2,a0
9d008fc4:	80840000 	lb	a0,0(a0)
9d008fc8:	1444ffdf 	bne	v0,a0,9d008f48 <__scan_fp+0x2e0>
9d008fcc:	8fa30020 	lw	v1,32(sp)
9d008fd0:	02171021 	addu	v0,s0,s7
9d008fd4:	a0430000 	sb	v1,0(v0)
9d008fd8:	8fa2001c 	lw	v0,28(sp)
9d008fdc:	26f70001 	addiu	s7,s7,1
9d008fe0:	56e2ffc8 	bnel	s7,v0,9d008f04 <__scan_fp+0x29c>
9d008fe4:	8e62003c 	lw	v0,60(s3)
9d008fe8:	8fa2001c 	lw	v0,28(sp)
9d008fec:	afa20018 	sw	v0,24(sp)
9d008ff0:	8ec20000 	lw	v0,0(s6)
9d008ff4:	24420003 	addiu	v0,v0,3
9d008ff8:	1000ff53 	b	9d008d48 <__scan_fp+0xe0>
9d008ffc:	aec20000 	sw	v0,0(s6)
9d009000:	1000fff3 	b	9d008fd0 <__scan_fp+0x368>
9d009004:	0000a025 	move	s4,zero
9d009008:	a0570000 	sb	s7,0(v0)
9d00900c:	8ec20000 	lw	v0,0(s6)
9d009010:	24420001 	addiu	v0,v0,1
9d009014:	1000ff77 	b	9d008df4 <__scan_fp+0x18c>
9d009018:	aec20000 	sw	v0,0(s6)
9d00901c:	145eff9b 	bne	v0,s8,9d008e8c <__scan_fp+0x224>
9d009020:	00000000 	nop
9d009024:	0f403fda 	jal	9d00ff68 <tolower>
9d009028:	02e02025 	move	a0,s7
9d00902c:	24030078 	li	v1,120
9d009030:	1443ff96 	bne	v0,v1,9d008e8c <__scan_fp+0x224>
9d009034:	021e1021 	addu	v0,s0,s8
9d009038:	8044ffff 	lb	a0,-1(v0)
9d00903c:	24030030 	li	v1,48
9d009040:	1483ff92 	bne	a0,v1,9d008e8c <__scan_fp+0x224>
9d009044:	00000000 	nop
9d009048:	a0570000 	sb	s7,0(v0)
9d00904c:	8ec20000 	lw	v0,0(s6)
9d009050:	24150001 	li	s5,1
9d009054:	24420001 	addiu	v0,v0,1
9d009058:	1000ff66 	b	9d008df4 <__scan_fp+0x18c>
9d00905c:	aec20000 	sw	v0,0(s6)

Disassembly of section .text:

9d009060 <__umoddi3>:
9d009060:	00c04825 	move	t1,a2
9d009064:	00801025 	move	v0,a0
9d009068:	14e00099 	bnez	a3,9d0092d0 <__umoddi3+0x270>
9d00906c:	00a01825 	move	v1,a1
9d009070:	00a6302b 	sltu	a2,a1,a2
9d009074:	10c00034 	beqz	a2,9d009148 <__umoddi3+0xe8>
9d009078:	712a5020 	clz	t2,t1
9d00907c:	51400008 	beqzl	t2,9d0090a0 <__umoddi3+0x40>
9d009080:	00092402 	srl	a0,t1,0x10
9d009084:	01451804 	sllv	v1,a1,t2
9d009088:	000a2823 	negu	a1,t2
9d00908c:	00a42806 	srlv	a1,a0,a1
9d009090:	01494804 	sllv	t1,t1,t2
9d009094:	00a31825 	or	v1,a1,v1
9d009098:	01441004 	sllv	v0,a0,t2
9d00909c:	00092402 	srl	a0,t1,0x10
9d0090a0:	0064001b 	divu	zero,v1,a0
9d0090a4:	008001f4 	teq	a0,zero,0x7
9d0090a8:	3127ffff 	andi	a3,t1,0xffff
9d0090ac:	00001812 	mflo	v1
9d0090b0:	00002810 	mfhi	a1
9d0090b4:	70673002 	mul	a2,v1,a3
9d0090b8:	00051c00 	sll	v1,a1,0x10
9d0090bc:	00022c02 	srl	a1,v0,0x10
9d0090c0:	00651825 	or	v1,v1,a1
9d0090c4:	0066282b 	sltu	a1,v1,a2
9d0090c8:	50a00009 	beqzl	a1,9d0090f0 <__umoddi3+0x90>
9d0090cc:	00661823 	subu	v1,v1,a2
9d0090d0:	00691821 	addu	v1,v1,t1
9d0090d4:	0069282b 	sltu	a1,v1,t1
9d0090d8:	54a00005 	bnezl	a1,9d0090f0 <__umoddi3+0x90>
9d0090dc:	00661823 	subu	v1,v1,a2
9d0090e0:	0066282b 	sltu	a1,v1,a2
9d0090e4:	54a00001 	bnezl	a1,9d0090ec <__umoddi3+0x8c>
9d0090e8:	00691821 	addu	v1,v1,t1
9d0090ec:	00661823 	subu	v1,v1,a2
9d0090f0:	0064001b 	divu	zero,v1,a0
9d0090f4:	008001f4 	teq	a0,zero,0x7
9d0090f8:	3042ffff 	andi	v0,v0,0xffff
9d0090fc:	00001812 	mflo	v1
9d009100:	00003010 	mfhi	a2
9d009104:	70672002 	mul	a0,v1,a3
9d009108:	00061c00 	sll	v1,a2,0x10
9d00910c:	00621025 	or	v0,v1,v0
9d009110:	0044182b 	sltu	v1,v0,a0
9d009114:	50600009 	beqzl	v1,9d00913c <__umoddi3+0xdc>
9d009118:	00441023 	subu	v0,v0,a0
9d00911c:	00491021 	addu	v0,v0,t1
9d009120:	0049182b 	sltu	v1,v0,t1
9d009124:	54600005 	bnezl	v1,9d00913c <__umoddi3+0xdc>
9d009128:	00441023 	subu	v0,v0,a0
9d00912c:	0044182b 	sltu	v1,v0,a0
9d009130:	54600001 	bnezl	v1,9d009138 <__umoddi3+0xd8>
9d009134:	00491021 	addu	v0,v0,t1
9d009138:	00441023 	subu	v0,v0,a0
9d00913c:	01421006 	srlv	v0,v0,t2
9d009140:	03e00008 	jr	ra
9d009144:	00001825 	move	v1,zero
9d009148:	15200005 	bnez	t1,9d009160 <__umoddi3+0x100>
9d00914c:	24030001 	li	v1,1
9d009150:	0069001b 	divu	zero,v1,t1
9d009154:	012001f4 	teq	t1,zero,0x7
9d009158:	00004812 	mflo	t1
9d00915c:	712a5020 	clz	t2,t1
9d009160:	1540002b 	bnez	t2,9d009210 <__umoddi3+0x1b0>
9d009164:	24070020 	li	a3,32
9d009168:	00a92823 	subu	a1,a1,t1
9d00916c:	00092402 	srl	a0,t1,0x10
9d009170:	00a4001b 	divu	zero,a1,a0
9d009174:	008001f4 	teq	a0,zero,0x7
9d009178:	3127ffff 	andi	a3,t1,0xffff
9d00917c:	00002812 	mflo	a1
9d009180:	00001810 	mfhi	v1
9d009184:	70a73002 	mul	a2,a1,a3
9d009188:	00032c00 	sll	a1,v1,0x10
9d00918c:	00021c02 	srl	v1,v0,0x10
9d009190:	00a32825 	or	a1,a1,v1
9d009194:	00a6182b 	sltu	v1,a1,a2
9d009198:	50600009 	beqzl	v1,9d0091c0 <__umoddi3+0x160>
9d00919c:	00a63023 	subu	a2,a1,a2
9d0091a0:	00a92821 	addu	a1,a1,t1
9d0091a4:	00a9182b 	sltu	v1,a1,t1
9d0091a8:	54600005 	bnezl	v1,9d0091c0 <__umoddi3+0x160>
9d0091ac:	00a63023 	subu	a2,a1,a2
9d0091b0:	00a6182b 	sltu	v1,a1,a2
9d0091b4:	54600001 	bnezl	v1,9d0091bc <__umoddi3+0x15c>
9d0091b8:	00a92821 	addu	a1,a1,t1
9d0091bc:	00a63023 	subu	a2,a1,a2
9d0091c0:	00c4001b 	divu	zero,a2,a0
9d0091c4:	008001f4 	teq	a0,zero,0x7
9d0091c8:	3042ffff 	andi	v0,v0,0xffff
9d0091cc:	00003012 	mflo	a2
9d0091d0:	00002810 	mfhi	a1
9d0091d4:	70c71802 	mul	v1,a2,a3
9d0091d8:	00053400 	sll	a2,a1,0x10
9d0091dc:	00c21025 	or	v0,a2,v0
9d0091e0:	0043202b 	sltu	a0,v0,v1
9d0091e4:	5080ffd5 	beqzl	a0,9d00913c <__umoddi3+0xdc>
9d0091e8:	00431023 	subu	v0,v0,v1
9d0091ec:	00491021 	addu	v0,v0,t1
9d0091f0:	0049202b 	sltu	a0,v0,t1
9d0091f4:	5480ffd1 	bnezl	a0,9d00913c <__umoddi3+0xdc>
9d0091f8:	00431023 	subu	v0,v0,v1
9d0091fc:	0043202b 	sltu	a0,v0,v1
9d009200:	54800001 	bnezl	a0,9d009208 <__umoddi3+0x1a8>
9d009204:	00491021 	addu	v0,v0,t1
9d009208:	1000ffcc 	b	9d00913c <__umoddi3+0xdc>
9d00920c:	00431023 	subu	v0,v0,v1
9d009210:	00ea3823 	subu	a3,a3,t2
9d009214:	01494804 	sllv	t1,t1,t2
9d009218:	00e41806 	srlv	v1,a0,a3
9d00921c:	00093402 	srl	a2,t1,0x10
9d009220:	00e53806 	srlv	a3,a1,a3
9d009224:	00e6001b 	divu	zero,a3,a2
9d009228:	00c001f4 	teq	a2,zero,0x7
9d00922c:	01451004 	sllv	v0,a1,t2
9d009230:	312bffff 	andi	t3,t1,0xffff
9d009234:	00621825 	or	v1,v1,v0
9d009238:	01441004 	sllv	v0,a0,t2
9d00923c:	00032c02 	srl	a1,v1,0x10
9d009240:	00003812 	mflo	a3
9d009244:	00002010 	mfhi	a0
9d009248:	70eb4002 	mul	t0,a3,t3
9d00924c:	00043c00 	sll	a3,a0,0x10
9d009250:	00e53825 	or	a3,a3,a1
9d009254:	00e8202b 	sltu	a0,a3,t0
9d009258:	50800009 	beqzl	a0,9d009280 <__umoddi3+0x220>
9d00925c:	00e83823 	subu	a3,a3,t0
9d009260:	00e93821 	addu	a3,a3,t1
9d009264:	00e9202b 	sltu	a0,a3,t1
9d009268:	54800005 	bnezl	a0,9d009280 <__umoddi3+0x220>
9d00926c:	00e83823 	subu	a3,a3,t0
9d009270:	00e8202b 	sltu	a0,a3,t0
9d009274:	54800001 	bnezl	a0,9d00927c <__umoddi3+0x21c>
9d009278:	00e93821 	addu	a3,a3,t1
9d00927c:	00e83823 	subu	a3,a3,t0
9d009280:	00e6001b 	divu	zero,a3,a2
9d009284:	00c001f4 	teq	a2,zero,0x7
9d009288:	3065ffff 	andi	a1,v1,0xffff
9d00928c:	00003012 	mflo	a2
9d009290:	00003810 	mfhi	a3
9d009294:	00073c00 	sll	a3,a3,0x10
9d009298:	00e52825 	or	a1,a3,a1
9d00929c:	70cb3002 	mul	a2,a2,t3
9d0092a0:	00a6182b 	sltu	v1,a1,a2
9d0092a4:	5060ffb1 	beqzl	v1,9d00916c <__umoddi3+0x10c>
9d0092a8:	00a62823 	subu	a1,a1,a2
9d0092ac:	00a92821 	addu	a1,a1,t1
9d0092b0:	00a9182b 	sltu	v1,a1,t1
9d0092b4:	5460ffad 	bnezl	v1,9d00916c <__umoddi3+0x10c>
9d0092b8:	00a62823 	subu	a1,a1,a2
9d0092bc:	00a6182b 	sltu	v1,a1,a2
9d0092c0:	54600001 	bnezl	v1,9d0092c8 <__umoddi3+0x268>
9d0092c4:	00a92821 	addu	a1,a1,t1
9d0092c8:	1000ffa8 	b	9d00916c <__umoddi3+0x10c>
9d0092cc:	00a62823 	subu	a1,a1,a2
9d0092d0:	00a7402b 	sltu	t0,a1,a3
9d0092d4:	1500005e 	bnez	t0,9d009450 <__umoddi3+0x3f0>
9d0092d8:	70ee7020 	clz	t6,a3
9d0092dc:	15c0000c 	bnez	t6,9d009310 <__umoddi3+0x2b0>
9d0092e0:	240b0020 	li	t3,32
9d0092e4:	00e5402b 	sltu	t0,a3,a1
9d0092e8:	55000005 	bnezl	t0,9d009300 <__umoddi3+0x2a0>
9d0092ec:	00861023 	subu	v0,a0,a2
9d0092f0:	0086402b 	sltu	t0,a0,a2
9d0092f4:	15000056 	bnez	t0,9d009450 <__umoddi3+0x3f0>
9d0092f8:	00000000 	nop
9d0092fc:	00861023 	subu	v0,a0,a2
9d009300:	00a72823 	subu	a1,a1,a3
9d009304:	0082182b 	sltu	v1,a0,v0
9d009308:	03e00008 	jr	ra
9d00930c:	00a31823 	subu	v1,a1,v1
9d009310:	016e5823 	subu	t3,t3,t6
9d009314:	01666006 	srlv	t4,a2,t3
9d009318:	01c73804 	sllv	a3,a3,t6
9d00931c:	01873825 	or	a3,t4,a3
9d009320:	01c51804 	sllv	v1,a1,t6
9d009324:	00074c02 	srl	t1,a3,0x10
9d009328:	01652806 	srlv	a1,a1,t3
9d00932c:	00a9001b 	divu	zero,a1,t1
9d009330:	012001f4 	teq	t1,zero,0x7
9d009334:	01c61004 	sllv	v0,a2,t6
9d009338:	30e8ffff 	andi	t0,a3,0xffff
9d00933c:	01643006 	srlv	a2,a0,t3
9d009340:	00c33025 	or	a2,a2,v1
9d009344:	00066402 	srl	t4,a2,0x10
9d009348:	01c42004 	sllv	a0,a0,t6
9d00934c:	00002812 	mflo	a1
9d009350:	00005010 	mfhi	t2
9d009354:	000a5400 	sll	t2,t2,0x10
9d009358:	014c5025 	or	t2,t2,t4
9d00935c:	71051802 	mul	v1,t0,a1
9d009360:	0143602b 	sltu	t4,t2,v1
9d009364:	1180000a 	beqz	t4,9d009390 <__umoddi3+0x330>
9d009368:	00a06825 	move	t5,a1
9d00936c:	01475021 	addu	t2,t2,a3
9d009370:	0147602b 	sltu	t4,t2,a3
9d009374:	15800006 	bnez	t4,9d009390 <__umoddi3+0x330>
9d009378:	24adffff 	addiu	t5,a1,-1
9d00937c:	0143602b 	sltu	t4,t2,v1
9d009380:	51800004 	beqzl	t4,9d009394 <__umoddi3+0x334>
9d009384:	01435023 	subu	t2,t2,v1
9d009388:	24adfffe 	addiu	t5,a1,-2
9d00938c:	01475021 	addu	t2,t2,a3
9d009390:	01435023 	subu	t2,t2,v1
9d009394:	0149001b 	divu	zero,t2,t1
9d009398:	012001f4 	teq	t1,zero,0x7
9d00939c:	00004812 	mflo	t1
9d0093a0:	00005010 	mfhi	t2
9d0093a4:	000a5400 	sll	t2,t2,0x10
9d0093a8:	71091802 	mul	v1,t0,t1
9d0093ac:	30c8ffff 	andi	t0,a2,0xffff
9d0093b0:	01484025 	or	t0,t2,t0
9d0093b4:	0103302b 	sltu	a2,t0,v1
9d0093b8:	10c0000a 	beqz	a2,9d0093e4 <__umoddi3+0x384>
9d0093bc:	01202825 	move	a1,t1
9d0093c0:	01074021 	addu	t0,t0,a3
9d0093c4:	0107302b 	sltu	a2,t0,a3
9d0093c8:	14c00006 	bnez	a2,9d0093e4 <__umoddi3+0x384>
9d0093cc:	2525ffff 	addiu	a1,t1,-1
9d0093d0:	0103302b 	sltu	a2,t0,v1
9d0093d4:	10c00004 	beqz	a2,9d0093e8 <__umoddi3+0x388>
9d0093d8:	000d6400 	sll	t4,t5,0x10
9d0093dc:	2525fffe 	addiu	a1,t1,-2
9d0093e0:	01074021 	addu	t0,t0,a3
9d0093e4:	000d6400 	sll	t4,t5,0x10
9d0093e8:	01856025 	or	t4,t4,a1
9d0093ec:	01820019 	multu	t4,v0
9d0093f0:	01034023 	subu	t0,t0,v1
9d0093f4:	00006810 	mfhi	t5
9d0093f8:	010d282b 	sltu	a1,t0,t5
9d0093fc:	01a01825 	move	v1,t5
9d009400:	00006012 	mflo	t4
9d009404:	14a00006 	bnez	a1,9d009420 <__umoddi3+0x3c0>
9d009408:	00003012 	mflo	a2
9d00940c:	150d0009 	bne	t0,t5,9d009434 <__umoddi3+0x3d4>
9d009410:	00863023 	subu	a2,a0,a2
9d009414:	008c282b 	sltu	a1,a0,t4
9d009418:	50a00007 	beqzl	a1,9d009438 <__umoddi3+0x3d8>
9d00941c:	01034023 	subu	t0,t0,v1
9d009420:	01823023 	subu	a2,t4,v0
9d009424:	01a73823 	subu	a3,t5,a3
9d009428:	0186602b 	sltu	t4,t4,a2
9d00942c:	00ec1823 	subu	v1,a3,t4
9d009430:	00863023 	subu	a2,a0,a2
9d009434:	01034023 	subu	t0,t0,v1
9d009438:	0086182b 	sltu	v1,a0,a2
9d00943c:	01031823 	subu	v1,t0,v1
9d009440:	01631004 	sllv	v0,v1,t3
9d009444:	01c63006 	srlv	a2,a2,t6
9d009448:	00461025 	or	v0,v0,a2
9d00944c:	01c31806 	srlv	v1,v1,t6
9d009450:	03e00008 	jr	ra
9d009454:	00000000 	nop

9d009458 <__udivdi3>:
9d009458:	00c04025 	move	t0,a2
9d00945c:	00e01825 	move	v1,a3
9d009460:	00805025 	move	t2,a0
9d009464:	14e000a3 	bnez	a3,9d0096f4 <__udivdi3+0x29c>
9d009468:	00a01025 	move	v0,a1
9d00946c:	00a6302b 	sltu	a2,a1,a2
9d009470:	10c00034 	beqz	a2,9d009544 <__udivdi3+0xec>
9d009474:	00000000 	nop
9d009478:	71052820 	clz	a1,t0
9d00947c:	50a00008 	beqzl	a1,9d0094a0 <__udivdi3+0x48>
9d009480:	00082c02 	srl	a1,t0,0x10
9d009484:	00052023 	negu	a0,a1
9d009488:	008a2006 	srlv	a0,t2,a0
9d00948c:	00a21004 	sllv	v0,v0,a1
9d009490:	00a84004 	sllv	t0,t0,a1
9d009494:	00821025 	or	v0,a0,v0
9d009498:	00aa5004 	sllv	t2,t2,a1
9d00949c:	00082c02 	srl	a1,t0,0x10
9d0094a0:	0045001b 	divu	zero,v0,a1
9d0094a4:	00a001f4 	teq	a1,zero,0x7
9d0094a8:	3107ffff 	andi	a3,t0,0xffff
9d0094ac:	000a2402 	srl	a0,t2,0x10
9d0094b0:	00003012 	mflo	a2
9d0094b4:	00001010 	mfhi	v0
9d0094b8:	00021400 	sll	v0,v0,0x10
9d0094bc:	00442025 	or	a0,v0,a0
9d0094c0:	70e64802 	mul	t1,a3,a2
9d0094c4:	0089582b 	sltu	t3,a0,t1
9d0094c8:	1160000a 	beqz	t3,9d0094f4 <__udivdi3+0x9c>
9d0094cc:	00c01025 	move	v0,a2
9d0094d0:	00882021 	addu	a0,a0,t0
9d0094d4:	0088582b 	sltu	t3,a0,t0
9d0094d8:	15600006 	bnez	t3,9d0094f4 <__udivdi3+0x9c>
9d0094dc:	24c2ffff 	addiu	v0,a2,-1
9d0094e0:	0089582b 	sltu	t3,a0,t1
9d0094e4:	51600004 	beqzl	t3,9d0094f8 <__udivdi3+0xa0>
9d0094e8:	00892023 	subu	a0,a0,t1
9d0094ec:	24c2fffe 	addiu	v0,a2,-2
9d0094f0:	00882021 	addu	a0,a0,t0
9d0094f4:	00892023 	subu	a0,a0,t1
9d0094f8:	0085001b 	divu	zero,a0,a1
9d0094fc:	00a001f4 	teq	a1,zero,0x7
9d009500:	314affff 	andi	t2,t2,0xffff
9d009504:	00002012 	mflo	a0
9d009508:	00002810 	mfhi	a1
9d00950c:	00052c00 	sll	a1,a1,0x10
9d009510:	00aa5025 	or	t2,a1,t2
9d009514:	70e43802 	mul	a3,a3,a0
9d009518:	0147282b 	sltu	a1,t2,a3
9d00951c:	10a00006 	beqz	a1,9d009538 <__udivdi3+0xe0>
9d009520:	00803025 	move	a2,a0
9d009524:	010a5021 	addu	t2,t0,t2
9d009528:	0148402b 	sltu	t0,t2,t0
9d00952c:	2486ffff 	addiu	a2,a0,-1
9d009530:	11000036 	beqz	t0,9d00960c <__udivdi3+0x1b4>
9d009534:	0147502b 	sltu	t2,t2,a3
9d009538:	00021400 	sll	v0,v0,0x10
9d00953c:	03e00008 	jr	ra
9d009540:	00461025 	or	v0,v0,a2
9d009544:	15000006 	bnez	t0,9d009560 <__udivdi3+0x108>
9d009548:	71021020 	clz	v0,t0
9d00954c:	24020001 	li	v0,1
9d009550:	0048001b 	divu	zero,v0,t0
9d009554:	010001f4 	teq	t0,zero,0x7
9d009558:	00004012 	mflo	t0
9d00955c:	71021020 	clz	v0,t0
9d009560:	1440002e 	bnez	v0,9d00961c <__udivdi3+0x1c4>
9d009564:	24090020 	li	t1,32
9d009568:	00a82823 	subu	a1,a1,t0
9d00956c:	24030001 	li	v1,1
9d009570:	00083402 	srl	a2,t0,0x10
9d009574:	00a6001b 	divu	zero,a1,a2
9d009578:	00c001f4 	teq	a2,zero,0x7
9d00957c:	3107ffff 	andi	a3,t0,0xffff
9d009580:	000a2402 	srl	a0,t2,0x10
9d009584:	00002812 	mflo	a1
9d009588:	00001010 	mfhi	v0
9d00958c:	00021400 	sll	v0,v0,0x10
9d009590:	00442025 	or	a0,v0,a0
9d009594:	70e54802 	mul	t1,a3,a1
9d009598:	0089582b 	sltu	t3,a0,t1
9d00959c:	1160000a 	beqz	t3,9d0095c8 <__udivdi3+0x170>
9d0095a0:	00a01025 	move	v0,a1
9d0095a4:	00882021 	addu	a0,a0,t0
9d0095a8:	0088582b 	sltu	t3,a0,t0
9d0095ac:	15600006 	bnez	t3,9d0095c8 <__udivdi3+0x170>
9d0095b0:	24a2ffff 	addiu	v0,a1,-1
9d0095b4:	0089582b 	sltu	t3,a0,t1
9d0095b8:	51600004 	beqzl	t3,9d0095cc <__udivdi3+0x174>
9d0095bc:	00892023 	subu	a0,a0,t1
9d0095c0:	24a2fffe 	addiu	v0,a1,-2
9d0095c4:	00882021 	addu	a0,a0,t0
9d0095c8:	00892023 	subu	a0,a0,t1
9d0095cc:	0086001b 	divu	zero,a0,a2
9d0095d0:	00c001f4 	teq	a2,zero,0x7
9d0095d4:	314affff 	andi	t2,t2,0xffff
9d0095d8:	00002012 	mflo	a0
9d0095dc:	00003010 	mfhi	a2
9d0095e0:	00063400 	sll	a2,a2,0x10
9d0095e4:	00ca5025 	or	t2,a2,t2
9d0095e8:	70e42802 	mul	a1,a3,a0
9d0095ec:	0145382b 	sltu	a3,t2,a1
9d0095f0:	10e0ffd1 	beqz	a3,9d009538 <__udivdi3+0xe0>
9d0095f4:	00803025 	move	a2,a0
9d0095f8:	010a5021 	addu	t2,t0,t2
9d0095fc:	0148402b 	sltu	t0,t2,t0
9d009600:	1500ffcd 	bnez	t0,9d009538 <__udivdi3+0xe0>
9d009604:	2486ffff 	addiu	a2,a0,-1
9d009608:	0145502b 	sltu	t2,t2,a1
9d00960c:	5540ffca 	bnezl	t2,9d009538 <__udivdi3+0xe0>
9d009610:	2486fffe 	addiu	a2,a0,-2
9d009614:	1000ffc9 	b	9d00953c <__udivdi3+0xe4>
9d009618:	00021400 	sll	v0,v0,0x10
9d00961c:	01224823 	subu	t1,t1,v0
9d009620:	00484004 	sllv	t0,t0,v0
9d009624:	00451804 	sllv	v1,a1,v0
9d009628:	00445004 	sllv	t2,a0,v0
9d00962c:	01252806 	srlv	a1,a1,t1
9d009630:	00081402 	srl	v0,t0,0x10
9d009634:	00a2001b 	divu	zero,a1,v0
9d009638:	004001f4 	teq	v0,zero,0x7
9d00963c:	3106ffff 	andi	a2,t0,0xffff
9d009640:	01243806 	srlv	a3,a0,t1
9d009644:	00e33825 	or	a3,a3,v1
9d009648:	00071c02 	srl	v1,a3,0x10
9d00964c:	00002812 	mflo	a1
9d009650:	00002010 	mfhi	a0
9d009654:	00042400 	sll	a0,a0,0x10
9d009658:	00832025 	or	a0,a0,v1
9d00965c:	70c54802 	mul	t1,a2,a1
9d009660:	0089582b 	sltu	t3,a0,t1
9d009664:	1160000a 	beqz	t3,9d009690 <__udivdi3+0x238>
9d009668:	00a01825 	move	v1,a1
9d00966c:	00882021 	addu	a0,a0,t0
9d009670:	0088582b 	sltu	t3,a0,t0
9d009674:	15600006 	bnez	t3,9d009690 <__udivdi3+0x238>
9d009678:	24a3ffff 	addiu	v1,a1,-1
9d00967c:	0089582b 	sltu	t3,a0,t1
9d009680:	51600004 	beqzl	t3,9d009694 <__udivdi3+0x23c>
9d009684:	00892023 	subu	a0,a0,t1
9d009688:	24a3fffe 	addiu	v1,a1,-2
9d00968c:	00882021 	addu	a0,a0,t0
9d009690:	00892023 	subu	a0,a0,t1
9d009694:	0082001b 	divu	zero,a0,v0
9d009698:	004001f4 	teq	v0,zero,0x7
9d00969c:	30e5ffff 	andi	a1,a3,0xffff
9d0096a0:	00001012 	mflo	v0
9d0096a4:	00002010 	mfhi	a0
9d0096a8:	00042400 	sll	a0,a0,0x10
9d0096ac:	00852825 	or	a1,a0,a1
9d0096b0:	70c23002 	mul	a2,a2,v0
9d0096b4:	00a6382b 	sltu	a3,a1,a2
9d0096b8:	10e0000a 	beqz	a3,9d0096e4 <__udivdi3+0x28c>
9d0096bc:	00402025 	move	a0,v0
9d0096c0:	00a82821 	addu	a1,a1,t0
9d0096c4:	00a8382b 	sltu	a3,a1,t0
9d0096c8:	14e00006 	bnez	a3,9d0096e4 <__udivdi3+0x28c>
9d0096cc:	2444ffff 	addiu	a0,v0,-1
9d0096d0:	00a6382b 	sltu	a3,a1,a2
9d0096d4:	50e00004 	beqzl	a3,9d0096e8 <__udivdi3+0x290>
9d0096d8:	00031c00 	sll	v1,v1,0x10
9d0096dc:	2444fffe 	addiu	a0,v0,-2
9d0096e0:	00a82821 	addu	a1,a1,t0
9d0096e4:	00031c00 	sll	v1,v1,0x10
9d0096e8:	00a62823 	subu	a1,a1,a2
9d0096ec:	1000ffa0 	b	9d009570 <__udivdi3+0x118>
9d0096f0:	00641825 	or	v1,v1,a0
9d0096f4:	00a7102b 	sltu	v0,a1,a3
9d0096f8:	1440004f 	bnez	v0,9d009838 <__udivdi3+0x3e0>
9d0096fc:	00001825 	move	v1,zero
9d009700:	70ea5020 	clz	t2,a3
9d009704:	15400008 	bnez	t2,9d009728 <__udivdi3+0x2d0>
9d009708:	24090020 	li	t1,32
9d00970c:	00e5282b 	sltu	a1,a3,a1
9d009710:	54a0004a 	bnezl	a1,9d00983c <__udivdi3+0x3e4>
9d009714:	24020001 	li	v0,1
9d009718:	0086102b 	sltu	v0,a0,a2
9d00971c:	38420001 	xori	v0,v0,0x1
9d009720:	03e00008 	jr	ra
9d009724:	00001825 	move	v1,zero
9d009728:	012a4823 	subu	t1,t1,t2
9d00972c:	01261006 	srlv	v0,a2,t1
9d009730:	01473804 	sllv	a3,a3,t2
9d009734:	00473825 	or	a3,v0,a3
9d009738:	00074402 	srl	t0,a3,0x10
9d00973c:	01451004 	sllv	v0,a1,t2
9d009740:	01252806 	srlv	a1,a1,t1
9d009744:	00a8001b 	divu	zero,a1,t0
9d009748:	010001f4 	teq	t0,zero,0x7
9d00974c:	01246006 	srlv	t4,a0,t1
9d009750:	30ebffff 	andi	t3,a3,0xffff
9d009754:	01826025 	or	t4,t4,v0
9d009758:	000c1c02 	srl	v1,t4,0x10
9d00975c:	01463004 	sllv	a2,a2,t2
9d009760:	00002812 	mflo	a1
9d009764:	00004810 	mfhi	t1
9d009768:	00094c00 	sll	t1,t1,0x10
9d00976c:	01234825 	or	t1,t1,v1
9d009770:	71651002 	mul	v0,t3,a1
9d009774:	0122682b 	sltu	t5,t1,v0
9d009778:	11a0000a 	beqz	t5,9d0097a4 <__udivdi3+0x34c>
9d00977c:	00a01825 	move	v1,a1
9d009780:	01274821 	addu	t1,t1,a3
9d009784:	0127682b 	sltu	t5,t1,a3
9d009788:	15a00006 	bnez	t5,9d0097a4 <__udivdi3+0x34c>
9d00978c:	24a3ffff 	addiu	v1,a1,-1
9d009790:	0122682b 	sltu	t5,t1,v0
9d009794:	51a00004 	beqzl	t5,9d0097a8 <__udivdi3+0x350>
9d009798:	01224823 	subu	t1,t1,v0
9d00979c:	24a3fffe 	addiu	v1,a1,-2
9d0097a0:	01274821 	addu	t1,t1,a3
9d0097a4:	01224823 	subu	t1,t1,v0
9d0097a8:	0128001b 	divu	zero,t1,t0
9d0097ac:	010001f4 	teq	t0,zero,0x7
9d0097b0:	3185ffff 	andi	a1,t4,0xffff
9d0097b4:	00004012 	mflo	t0
9d0097b8:	00004810 	mfhi	t1
9d0097bc:	00094c00 	sll	t1,t1,0x10
9d0097c0:	01252825 	or	a1,t1,a1
9d0097c4:	71685802 	mul	t3,t3,t0
9d0097c8:	00ab102b 	sltu	v0,a1,t3
9d0097cc:	1040000a 	beqz	v0,9d0097f8 <__udivdi3+0x3a0>
9d0097d0:	01004825 	move	t1,t0
9d0097d4:	00a72821 	addu	a1,a1,a3
9d0097d8:	00a7102b 	sltu	v0,a1,a3
9d0097dc:	14400006 	bnez	v0,9d0097f8 <__udivdi3+0x3a0>
9d0097e0:	2509ffff 	addiu	t1,t0,-1
9d0097e4:	00ab102b 	sltu	v0,a1,t3
9d0097e8:	10400004 	beqz	v0,9d0097fc <__udivdi3+0x3a4>
9d0097ec:	00031400 	sll	v0,v1,0x10
9d0097f0:	2509fffe 	addiu	t1,t0,-2
9d0097f4:	00a72821 	addu	a1,a1,a3
9d0097f8:	00031400 	sll	v0,v1,0x10
9d0097fc:	00491025 	or	v0,v0,t1
9d009800:	00460019 	multu	v0,a2
9d009804:	00ab2823 	subu	a1,a1,t3
9d009808:	00003810 	mfhi	a3
9d00980c:	00a7182b 	sltu	v1,a1,a3
9d009810:	14600007 	bnez	v1,9d009830 <__udivdi3+0x3d8>
9d009814:	00003012 	mflo	a2
9d009818:	14a70008 	bne	a1,a3,9d00983c <__udivdi3+0x3e4>
9d00981c:	00001825 	move	v1,zero
9d009820:	01442004 	sllv	a0,a0,t2
9d009824:	0086202b 	sltu	a0,a0,a2
9d009828:	10800004 	beqz	a0,9d00983c <__udivdi3+0x3e4>
9d00982c:	00000000 	nop
9d009830:	1000ffbb 	b	9d009720 <__udivdi3+0x2c8>
9d009834:	2442ffff 	addiu	v0,v0,-1
9d009838:	00001025 	move	v0,zero
9d00983c:	03e00008 	jr	ra
9d009840:	00000000 	nop

Disassembly of section .text.dp32mul:

9d009844 <__muldf3>:
9d009844:	00055040 000a5542 00054ac0 00047d42     @P..BU...J..B}..
9d009854:	012f4825 000442c0 3c0e8000 012e4825     %H/..B.....<%H..
9d009864:	00076840 000d6d42 000762c0 00067d42     @h..Bm...b..B}..
9d009874:	018f6025 00065ac0 018e6025 00a72826     %`...Z..%`..&(..
9d009884:	00ae2824 254fffff 2de107fe 10200047     $(....O%...-G. .
9d009894:	00000000                                ....

9d009898 <Clab1>:
9d009898:	25afffff 	addiu	t7,t5,-1
9d00989c:	2de107fe 	sltiu	at,t7,2046
9d0098a0:	1020006f 	beqz	at,9d009a60 <CspecB>
9d0098a4:	00000000 	nop

9d0098a8 <Clab2>:
9d0098a8:	25affc02 	addiu	t7,t5,-1022
9d0098ac:	014f5021 	addu	t2,t2,t7
9d0098b0:	012c0019 	multu	t1,t4
9d0098b4:	00003812 	mflo	a3
9d0098b8:	00007010 	mfhi	t6
9d0098bc:	010b0019 	multu	t0,t3
9d0098c0:	00002012 	mflo	a0
9d0098c4:	00003010 	mfhi	a2
9d0098c8:	012b0019 	multu	t1,t3
9d0098cc:	00005812 	mflo	t3
9d0098d0:	00006810 	mfhi	t5
9d0098d4:	00cb3021 	addu	a2,a2,t3
9d0098d8:	00cb782b 	sltu	t7,a2,t3
9d0098dc:	00ed3821 	addu	a3,a3,t5
9d0098e0:	00ef3821 	addu	a3,a3,t7
9d0098e4:	10ed0002 	beq	a3,t5,9d0098f0 <L20>
9d0098e8:	00000000 	nop
9d0098ec:	00ed782b 	sltu	t7,a3,t5

9d0098f0 <L20>:
9d0098f0:	01cf7021 	addu	t6,t6,t7
9d0098f4:	010c0019 	multu	t0,t4
9d0098f8:	00004012 	mflo	t0
9d0098fc:	00004810 	mfhi	t1
9d009900:	00c83021 	addu	a2,a2,t0
9d009904:	00c8782b 	sltu	t7,a2,t0
9d009908:	00e93821 	addu	a3,a3,t1
9d00990c:	00ef3821 	addu	a3,a3,t7
9d009910:	10e90002 	beq	a3,t1,9d00991c <L21>
9d009914:	00000000 	nop
9d009918:	00e9782b 	sltu	t7,a3,t1

9d00991c <L21>:
9d00991c:	01cf7021 	addu	t6,t6,t7
9d009920:	00867825 	or	t7,a0,a2
9d009924:	11e00002 	beqz	t7,9d009930 <i13>
9d009928:	00000000 	nop
9d00992c:	34e70001 	ori	a3,a3,0x1

9d009930 <i13>:
9d009930:	000e4825 	or	t1,zero,t6
9d009934:	05200006 	bltz	t1,9d009950 <i14>
9d009938:	00074025 	or	t0,zero,a3
9d00993c:	0100782a 	slt	t7,t0,zero
9d009940:	01084021 	addu	t0,t0,t0
9d009944:	01294821 	addu	t1,t1,t1
9d009948:	012f4821 	addu	t1,t1,t7
9d00994c:	254affff 	addiu	t2,t2,-1

9d009950 <i14>:
9d009950:	254fffff 	addiu	t7,t2,-1
9d009954:	2de107fe 	sltiu	at,t7,2046
9d009958:	10200068 	beqz	at,9d009afc <Coveund>
9d00995c:	00000000 	nop
9d009960:	25080400 	addiu	t0,t0,1024
9d009964:	2d0f0400 	sltiu	t7,t0,1024
9d009968:	012f4821 	addu	t1,t1,t7
9d00996c:	012f782b 	sltu	t7,t1,t7
9d009970:	014f5021 	addu	t2,t2,t7

9d009974 <Clab8>:
9d009974:	00087ac2 	srl	t7,t0,0xb
9d009978:	31ef0001 	andi	t7,t7,0x1
9d00997c:	010f4023 	subu	t0,t0,t7
9d009980:	000822c2 	srl	a0,t0,0xb
9d009984:	00097d40 	sll	t7,t1,0x15
9d009988:	008f2025 	or	a0,a0,t7
9d00998c:	00097840 	sll	t7,t1,0x1
9d009990:	000f7b02 	srl	t7,t7,0xc
9d009994:	00af2825 	or	a1,a1,t7
9d009998:	000a7d00 	sll	t7,t2,0x14
9d00999c:	00af2825 	or	a1,a1,t7

9d0099a0 <Cret>:
9d0099a0:	00041025 	or	v0,zero,a0
9d0099a4:	00051825 	or	v1,zero,a1

9d0099a8 <C999>:
9d0099a8:	03e00008 	jr	ra
9d0099ac:	00000000 	nop

9d0099b0 <CspecA>:
9d0099b0:	0100782a 	slt	t7,t0,zero
9d0099b4:	01084021 	addu	t0,t0,t0
9d0099b8:	01294821 	addu	t1,t1,t1
9d0099bc:	1540001c 	bnez	t2,9d009a30 <i15>
9d0099c0:	012f4821 	addu	t1,t1,t7
9d0099c4:	01287825 	or	t7,t1,t0
9d0099c8:	11e00014 	beqz	t7,9d009a1c <i16>
9d0099cc:	00000000 	nop
9d0099d0:	15200008 	bnez	t1,9d0099f4 <L22>
9d0099d4:	00000000 	nop
9d0099d8:	15000003 	bnez	t0,9d0099e8 <L23>
9d0099dc:	00000000 	nop
9d0099e0:	1000ffad 	b	9d009898 <Clab1>
9d0099e4:	240a0000 	li	t2,0

9d0099e8 <L23>:
9d0099e8:	01004825 	move	t1,t0
9d0099ec:	24080000 	li	t0,0
9d0099f0:	254affe0 	addiu	t2,t2,-32

9d0099f4 <L22>:
9d0099f4:	712e7020 	clz	t6,t1
9d0099f8:	11c0ffa7 	beqz	t6,9d009898 <Clab1>
9d0099fc:	00000000 	nop
9d009a00:	014e5023 	subu	t2,t2,t6
9d009a04:	000e3822 	neg	a3,t6
9d009a08:	00e83806 	srlv	a3,t0,a3
9d009a0c:	01c84004 	sllv	t0,t0,t6
9d009a10:	01c94804 	sllv	t1,t1,t6
9d009a14:	1000ffa0 	b	9d009898 <Clab1>
9d009a18:	01274825 	or	t1,t1,a3

9d009a1c <i16>:
9d009a1c:	240107ff 	li	at,2047
9d009a20:	11a10033 	beq	t5,at,9d009af0 <Cnan>
9d009a24:	00000000 	nop
9d009a28:	1000ffdd 	b	9d0099a0 <Cret>
9d009a2c:	00000000 	nop

9d009a30 <i15>:
9d009a30:	01287825 	or	t7,t1,t0
9d009a34:	15e0002e 	bnez	t7,9d009af0 <Cnan>
9d009a38:	00000000 	nop
9d009a3c:	15a00005 	bnez	t5,9d009a54 <i17>
9d009a40:	00000000 	nop
9d009a44:	000c7840 	sll	t7,t4,0x1
9d009a48:	01eb7825 	or	t7,t7,t3
9d009a4c:	11e00028 	beqz	t7,9d009af0 <Cnan>
9d009a50:	00000000 	nop

9d009a54 <i17>:
9d009a54:	240107ff 	li	at,2047
9d009a58:	15a10021 	bne	t5,at,9d009ae0 <Cinf>
9d009a5c:	00000000 	nop

9d009a60 <CspecB>:
9d009a60:	0160782a 	slt	t7,t3,zero
9d009a64:	016b5821 	addu	t3,t3,t3
9d009a68:	018c6021 	addu	t4,t4,t4
9d009a6c:	15a00019 	bnez	t5,9d009ad4 <i18>
9d009a70:	018f6021 	addu	t4,t4,t7
9d009a74:	018b7825 	or	t7,t4,t3
9d009a78:	11e00014 	beqz	t7,9d009acc <i19>
9d009a7c:	00000000 	nop
9d009a80:	15800008 	bnez	t4,9d009aa4 <L25>
9d009a84:	00000000 	nop
9d009a88:	15600003 	bnez	t3,9d009a98 <L26>
9d009a8c:	00000000 	nop
9d009a90:	1000ff85 	b	9d0098a8 <Clab2>
9d009a94:	240d0000 	li	t5,0

9d009a98 <L26>:
9d009a98:	01606025 	move	t4,t3
9d009a9c:	240b0000 	li	t3,0
9d009aa0:	25adffe0 	addiu	t5,t5,-32

9d009aa4 <L25>:
9d009aa4:	71863020 	clz	a2,t4
9d009aa8:	10c0ff7f 	beqz	a2,9d0098a8 <Clab2>
9d009aac:	00000000 	nop
9d009ab0:	01a66823 	subu	t5,t5,a2
9d009ab4:	00067022 	neg	t6,a2
9d009ab8:	01cb7006 	srlv	t6,t3,t6
9d009abc:	00cb5804 	sllv	t3,t3,a2
9d009ac0:	00cc6004 	sllv	t4,t4,a2
9d009ac4:	1000ff78 	b	9d0098a8 <Clab2>
9d009ac8:	018e6025 	or	t4,t4,t6

9d009acc <i19>:
9d009acc:	1000ffb4 	b	9d0099a0 <Cret>
9d009ad0:	24040000 	li	a0,0

9d009ad4 <i18>:
9d009ad4:	018b7825 	or	t7,t4,t3
9d009ad8:	15e00005 	bnez	t7,9d009af0 <Cnan>
9d009adc:	00000000 	nop

9d009ae0 <Cinf>:
9d009ae0:	3c017ff0 	lui	at,0x7ff0
9d009ae4:	00a12825 	or	a1,a1,at
9d009ae8:	1000ffad 	b	9d0099a0 <Cret>
9d009aec:	24040000 	li	a0,0

9d009af0 <Cnan>:
9d009af0:	3c05fff8 	lui	a1,0xfff8
9d009af4:	1000ffaa 	b	9d0099a0 <Cret>
9d009af8:	24040000 	li	a0,0

9d009afc <Coveund>:
9d009afc:	1d40fff8 	bgtz	t2,9d009ae0 <Cinf>
9d009b00:	00000000 	nop
9d009b04:	240e0001 	li	t6,1
9d009b08:	01ca7023 	subu	t6,t6,t2

9d009b0c <L28>:
9d009b0c:	2dc10020 	sltiu	at,t6,32
9d009b10:	14200007 	bnez	at,9d009b30 <L29>
9d009b14:	00000000 	nop
9d009b18:	21ceffe0 	addi	t6,t6,-32
9d009b1c:	0008302b 	sltu	a2,zero,t0
9d009b20:	1009000d 	beq	zero,t1,9d009b58 <L30>
9d009b24:	01264025 	or	t0,t1,a2
9d009b28:	1000fff8 	b	9d009b0c <L28>
9d009b2c:	34090000 	li	t1,0x0

9d009b30 <L29>:
9d009b30:	11c00009 	beqz	t6,9d009b58 <L30>
9d009b34:	00000000 	nop
9d009b38:	000e3822 	neg	a3,t6
9d009b3c:	00e83004 	sllv	a2,t0,a3
9d009b40:	00e93804 	sllv	a3,t1,a3
9d009b44:	01c84006 	srlv	t0,t0,t6
9d009b48:	01c94806 	srlv	t1,t1,t6
9d009b4c:	10c00002 	beqz	a2,9d009b58 <L30>
9d009b50:	00e84025 	or	t0,a3,t0
9d009b54:	35080002 	ori	t0,t0,0x2

9d009b58 <L30>:
9d009b58:	25080400 	addiu	t0,t0,1024
9d009b5c:	2d0f0400 	sltiu	t7,t0,1024
9d009b60:	012f4821 	addu	t1,t1,t7
9d009b64:	1000ff83 	b	9d009974 <Clab8>
9d009b68:	000957c2 	srl	t2,t1,0x1f
9d009b6c:	00000000 	nop

Disassembly of section .text.__scan_i:

9d009b70 <__scan_i>:
9d009b70:	8cc20008 	lw	v0,8(a2)
9d009b74:	27bdffb0 	addiu	sp,sp,-80
9d009b78:	afb20030 	sw	s2,48(sp)
9d009b7c:	00e09025 	move	s2,a3
9d009b80:	afb60040 	sw	s6,64(sp)
9d009b84:	afb1002c 	sw	s1,44(sp)
9d009b88:	afb00028 	sw	s0,40(sp)
9d009b8c:	afbf004c 	sw	ra,76(sp)
9d009b90:	afbe0048 	sw	s8,72(sp)
9d009b94:	afb70044 	sw	s7,68(sp)
9d009b98:	afb5003c 	sw	s5,60(sp)
9d009b9c:	afb40038 	sw	s4,56(sp)
9d009ba0:	afb30034 	sw	s3,52(sp)
9d009ba4:	0080b025 	move	s6,a0
9d009ba8:	afa50054 	sw	a1,84(sp)
9d009bac:	afa20018 	sw	v0,24(sp)
9d009bb0:	8cd10010 	lw	s1,16(a2)
9d009bb4:	0f4036f6 	jal	9d00dbd8 <__skipws>
9d009bb8:	8cd0000c 	lw	s0,12(a2)
9d009bbc:	8e430000 	lw	v1,0(s2)
9d009bc0:	00621021 	addu	v0,v1,v0
9d009bc4:	ae420000 	sw	v0,0(s2)
9d009bc8:	8fa20018 	lw	v0,24(sp)
9d009bcc:	14400003 	bnez	v0,9d009bdc <__scan_i+0x6c>
9d009bd0:	2622ffff 	addiu	v0,s1,-1
9d009bd4:	afa20018 	sw	v0,24(sp)
9d009bd8:	2622ffff 	addiu	v0,s1,-1
9d009bdc:	241e000a 	li	s8,10
9d009be0:	0000a825 	move	s5,zero
9d009be4:	0000a025 	move	s4,zero
9d009be8:	afa20020 	sw	v0,32(sp)
9d009bec:	24130008 	li	s3,8
9d009bf0:	2411000a 	li	s1,10
9d009bf4:	8fa20018 	lw	v0,24(sp)
9d009bf8:	0282102a 	slt	v0,s4,v0
9d009bfc:	10400043 	beqz	v0,9d009d0c <__scan_i+0x19c>
9d009c00:	8fa20020 	lw	v0,32(sp)
9d009c04:	0282102a 	slt	v0,s4,v0
9d009c08:	10400041 	beqz	v0,9d009d10 <__scan_i+0x1a0>
9d009c0c:	02141021 	addu	v0,s0,s4
9d009c10:	8ec2003c 	lw	v0,60(s6)
9d009c14:	8ec3004c 	lw	v1,76(s6)
9d009c18:	0043182b 	sltu	v1,v0,v1
9d009c1c:	1060000f 	beqz	v1,9d009c5c <__scan_i+0xec>
9d009c20:	24430001 	addiu	v1,v0,1
9d009c24:	aec3003c 	sw	v1,60(s6)
9d009c28:	90570000 	lbu	s7,0(v0)
9d009c2c:	26e2ffd5 	addiu	v0,s7,-43
9d009c30:	7c020844 	ins	v0,zero,0x1,0x1
9d009c34:	00541025 	or	v0,v0,s4
9d009c38:	1440001d 	bnez	v0,9d009cb0 <__scan_i+0x140>
9d009c3c:	02141021 	addu	v0,s0,s4
9d009c40:	a2170000 	sb	s7,0(s0)
9d009c44:	8e420000 	lw	v0,0(s2)
9d009c48:	24150001 	li	s5,1
9d009c4c:	24140001 	li	s4,1
9d009c50:	24420001 	addiu	v0,v0,1
9d009c54:	1000ffe7 	b	9d009bf4 <__scan_i+0x84>
9d009c58:	ae420000 	sw	v0,0(s2)
9d009c5c:	0f403330 	jal	9d00ccc0 <__shgetc>
9d009c60:	02c02025 	move	a0,s6
9d009c64:	0040b825 	move	s7,v0
9d009c68:	2402ffff 	li	v0,-1
9d009c6c:	16e2fff0 	bne	s7,v0,9d009c30 <__scan_i+0xc0>
9d009c70:	26e2ffd5 	addiu	v0,s7,-43
9d009c74:	16800026 	bnez	s4,9d009d10 <__scan_i+0x1a0>
9d009c78:	02141021 	addu	v0,s0,s4
9d009c7c:	8fbf004c 	lw	ra,76(sp)
9d009c80:	02e01025 	move	v0,s7
9d009c84:	8fbe0048 	lw	s8,72(sp)
9d009c88:	8fb70044 	lw	s7,68(sp)
9d009c8c:	8fb60040 	lw	s6,64(sp)
9d009c90:	8fb5003c 	lw	s5,60(sp)
9d009c94:	8fb40038 	lw	s4,56(sp)
9d009c98:	8fb30034 	lw	s3,52(sp)
9d009c9c:	8fb20030 	lw	s2,48(sp)
9d009ca0:	8fb1002c 	lw	s1,44(sp)
9d009ca4:	8fb00028 	lw	s0,40(sp)
9d009ca8:	03e00008 	jr	ra
9d009cac:	27bd0050 	addiu	sp,sp,80
9d009cb0:	16950006 	bne	s4,s5,9d009ccc <__scan_i+0x15c>
9d009cb4:	afa2001c 	sw	v0,28(sp)
9d009cb8:	17d10027 	bne	s8,s1,9d009d58 <__scan_i+0x1e8>
9d009cbc:	26950001 	addiu	s5,s4,1
9d009cc0:	3ae20030 	xori	v0,s7,0x30
9d009cc4:	0262f00a 	movz	s8,s3,v0
9d009cc8:	0002a80b 	movn	s5,zero,v0
9d009ccc:	26e2ffd0 	addiu	v0,s7,-48
9d009cd0:	2c42000a 	sltiu	v0,v0,10
9d009cd4:	14400044 	bnez	v0,9d009de8 <__scan_i+0x278>
9d009cd8:	24020010 	li	v0,16
9d009cdc:	57c20006 	bnel	s8,v0,9d009cf8 <__scan_i+0x188>
9d009ce0:	8ec2004c 	lw	v0,76(s6)
9d009ce4:	0f403f8e 	jal	9d00fe38 <isxdigit>
9d009ce8:	02e02025 	move	a0,s7
9d009cec:	14400042 	bnez	v0,9d009df8 <__scan_i+0x288>
9d009cf0:	8fa2001c 	lw	v0,28(sp)
9d009cf4:	8ec2004c 	lw	v0,76(s6)
9d009cf8:	10400005 	beqz	v0,9d009d10 <__scan_i+0x1a0>
9d009cfc:	02141021 	addu	v0,s0,s4
9d009d00:	8ec2003c 	lw	v0,60(s6)
9d009d04:	2442ffff 	addiu	v0,v0,-1
9d009d08:	aec2003c 	sw	v0,60(s6)
9d009d0c:	02141021 	addu	v0,s0,s4
9d009d10:	a0400000 	sb	zero,0(v0)
9d009d14:	2402000a 	li	v0,10
9d009d18:	17c2003d 	bne	s8,v0,9d009e10 <__scan_i+0x2a0>
9d009d1c:	03c03025 	move	a2,s8
9d009d20:	2406000a 	li	a2,10
9d009d24:	27a50010 	addiu	a1,sp,16
9d009d28:	0f403edd 	jal	9d00fb74 <strtoll>
9d009d2c:	02002025 	move	a0,s0
9d009d30:	8fa40054 	lw	a0,84(sp)
9d009d34:	ac830004 	sw	v1,4(a0)
9d009d38:	8fa30010 	lw	v1,16(sp)
9d009d3c:	ac820000 	sw	v0,0(a0)
9d009d40:	2402fffe 	li	v0,-2
9d009d44:	00708026 	xor	s0,v1,s0
9d009d48:	24030001 	li	v1,1
9d009d4c:	0050180a 	movz	v1,v0,s0
9d009d50:	1000ffca 	b	9d009c7c <__scan_i+0x10c>
9d009d54:	0060b825 	move	s7,v1
9d009d58:	57d3ffdc 	bnel	s8,s3,9d009ccc <__scan_i+0x15c>
9d009d5c:	0000a825 	move	s5,zero
9d009d60:	36e20020 	ori	v0,s7,0x20
9d009d64:	24040078 	li	a0,120
9d009d68:	5444ffd8 	bnel	v0,a0,9d009ccc <__scan_i+0x15c>
9d009d6c:	0000a825 	move	s5,zero
9d009d70:	8ec2003c 	lw	v0,60(s6)
9d009d74:	8ec4004c 	lw	a0,76(s6)
9d009d78:	0044202b 	sltu	a0,v0,a0
9d009d7c:	10800016 	beqz	a0,9d009dd8 <__scan_i+0x268>
9d009d80:	00000000 	nop
9d009d84:	24440001 	addiu	a0,v0,1
9d009d88:	aec4003c 	sw	a0,60(s6)
9d009d8c:	90420000 	lbu	v0,0(v0)
9d009d90:	8ec4004c 	lw	a0,76(s6)
9d009d94:	10800004 	beqz	a0,9d009da8 <__scan_i+0x238>
9d009d98:	00000000 	nop
9d009d9c:	8eca003c 	lw	t2,60(s6)
9d009da0:	254affff 	addiu	t2,t2,-1
9d009da4:	aeca003c 	sw	t2,60(s6)
9d009da8:	0f403f8e 	jal	9d00fe38 <isxdigit>
9d009dac:	00402025 	move	a0,v0
9d009db0:	5040ffd1 	beqzl	v0,9d009cf8 <__scan_i+0x188>
9d009db4:	8ec2004c 	lw	v0,76(s6)
9d009db8:	8fa2001c 	lw	v0,28(sp)
9d009dbc:	02a0a025 	move	s4,s5
9d009dc0:	241e0010 	li	s8,16
9d009dc4:	a0570000 	sb	s7,0(v0)
9d009dc8:	8e420000 	lw	v0,0(s2)
9d009dcc:	24420001 	addiu	v0,v0,1
9d009dd0:	1000ff88 	b	9d009bf4 <__scan_i+0x84>
9d009dd4:	ae420000 	sw	v0,0(s2)
9d009dd8:	0f403330 	jal	9d00ccc0 <__shgetc>
9d009ddc:	02c02025 	move	a0,s6
9d009de0:	1000ffec 	b	9d009d94 <__scan_i+0x224>
9d009de4:	8ec4004c 	lw	a0,76(s6)
9d009de8:	17d30002 	bne	s8,s3,9d009df4 <__scan_i+0x284>
9d009dec:	2ae20038 	slti	v0,s7,56
9d009df0:	0222f00a 	movz	s8,s1,v0
9d009df4:	8fa2001c 	lw	v0,28(sp)
9d009df8:	26940001 	addiu	s4,s4,1
9d009dfc:	a0570000 	sb	s7,0(v0)
9d009e00:	8e420000 	lw	v0,0(s2)
9d009e04:	24420001 	addiu	v0,v0,1
9d009e08:	1000ff7a 	b	9d009bf4 <__scan_i+0x84>
9d009e0c:	ae420000 	sw	v0,0(s2)
9d009e10:	27a50010 	addiu	a1,sp,16
9d009e14:	0f403ed2 	jal	9d00fb48 <strtoull>
9d009e18:	02002025 	move	a0,s0
9d009e1c:	1000ffc5 	b	9d009d34 <__scan_i+0x1c4>
9d009e20:	8fa40054 	lw	a0,84(sp)

Disassembly of section .text:

9d009e24 <get_encoder_flag>:
char rx_message[MAX_RX_MESSAGE];
volatile int pos = 0;
volatile int newPosFlag = 0; // should you use pos yet

int get_encoder_flag(){
    return newPosFlag;
9d009e24:	8f82803c 	lw	v0,-32708(gp)
}
9d009e28:	03e00008 	jr	ra
9d009e2c:	00000000 	nop

9d009e30 <set_encoder_flag>:

void set_encoder_flag(int f){
    newPosFlag = f;
9d009e30:	af84803c 	sw	a0,-32708(gp)
}
9d009e34:	03e00008 	jr	ra
9d009e38:	00000000 	nop

9d009e3c <get_encoder_count>:

int get_encoder_count(){
    return pos;
9d009e3c:	8f828040 	lw	v0,-32704(gp)
}
9d009e40:	03e00008 	jr	ra
9d009e44:	00000000 	nop

9d009e48 <U2ISR>:

void __ISR(_UART_2_VECTOR, IPL7SOFT) U2ISR(void) { 
9d009e48:	415de800 	rdpgpr	sp,sp
9d009e4c:	401a7000 	mfc0	k0,c0_epc
9d009e50:	401b6000 	mfc0	k1,c0_status
9d009e54:	27bdff90 	addiu	sp,sp,-112
9d009e58:	afbb006c 	sw	k1,108(sp)
9d009e5c:	7c1b7844 	ins	k1,zero,0x1,0xf
9d009e60:	377b1c00 	ori	k1,k1,0x1c00
9d009e64:	409b6000 	mtc0	k1,c0_status
9d009e68:	afbf0054 	sw	ra,84(sp)
9d009e6c:	afb90050 	sw	t9,80(sp)
9d009e70:	afb8004c 	sw	t8,76(sp)
9d009e74:	afaf0048 	sw	t7,72(sp)
9d009e78:	afae0044 	sw	t6,68(sp)
9d009e7c:	afad0040 	sw	t5,64(sp)
9d009e80:	afac003c 	sw	t4,60(sp)
9d009e84:	afab0038 	sw	t3,56(sp)
9d009e88:	afaa0034 	sw	t2,52(sp)
9d009e8c:	afa90030 	sw	t1,48(sp)
9d009e90:	afa8002c 	sw	t0,44(sp)
9d009e94:	afa70028 	sw	a3,40(sp)
9d009e98:	afa60024 	sw	a2,36(sp)
9d009e9c:	afa50020 	sw	a1,32(sp)
9d009ea0:	afa4001c 	sw	a0,28(sp)
9d009ea4:	afa30018 	sw	v1,24(sp)
9d009ea8:	afa20014 	sw	v0,20(sp)
9d009eac:	afa10010 	sw	at,16(sp)
9d009eb0:	00001012 	mflo	v0
9d009eb4:	afa2005c 	sw	v0,92(sp)
9d009eb8:	00001810 	mfhi	v1
9d009ebc:	afa30058 	sw	v1,88(sp)
  char data = U2RXREG; // read the data
9d009ec0:	3c02bf80 	lui	v0,0xbf80
9d009ec4:	8c426830 	lw	v0,26672(v0)
9d009ec8:	7c021420 	seb	v0,v0
  if (data == '\n') {
9d009ecc:	2403000a 	li	v1,10
9d009ed0:	1043002c 	beq	v0,v1,9d009f84 <U2ISR+0x13c>
9d009ed4:	00000000 	nop
    sscanf(rx_message,"%d",&pos);
    newPosFlag = 1;
    rx_num_bytes = 0;
  } 
  else {
    rx_message[rx_num_bytes] = data;
9d009ed8:	8f838044 	lw	v1,-32700(gp)
9d009edc:	3c04a000 	lui	a0,0xa000
9d009ee0:	24840060 	addiu	a0,a0,96
9d009ee4:	00641821 	addu	v1,v1,a0
9d009ee8:	a0620000 	sb	v0,0(v1)
    ++rx_num_bytes;
9d009eec:	8f828044 	lw	v0,-32700(gp)
9d009ef0:	24420001 	addiu	v0,v0,1
9d009ef4:	af828044 	sw	v0,-32700(gp)
    // roll over if the array is too small
    if (rx_num_bytes >= MAX_RX_MESSAGE) {
9d009ef8:	8f828044 	lw	v0,-32700(gp)
9d009efc:	28420064 	slti	v0,v0,100
9d009f00:	50400001 	beqzl	v0,9d009f08 <U2ISR+0xc0>
9d009f04:	af808044 	sw	zero,-32700(gp)
      rx_num_bytes = 0;
    }
  }
  IFS1bits.U2RXIF = 0;
9d009f08:	3c02bf88 	lui	v0,0xbf88
9d009f0c:	8c431040 	lw	v1,4160(v0)
9d009f10:	7c034a44 	ins	v1,zero,0x9,0x1
9d009f14:	ac431040 	sw	v1,4160(v0)
}
9d009f18:	8fa2005c 	lw	v0,92(sp)
9d009f1c:	00400013 	mtlo	v0
9d009f20:	8fa30058 	lw	v1,88(sp)
9d009f24:	00600011 	mthi	v1
9d009f28:	8fbf0054 	lw	ra,84(sp)
9d009f2c:	8fb90050 	lw	t9,80(sp)
9d009f30:	8fb8004c 	lw	t8,76(sp)
9d009f34:	8faf0048 	lw	t7,72(sp)
9d009f38:	8fae0044 	lw	t6,68(sp)
9d009f3c:	8fad0040 	lw	t5,64(sp)
9d009f40:	8fac003c 	lw	t4,60(sp)
9d009f44:	8fab0038 	lw	t3,56(sp)
9d009f48:	8faa0034 	lw	t2,52(sp)
9d009f4c:	8fa90030 	lw	t1,48(sp)
9d009f50:	8fa8002c 	lw	t0,44(sp)
9d009f54:	8fa70028 	lw	a3,40(sp)
9d009f58:	8fa60024 	lw	a2,36(sp)
9d009f5c:	8fa50020 	lw	a1,32(sp)
9d009f60:	8fa4001c 	lw	a0,28(sp)
9d009f64:	8fa30018 	lw	v1,24(sp)
9d009f68:	8fa20014 	lw	v0,20(sp)
9d009f6c:	8fa10010 	lw	at,16(sp)
9d009f70:	8fbb006c 	lw	k1,108(sp)
9d009f74:	27bd0070 	addiu	sp,sp,112
9d009f78:	41dde800 	wrpgpr	sp,sp
9d009f7c:	409b6000 	mtc0	k1,c0_status
9d009f80:	42000018 	eret
    rx_message[rx_num_bytes] = '\0';
9d009f84:	8f828044 	lw	v0,-32700(gp)
9d009f88:	3c04a000 	lui	a0,0xa000
9d009f8c:	24840060 	addiu	a0,a0,96
9d009f90:	00441021 	addu	v0,v0,a0
9d009f94:	a0400000 	sb	zero,0(v0)
    sscanf(rx_message,"%d",&pos);
9d009f98:	27868040 	addiu	a2,gp,-32704
9d009f9c:	3c059d00 	lui	a1,0x9d00
9d009fa0:	0f403f53 	jal	9d00fd4c <_dsscanf_cdnopuxX>
9d009fa4:	24a51e44 	addiu	a1,a1,7748
    newPosFlag = 1;
9d009fa8:	24020001 	li	v0,1
9d009fac:	af82803c 	sw	v0,-32708(gp)
    rx_num_bytes = 0;
9d009fb0:	af808044 	sw	zero,-32700(gp)
9d009fb4:	1000ffd5 	b	9d009f0c <U2ISR+0xc4>
9d009fb8:	3c02bf88 	lui	v0,0xbf88

9d009fbc <WriteUART2>:

// Write a character array using UART2
void WriteUART2(const char * string) {
  while (*string != '\0') {
9d009fbc:	80850000 	lb	a1,0(a0)
9d009fc0:	10a0000c 	beqz	a1,9d009ff4 <WriteUART2+0x38>
9d009fc4:	00000000 	nop
    while (U2STAbits.UTXBF) {
9d009fc8:	3c03bf80 	lui	v1,0xbf80
      ; // wait until tx buffer isn't full
    }
    U2TXREG = *string;
9d009fcc:	3c06bf80 	lui	a2,0xbf80
    while (U2STAbits.UTXBF) {
9d009fd0:	8c626810 	lw	v0,26640(v1)
9d009fd4:	7c420240 	ext	v0,v0,0x9,0x1
9d009fd8:	1440fffd 	bnez	v0,9d009fd0 <WriteUART2+0x14>
9d009fdc:	00000000 	nop
    U2TXREG = *string;
9d009fe0:	acc56820 	sw	a1,26656(a2)
    ++string;
9d009fe4:	24840001 	addiu	a0,a0,1
  while (*string != '\0') {
9d009fe8:	80850000 	lb	a1,0(a0)
9d009fec:	14a0fff8 	bnez	a1,9d009fd0 <WriteUART2+0x14>
9d009ff0:	00000000 	nop
  }
}
9d009ff4:	03e00008 	jr	ra
9d009ff8:	00000000 	nop

9d009ffc <UART2_Startup>:

//  Initialize the serial port - UART2 
void UART2_Startup() {
9d009ffc:	27bdfff8 	addiu	sp,sp,-8
9d00a000:	afbf0004 	sw	ra,4(sp)
  // disable interrupts
  __builtin_disable_interrupts();
9d00a004:	41626000 	di	v0
9d00a008:	000000c0 	ehb

  // turn on UART2 with interrupt on RX
  U2MODEbits.BRGH = 0; // set baud to NU32_DESIRED_BAUD
9d00a00c:	3c02bf80 	lui	v0,0xbf80
9d00a010:	94436800 	lhu	v1,26624(v0)
9d00a014:	7c0318c4 	ins	v1,zero,0x3,0x1
9d00a018:	a4436800 	sh	v1,26624(v0)
  U2BRG = ((NU32_SYS_FREQ / UART2_DESIRED_BAUD) / 16) - 1;
9d00a01c:	3c03bf80 	lui	v1,0xbf80
9d00a020:	24040014 	li	a0,20
9d00a024:	ac646840 	sw	a0,26688(v1)

  // 8 bit, no parity bit, and 1 stop bit (8N1 setup)
  U2MODEbits.PDSEL = 0;
9d00a028:	94436800 	lhu	v1,26624(v0)
9d00a02c:	7c031044 	ins	v1,zero,0x1,0x2
9d00a030:	a4436800 	sh	v1,26624(v0)
  U2MODEbits.STSEL = 0;
9d00a034:	94436800 	lhu	v1,26624(v0)
9d00a038:	7c030004 	ins	v1,zero,0x0,0x1
9d00a03c:	a4436800 	sh	v1,26624(v0)

  // configure TX & RX pins as output & input pins
  U2STAbits.UTXEN = 1;
9d00a040:	3c03bf80 	lui	v1,0xbf80
9d00a044:	8c656810 	lw	a1,26640(v1)
9d00a048:	24040001 	li	a0,1
9d00a04c:	7c855284 	ins	a1,a0,0xa,0x1
9d00a050:	ac656810 	sw	a1,26640(v1)
  U2STAbits.URXEN = 1;
9d00a054:	8c656810 	lw	a1,26640(v1)
9d00a058:	7c856304 	ins	a1,a0,0xc,0x1
9d00a05c:	ac656810 	sw	a1,26640(v1)

  U2STAbits.URXISEL = 0; // interrupt when a char is rcvd
9d00a060:	8c656810 	lw	a1,26640(v1)
9d00a064:	7c053984 	ins	a1,zero,0x6,0x2
9d00a068:	ac656810 	sw	a1,26640(v1)
  IPC8bits.U2IP = 7;
9d00a06c:	3c03bf88 	lui	v1,0xbf88
9d00a070:	8c651110 	lw	a1,4368(v1)
9d00a074:	24060007 	li	a2,7
9d00a078:	7cc52084 	ins	a1,a2,0x2,0x3
9d00a07c:	ac651110 	sw	a1,4368(v1)
  IPC8bits.U2IS = 0;
9d00a080:	8c651110 	lw	a1,4368(v1)
9d00a084:	7c050804 	ins	a1,zero,0x0,0x2
9d00a088:	ac651110 	sw	a1,4368(v1)
  IFS1bits.U2RXIF = 0;
9d00a08c:	3c03bf88 	lui	v1,0xbf88
9d00a090:	8c651040 	lw	a1,4160(v1)
9d00a094:	7c054a44 	ins	a1,zero,0x9,0x1
9d00a098:	ac651040 	sw	a1,4160(v1)
  IEC1bits.U2RXIE = 1;
9d00a09c:	3c03bf88 	lui	v1,0xbf88
9d00a0a0:	8c651070 	lw	a1,4208(v1)
9d00a0a4:	7c854a44 	ins	a1,a0,0x9,0x1
9d00a0a8:	ac651070 	sw	a1,4208(v1)

  // enable the uart
  U2MODEbits.ON = 1;
9d00a0ac:	94436800 	lhu	v1,26624(v0)
9d00a0b0:	7c837bc4 	ins	v1,a0,0xf,0x1
9d00a0b4:	a4436800 	sh	v1,26624(v0)

  __builtin_enable_interrupts();
9d00a0b8:	41626020 	ei	v0
}
9d00a0bc:	8fbf0004 	lw	ra,4(sp)
9d00a0c0:	03e00008 	jr	ra
9d00a0c4:	27bd0008 	addiu	sp,sp,8

Disassembly of section .text.scanexp:

9d00a0c8 <scanexp>:
9d00a0c8:	8c82003c 	lw	v0,60(a0)
9d00a0cc:	8c83004c 	lw	v1,76(a0)
9d00a0d0:	27bdffd0 	addiu	sp,sp,-48
9d00a0d4:	afb3001c 	sw	s3,28(sp)
9d00a0d8:	0043182b 	sltu	v1,v0,v1
9d00a0dc:	afb20018 	sw	s2,24(sp)
9d00a0e0:	afbf002c 	sw	ra,44(sp)
9d00a0e4:	afb60028 	sw	s6,40(sp)
9d00a0e8:	afb50024 	sw	s5,36(sp)
9d00a0ec:	afb40020 	sw	s4,32(sp)
9d00a0f0:	afb10014 	sw	s1,20(sp)
9d00a0f4:	afb00010 	sw	s0,16(sp)
9d00a0f8:	00809025 	move	s2,a0
9d00a0fc:	10600053 	beqz	v1,9d00a24c <scanexp+0x184>
9d00a100:	00a09825 	move	s3,a1
9d00a104:	24430001 	addiu	v1,v0,1
9d00a108:	ac83003c 	sw	v1,60(a0)
9d00a10c:	90420000 	lbu	v0,0(v0)
9d00a110:	2444ffd5 	addiu	a0,v0,-43
9d00a114:	7c040844 	ins	a0,zero,0x1,0x1
9d00a118:	14800016 	bnez	a0,9d00a174 <scanexp+0xac>
9d00a11c:	00008825 	move	s1,zero
9d00a120:	3842002d 	xori	v0,v0,0x2d
9d00a124:	2c510001 	sltiu	s1,v0,1
9d00a128:	8e43004c 	lw	v1,76(s2)
9d00a12c:	8e42003c 	lw	v0,60(s2)
9d00a130:	0043182b 	sltu	v1,v0,v1
9d00a134:	10600049 	beqz	v1,9d00a25c <scanexp+0x194>
9d00a138:	24430001 	addiu	v1,v0,1
9d00a13c:	ae43003c 	sw	v1,60(s2)
9d00a140:	90420000 	lbu	v0,0(v0)
9d00a144:	2444ffd0 	addiu	a0,v0,-48
9d00a148:	2c84000a 	sltiu	a0,a0,10
9d00a14c:	1480000a 	bnez	a0,9d00a178 <scanexp+0xb0>
9d00a150:	2444ffd0 	addiu	a0,v0,-48
9d00a154:	12600009 	beqz	s3,9d00a17c <scanexp+0xb4>
9d00a158:	2c84000a 	sltiu	a0,a0,10
9d00a15c:	8e43004c 	lw	v1,76(s2)
9d00a160:	10600006 	beqz	v1,9d00a17c <scanexp+0xb4>
9d00a164:	00000000 	nop
9d00a168:	8e44003c 	lw	a0,60(s2)
9d00a16c:	2484ffff 	addiu	a0,a0,-1
9d00a170:	ae44003c 	sw	a0,60(s2)
9d00a174:	2444ffd0 	addiu	a0,v0,-48
9d00a178:	2c84000a 	sltiu	a0,a0,10
9d00a17c:	1080003b 	beqz	a0,9d00a26c <scanexp+0x1a4>
9d00a180:	00008025 	move	s0,zero
9d00a184:	3c130ccc 	lui	s3,0xccc
9d00a188:	2414000a 	li	s4,10
9d00a18c:	3673cccc 	ori	s3,s3,0xcccc
9d00a190:	72141802 	mul	v1,s0,s4
9d00a194:	00628021 	addu	s0,v1,v0
9d00a198:	8e42003c 	lw	v0,60(s2)
9d00a19c:	8e43004c 	lw	v1,76(s2)
9d00a1a0:	0043182b 	sltu	v1,v0,v1
9d00a1a4:	10600039 	beqz	v1,9d00a28c <scanexp+0x1c4>
9d00a1a8:	2610ffd0 	addiu	s0,s0,-48
9d00a1ac:	24430001 	addiu	v1,v0,1
9d00a1b0:	ae43003c 	sw	v1,60(s2)
9d00a1b4:	90420000 	lbu	v0,0(v0)
9d00a1b8:	2444ffd0 	addiu	a0,v0,-48
9d00a1bc:	2c84000a 	sltiu	a0,a0,10
9d00a1c0:	10800003 	beqz	a0,9d00a1d0 <scanexp+0x108>
9d00a1c4:	0213182a 	slt	v1,s0,s3
9d00a1c8:	1460fff2 	bnez	v1,9d00a194 <scanexp+0xcc>
9d00a1cc:	72141802 	mul	v1,s0,s4
9d00a1d0:	3c140147 	lui	s4,0x147
9d00a1d4:	3694ae15 	ori	s4,s4,0xae15
9d00a1d8:	3c157ae1 	lui	s5,0x7ae1
9d00a1dc:	00109fc3 	sra	s3,s0,0x1f
9d00a1e0:	2696ffff 	addiu	s6,s4,-1
9d00a1e4:	26b547ae 	addiu	s5,s5,18350
9d00a1e8:	2444ffd0 	addiu	a0,v0,-48
9d00a1ec:	2c84000a 	sltiu	a0,a0,10
9d00a1f0:	14800043 	bnez	a0,9d00a300 <scanexp+0x238>
9d00a1f4:	8e46004c 	lw	a2,76(s2)
9d00a1f8:	8e42004c 	lw	v0,76(s2)
9d00a1fc:	54400058 	bnezl	v0,9d00a360 <scanexp+0x298>
9d00a200:	8e44003c 	lw	a0,60(s2)
9d00a204:	12200006 	beqz	s1,9d00a220 <scanexp+0x158>
9d00a208:	8fbf002c 	lw	ra,44(sp)
9d00a20c:	00108023 	negu	s0,s0
9d00a210:	0010202b 	sltu	a0,zero,s0
9d00a214:	00131023 	negu	v0,s3
9d00a218:	00449823 	subu	s3,v0,a0
9d00a21c:	8fbf002c 	lw	ra,44(sp)
9d00a220:	02001025 	move	v0,s0
9d00a224:	02601825 	move	v1,s3
9d00a228:	8fb60028 	lw	s6,40(sp)
9d00a22c:	8fb50024 	lw	s5,36(sp)
9d00a230:	8fb40020 	lw	s4,32(sp)
9d00a234:	8fb3001c 	lw	s3,28(sp)
9d00a238:	8fb20018 	lw	s2,24(sp)
9d00a23c:	8fb10014 	lw	s1,20(sp)
9d00a240:	8fb00010 	lw	s0,16(sp)
9d00a244:	03e00008 	jr	ra
9d00a248:	27bd0030 	addiu	sp,sp,48
9d00a24c:	0f403330 	jal	9d00ccc0 <__shgetc>
9d00a250:	00000000 	nop
9d00a254:	1000ffaf 	b	9d00a114 <scanexp+0x4c>
9d00a258:	2444ffd5 	addiu	a0,v0,-43
9d00a25c:	0f403330 	jal	9d00ccc0 <__shgetc>
9d00a260:	02402025 	move	a0,s2
9d00a264:	1000ffb8 	b	9d00a148 <scanexp+0x80>
9d00a268:	2444ffd0 	addiu	a0,v0,-48
9d00a26c:	8e42004c 	lw	v0,76(s2)
9d00a270:	10400004 	beqz	v0,9d00a284 <scanexp+0x1bc>
9d00a274:	00000000 	nop
9d00a278:	8e42003c 	lw	v0,60(s2)
9d00a27c:	2442ffff 	addiu	v0,v0,-1
9d00a280:	ae42003c 	sw	v0,60(s2)
9d00a284:	1000ffe5 	b	9d00a21c <scanexp+0x154>
9d00a288:	3c138000 	lui	s3,0x8000
9d00a28c:	0f403330 	jal	9d00ccc0 <__shgetc>
9d00a290:	02402025 	move	a0,s2
9d00a294:	1000ffc9 	b	9d00a1bc <scanexp+0xf4>
9d00a298:	2444ffd0 	addiu	a0,v0,-48
9d00a29c:	00700019 	multu	v1,s0
9d00a2a0:	00002012 	mflo	a0
9d00a2a4:	00002810 	mfhi	a1
9d00a2a8:	70733802 	mul	a3,v1,s3
9d00a2ac:	00e52821 	addu	a1,a3,a1
9d00a2b0:	00023fc3 	sra	a3,v0,0x1f
9d00a2b4:	00821021 	addu	v0,a0,v0
9d00a2b8:	0044182b 	sltu	v1,v0,a0
9d00a2bc:	8e44003c 	lw	a0,60(s2)
9d00a2c0:	00a73821 	addu	a3,a1,a3
9d00a2c4:	00671821 	addu	v1,v1,a3
9d00a2c8:	2450ffd0 	addiu	s0,v0,-48
9d00a2cc:	0202102b 	sltu	v0,s0,v0
9d00a2d0:	2463ffff 	addiu	v1,v1,-1
9d00a2d4:	0086302b 	sltu	a2,a0,a2
9d00a2d8:	10c00005 	beqz	a2,9d00a2f0 <scanexp+0x228>
9d00a2dc:	00439821 	addu	s3,v0,v1
9d00a2e0:	24820001 	addiu	v0,a0,1
9d00a2e4:	ae42003c 	sw	v0,60(s2)
9d00a2e8:	1000ffbf 	b	9d00a1e8 <scanexp+0x120>
9d00a2ec:	90820000 	lbu	v0,0(a0)
9d00a2f0:	0f403330 	jal	9d00ccc0 <__shgetc>
9d00a2f4:	02402025 	move	a0,s2
9d00a2f8:	1000ffbc 	b	9d00a1ec <scanexp+0x124>
9d00a2fc:	2444ffd0 	addiu	a0,v0,-48
9d00a300:	0274182a 	slt	v1,s3,s4
9d00a304:	50600007 	beqzl	v1,9d00a324 <scanexp+0x25c>
9d00a308:	2442ffd0 	addiu	v0,v0,-48
9d00a30c:	1676ffe3 	bne	s3,s6,9d00a29c <scanexp+0x1d4>
9d00a310:	2403000a 	li	v1,10
9d00a314:	0215182b 	sltu	v1,s0,s5
9d00a318:	1460ffe0 	bnez	v1,9d00a29c <scanexp+0x1d4>
9d00a31c:	2403000a 	li	v1,10
9d00a320:	2442ffd0 	addiu	v0,v0,-48
9d00a324:	2c42000a 	sltiu	v0,v0,10
9d00a328:	1040ffb3 	beqz	v0,9d00a1f8 <scanexp+0x130>
9d00a32c:	8e44004c 	lw	a0,76(s2)
9d00a330:	8e45003c 	lw	a1,60(s2)
9d00a334:	00a4202b 	sltu	a0,a1,a0
9d00a338:	10800005 	beqz	a0,9d00a350 <scanexp+0x288>
9d00a33c:	00000000 	nop
9d00a340:	24a20001 	addiu	v0,a1,1
9d00a344:	ae42003c 	sw	v0,60(s2)
9d00a348:	1000fff5 	b	9d00a320 <scanexp+0x258>
9d00a34c:	90a20000 	lbu	v0,0(a1)
9d00a350:	0f403330 	jal	9d00ccc0 <__shgetc>
9d00a354:	02402025 	move	a0,s2
9d00a358:	1000fff2 	b	9d00a324 <scanexp+0x25c>
9d00a35c:	2442ffd0 	addiu	v0,v0,-48
9d00a360:	2484ffff 	addiu	a0,a0,-1
9d00a364:	1000ffa7 	b	9d00a204 <scanexp+0x13c>
9d00a368:	ae44003c 	sw	a0,60(s2)

Disassembly of section .text.libm:

9d00a36c <dpfmod>:
9d00a36c:	00055040 000a5542 00054ac0 00047d42     @P..BU...J..B}..
9d00a37c:	012f4825 000442c0 3c0e8000 012e4825     %H/..B.....<%H..
9d00a38c:	00076840 000d6d42 000762c0 00067d42     @h..Bm...b..B}..
9d00a39c:	018f6025 00065ac0 018e6025 01c57024     %`...Z..%`..$p..
9d00a3ac:	254fffff 2de107fe 10200056 00000000     ..O%...-V. .....

9d00a3bc <Alab1>:
9d00a3bc:	25afffff 	addiu	t7,t5,-1
9d00a3c0:	2de107fe 	sltiu	at,t7,2046
9d00a3c4:	1020006e 	beqz	at,9d00a580 <AspecB>
9d00a3c8:	00000000 	nop

9d00a3cc <Alab2>:
9d00a3cc:	014d3823 	subu	a3,t2,t5
9d00a3d0:	04e0004b 	bltz	a3,9d00a500 <Aret2>
9d00a3d4:	00000000 	nop
9d00a3d8:	00084042 	srl	t0,t0,0x1
9d00a3dc:	00097fc0 	sll	t7,t1,0x1f
9d00a3e0:	010f4025 	or	t0,t0,t7
9d00a3e4:	00094842 	srl	t1,t1,0x1
9d00a3e8:	000b5842 	srl	t3,t3,0x1
9d00a3ec:	000c7fc0 	sll	t7,t4,0x1f
9d00a3f0:	016f5825 	or	t3,t3,t7
9d00a3f4:	000c6042 	srl	t4,t4,0x1

9d00a3f8 <b1>:
9d00a3f8:	010b782b 	sltu	t7,t0,t3
9d00a3fc:	010b4023 	subu	t0,t0,t3
9d00a400:	012f102b 	sltu	v0,t1,t7
9d00a404:	012f4823 	subu	t1,t1,t7
9d00a408:	012c782b 	sltu	t7,t1,t4
9d00a40c:	01e27825 	or	t7,t7,v0
9d00a410:	11e00005 	beqz	t7,9d00a428 <i2>
9d00a414:	012c4823 	subu	t1,t1,t4
9d00a418:	010b4021 	addu	t0,t0,t3
9d00a41c:	010b782b 	sltu	t7,t0,t3
9d00a420:	012c4821 	addu	t1,t1,t4
9d00a424:	012f4821 	addu	t1,t1,t7

9d00a428 <i2>:
9d00a428:	0100782a 	slt	t7,t0,zero
9d00a42c:	01084021 	addu	t0,t0,t0
9d00a430:	01294821 	addu	t1,t1,t1
9d00a434:	012f4821 	addu	t1,t1,t7
9d00a438:	24e7ffff 	addiu	a3,a3,-1
9d00a43c:	04e1ffee 	bgez	a3,9d00a3f8 <b1>
9d00a440:	00000000 	nop
9d00a444:	15200008 	bnez	t1,9d00a468 <L1>
9d00a448:	000d5025 	or	t2,zero,t5
9d00a44c:	15000003 	bnez	t0,9d00a45c <L2>
9d00a450:	00000000 	nop
9d00a454:	1000000d 	b	9d00a48c <L3>
9d00a458:	240a0000 	li	t2,0

9d00a45c <L2>:
9d00a45c:	01004825 	move	t1,t0
9d00a460:	24080000 	li	t0,0
9d00a464:	254affe0 	addiu	t2,t2,-32

9d00a468 <L1>:
9d00a468:	71273820 	clz	a3,t1
9d00a46c:	10e00007 	beqz	a3,9d00a48c <L3>
9d00a470:	00000000 	nop
9d00a474:	01475023 	subu	t2,t2,a3
9d00a478:	00073022 	neg	a2,a3
9d00a47c:	00c83006 	srlv	a2,t0,a2
9d00a480:	00e84004 	sllv	t0,t0,a3
9d00a484:	00e94804 	sllv	t1,t1,a3
9d00a488:	01264825 	or	t1,t1,a2

9d00a48c <L3>:
9d00a48c:	1d400014 	bgtz	t2,9d00a4e0 <i3>
9d00a490:	00000000 	nop
9d00a494:	24070001 	li	a3,1
9d00a498:	00ea3823 	subu	a3,a3,t2

9d00a49c <L4>:
9d00a49c:	2ce10020 	sltiu	at,a3,32
9d00a4a0:	14200005 	bnez	at,9d00a4b8 <L5>
9d00a4a4:	00000000 	nop
9d00a4a8:	00094025 	or	t0,zero,t1
9d00a4ac:	24090000 	li	t1,0
9d00a4b0:	1500fffa 	bnez	t0,9d00a49c <L4>
9d00a4b4:	24e7ffe0 	addiu	a3,a3,-32

9d00a4b8 <L5>:
9d00a4b8:	10e00008 	beqz	a3,9d00a4dc <L6>
9d00a4bc:	00000000 	nop
9d00a4c0:	00093025 	or	a2,zero,t1
9d00a4c4:	00e84006 	srlv	t0,t0,a3
9d00a4c8:	00e94806 	srlv	t1,t1,a3
9d00a4cc:	240f0020 	li	t7,32
9d00a4d0:	01e73823 	subu	a3,t7,a3
9d00a4d4:	00e63004 	sllv	a2,a2,a3
9d00a4d8:	01064025 	or	t0,t0,a2

9d00a4dc <L6>:
9d00a4dc:	240a0000 	li	t2,0

9d00a4e0 <i3>:
9d00a4e0:	000822c2 	srl	a0,t0,0xb
9d00a4e4:	00097d40 	sll	t7,t1,0x15
9d00a4e8:	008f2025 	or	a0,a0,t7
9d00a4ec:	00092840 	sll	a1,t1,0x1
9d00a4f0:	00052b02 	srl	a1,a1,0xc
9d00a4f4:	000a7d00 	sll	t7,t2,0x14
9d00a4f8:	00af2825 	or	a1,a1,t7
9d00a4fc:	00ae2825 	or	a1,a1,t6

9d00a500 <Aret2>:
9d00a500:	00041025 	or	v0,zero,a0
9d00a504:	00051825 	or	v1,zero,a1

9d00a508 <A999>:
9d00a508:	03e00008 	jr	ra
9d00a50c:	00000000 	nop

9d00a510 <AspecA>:
9d00a510:	1540003b 	bnez	t2,9d00a600 <Anan>
9d00a514:	00000000 	nop
9d00a518:	0100782a 	slt	t7,t0,zero
9d00a51c:	01084021 	addu	t0,t0,t0
9d00a520:	01294821 	addu	t1,t1,t1
9d00a524:	012f4821 	addu	t1,t1,t7
9d00a528:	01287825 	or	t7,t1,t0
9d00a52c:	11e0ffa3 	beqz	t7,9d00a3bc <Alab1>
9d00a530:	00000000 	nop
9d00a534:	15200008 	bnez	t1,9d00a558 <L7>
9d00a538:	00000000 	nop
9d00a53c:	15000003 	bnez	t0,9d00a54c <L8>
9d00a540:	00000000 	nop
9d00a544:	1000ff9d 	b	9d00a3bc <Alab1>
9d00a548:	240a0000 	li	t2,0

9d00a54c <L8>:
9d00a54c:	01004825 	move	t1,t0
9d00a550:	24080000 	li	t0,0
9d00a554:	254affe0 	addiu	t2,t2,-32

9d00a558 <L7>:
9d00a558:	71273820 	clz	a3,t1
9d00a55c:	10e0ff97 	beqz	a3,9d00a3bc <Alab1>
9d00a560:	00000000 	nop
9d00a564:	01475023 	subu	t2,t2,a3
9d00a568:	00073022 	neg	a2,a3
9d00a56c:	00c83006 	srlv	a2,t0,a2
9d00a570:	00e84004 	sllv	t0,t0,a3
9d00a574:	00e94804 	sllv	t1,t1,a3
9d00a578:	1000ff90 	b	9d00a3bc <Alab1>
9d00a57c:	01264825 	or	t1,t1,a2

9d00a580 <AspecB>:
9d00a580:	15a0001b 	bnez	t5,9d00a5f0 <i5>
9d00a584:	00000000 	nop
9d00a588:	0160782a 	slt	t7,t3,zero
9d00a58c:	016b5821 	addu	t3,t3,t3
9d00a590:	018c6021 	addu	t4,t4,t4
9d00a594:	018f6021 	addu	t4,t4,t7
9d00a598:	018b7825 	or	t7,t4,t3
9d00a59c:	11e00018 	beqz	t7,9d00a600 <Anan>
9d00a5a0:	00000000 	nop
9d00a5a4:	15800008 	bnez	t4,9d00a5c8 <L10>
9d00a5a8:	00000000 	nop
9d00a5ac:	15600003 	bnez	t3,9d00a5bc <L11>
9d00a5b0:	00000000 	nop
9d00a5b4:	1000ff85 	b	9d00a3cc <Alab2>
9d00a5b8:	240d0000 	li	t5,0

9d00a5bc <L11>:
9d00a5bc:	01606025 	move	t4,t3
9d00a5c0:	240b0000 	li	t3,0
9d00a5c4:	25adffe0 	addiu	t5,t5,-32

9d00a5c8 <L10>:
9d00a5c8:	71873820 	clz	a3,t4
9d00a5cc:	10e0ff7f 	beqz	a3,9d00a3cc <Alab2>
9d00a5d0:	00000000 	nop
9d00a5d4:	01a76823 	subu	t5,t5,a3
9d00a5d8:	00073022 	neg	a2,a3
9d00a5dc:	00cb3006 	srlv	a2,t3,a2
9d00a5e0:	00eb5804 	sllv	t3,t3,a3
9d00a5e4:	00ec6004 	sllv	t4,t4,a3
9d00a5e8:	1000ff78 	b	9d00a3cc <Alab2>
9d00a5ec:	01866025 	or	t4,t4,a2

9d00a5f0 <i5>:
9d00a5f0:	000c7840 	sll	t7,t4,0x1
9d00a5f4:	01eb7825 	or	t7,t7,t3
9d00a5f8:	11e0ffc1 	beqz	t7,9d00a500 <Aret2>
9d00a5fc:	00000000 	nop

9d00a600 <Anan>:
9d00a600:	3c05fff8 	lui	a1,0xfff8
9d00a604:	1000ffbe 	b	9d00a500 <Aret2>
9d00a608:	24040000 	li	a0,0
9d00a60c:	00000000 	nop

Disassembly of section .text.malloc:

9d00a610 <malloc>:
9d00a610:	27bdffd8 	addiu	sp,sp,-40
9d00a614:	afa40028 	sw	a0,40(sp)
9d00a618:	27a40028 	addiu	a0,sp,40
9d00a61c:	afbf0024 	sw	ra,36(sp)
9d00a620:	afb10020 	sw	s1,32(sp)
9d00a624:	0f403caa 	jal	9d00f2a8 <adjust_size>
9d00a628:	afb0001c 	sw	s0,28(sp)
9d00a62c:	04410007 	bgez	v0,9d00a64c <malloc+0x3c>
9d00a630:	8fa20028 	lw	v0,40(sp)
9d00a634:	00001025 	move	v0,zero
9d00a638:	8fbf0024 	lw	ra,36(sp)
9d00a63c:	8fb10020 	lw	s1,32(sp)
9d00a640:	8fb0001c 	lw	s0,28(sp)
9d00a644:	03e00008 	jr	ra
9d00a648:	27bd0028 	addiu	sp,sp,40
9d00a64c:	00021102 	srl	v0,v0,0x4
9d00a650:	2451ffff 	addiu	s1,v0,-1
9d00a654:	2e230021 	sltiu	v1,s1,33
9d00a658:	14600009 	bnez	v1,9d00a680 <malloc+0x70>
9d00a65c:	2442fffe 	addiu	v0,v0,-2
9d00a660:	3c039d01 	lui	v1,0x9d01
9d00a664:	2c440200 	sltiu	a0,v0,512
9d00a668:	10800023 	beqz	a0,9d00a6f8 <malloc+0xe8>
9d00a66c:	2463f214 	addiu	v1,v1,-3564
9d00a670:	000210c2 	srl	v0,v0,0x3
9d00a674:	00621021 	addu	v0,v1,v0
9d00a678:	9051fffc 	lbu	s1,-4(v0)
9d00a67c:	26310001 	addiu	s1,s1,1
9d00a680:	02203025 	move	a2,s1
9d00a684:	24040001 	li	a0,1
9d00a688:	0f403e69 	jal	9d00f9a4 <__ashldi3>
9d00a68c:	00002825 	move	a1,zero
9d00a690:	00025823 	negu	t3,v0
9d00a694:	000b382b 	sltu	a3,zero,t3
9d00a698:	00031823 	negu	v1,v1
9d00a69c:	3c0aa001 	lui	t2,0xa001
9d00a6a0:	3c089d01 	lui	t0,0x9d01
9d00a6a4:	00673823 	subu	a3,v1,a3
9d00a6a8:	2508f1f4 	addiu	t0,t0,-3596
9d00a6ac:	3c0c076b 	lui	t4,0x76b
9d00a6b0:	25493c70 	addiu	t1,t2,15472
9d00a6b4:	8d423c70 	lw	v0,15472(t2)
9d00a6b8:	8d433c74 	lw	v1,15476(t2)
9d00a6bc:	01622824 	and	a1,t3,v0
9d00a6c0:	00e31824 	and	v1,a3,v1
9d00a6c4:	00a32025 	or	a0,a1,v1
9d00a6c8:	14800039 	bnez	a0,9d00a7b0 <malloc+0x1a0>
9d00a6cc:	8fa20028 	lw	v0,40(sp)
9d00a6d0:	27a40010 	addiu	a0,sp,16
9d00a6d4:	24420010 	addiu	v0,v0,16
9d00a6d8:	0f403e2d 	jal	9d00f8b4 <__expand_heap>
9d00a6dc:	afa20010 	sw	v0,16(sp)
9d00a6e0:	1440000a 	bnez	v0,9d00a70c <malloc+0xfc>
9d00a6e4:	3c03a001 	lui	v1,0xa001
9d00a6e8:	3c03a001 	lui	v1,0xa001
9d00a6ec:	2404000c 	li	a0,12
9d00a6f0:	1000ffd1 	b	9d00a638 <malloc+0x28>
9d00a6f4:	ac643fbc 	sw	a0,16316(v1)
9d00a6f8:	000211c2 	srl	v0,v0,0x7
9d00a6fc:	00621021 	addu	v0,v1,v0
9d00a700:	9051fffc 	lbu	s1,-4(v0)
9d00a704:	1000ffde 	b	9d00a680 <malloc+0x70>
9d00a708:	26310011 	addiu	s1,s1,17
9d00a70c:	8c713c68 	lw	s1,15464(v1)
9d00a710:	10510006 	beq	v0,s1,9d00a72c <malloc+0x11c>
9d00a714:	8fa40010 	lw	a0,16(sp)
9d00a718:	24510010 	addiu	s1,v0,16
9d00a71c:	2484fff0 	addiu	a0,a0,-16
9d00a720:	afa40010 	sw	a0,16(sp)
9d00a724:	24040001 	li	a0,1
9d00a728:	ac440008 	sw	a0,8(v0)
9d00a72c:	8fa20010 	lw	v0,16(sp)
9d00a730:	2630fff8 	addiu	s0,s1,-8
9d00a734:	02222021 	addu	a0,s1,v0
9d00a738:	ac643c68 	sw	a0,15464(v1)
9d00a73c:	34420001 	ori	v0,v0,0x1
9d00a740:	24030001 	li	v1,1
9d00a744:	ac82fff8 	sw	v0,-8(a0)
9d00a748:	ac83fffc 	sw	v1,-4(a0)
9d00a74c:	1200ffb9 	beqz	s0,9d00a634 <malloc+0x24>
9d00a750:	ae22fffc 	sw	v0,-4(s1)
9d00a754:	0f403b46 	jal	9d00ed18 <alloc_rev>
9d00a758:	02002025 	move	a0,s0
9d00a75c:	10400010 	beqz	v0,9d00a7a0 <malloc+0x190>
9d00a760:	8fa50028 	lw	a1,40(sp)
9d00a764:	8e23fff8 	lw	v1,-8(s1)
9d00a768:	2402fffe 	li	v0,-2
9d00a76c:	8e25fffc 	lw	a1,-4(s1)
9d00a770:	00431824 	and	v1,v0,v1
9d00a774:	02031823 	subu	v1,s0,v1
9d00a778:	8c640004 	lw	a0,4(v1)
9d00a77c:	00442024 	and	a0,v0,a0
9d00a780:	00852021 	addu	a0,a0,a1
9d00a784:	ac640004 	sw	a0,4(v1)
9d00a788:	8e25fffc 	lw	a1,-4(s1)
9d00a78c:	00451024 	and	v0,v0,a1
9d00a790:	02028021 	addu	s0,s0,v0
9d00a794:	ae040000 	sw	a0,0(s0)
9d00a798:	00608025 	move	s0,v1
9d00a79c:	8fa50028 	lw	a1,40(sp)
9d00a7a0:	0f403cc0 	jal	9d00f300 <trim>
9d00a7a4:	02002025 	move	a0,s0
9d00a7a8:	1000ffa3 	b	9d00a638 <malloc+0x28>
9d00a7ac:	26020008 	addiu	v0,s0,8
9d00a7b0:	54a00032 	bnezl	a1,9d00a87c <malloc+0x26c>
9d00a7b4:	00052023 	negu	a0,a1
9d00a7b8:	00032023 	negu	a0,v1
9d00a7bc:	00832024 	and	a0,a0,v1
9d00a7c0:	3582e629 	ori	v0,t4,0xe629
9d00a7c4:	70822002 	mul	a0,a0,v0
9d00a7c8:	000426c2 	srl	a0,a0,0x1b
9d00a7cc:	01042021 	addu	a0,t0,a0
9d00a7d0:	80860000 	lb	a2,0(a0)
9d00a7d4:	24c60020 	addiu	a2,a2,32
9d00a7d8:	0f403e86 	jal	9d00fa18 <lock_bin>
9d00a7dc:	00c02025 	move	a0,a2
9d00a7e0:	24c40001 	addiu	a0,a2,1
9d00a7e4:	000420c0 	sll	a0,a0,0x3
9d00a7e8:	00891021 	addu	v0,a0,t1
9d00a7ec:	8c500000 	lw	s0,0(v0)
9d00a7f0:	2484fff8 	addiu	a0,a0,-8
9d00a7f4:	01242021 	addu	a0,t1,a0
9d00a7f8:	1204ffae 	beq	s0,a0,9d00a6b4 <malloc+0xa4>
9d00a7fc:	28c20028 	slti	v0,a2,40
9d00a800:	14400025 	bnez	v0,9d00a898 <malloc+0x288>
9d00a804:	26310002 	addiu	s1,s1,2
9d00a808:	0226882a 	slt	s1,s1,a2
9d00a80c:	56200005 	bnezl	s1,9d00a824 <malloc+0x214>
9d00a810:	8e070004 	lw	a3,4(s0)
9d00a814:	2402003f 	li	v0,63
9d00a818:	14c20020 	bne	a2,v0,9d00a89c <malloc+0x28c>
9d00a81c:	00c02825 	move	a1,a2
9d00a820:	8e070004 	lw	a3,4(s0)
9d00a824:	8fa50028 	lw	a1,40(sp)
9d00a828:	7c070004 	ins	a3,zero,0x0,0x1
9d00a82c:	00e54023 	subu	t0,a3,a1
9d00a830:	0f403bee 	jal	9d00efb8 <bin_index>
9d00a834:	01002025 	move	a0,t0
9d00a838:	54c20018 	bnel	a2,v0,9d00a89c <malloc+0x28c>
9d00a83c:	00c02825 	move	a1,a2
9d00a840:	8e03000c 	lw	v1,12(s0)
9d00a844:	8e040008 	lw	a0,8(s0)
9d00a848:	02051021 	addu	v0,s0,a1
9d00a84c:	ac43000c 	sw	v1,12(v0)
9d00a850:	ac440008 	sw	a0,8(v0)
9d00a854:	ac620008 	sw	v0,8(v1)
9d00a858:	8c430008 	lw	v1,8(v0)
9d00a85c:	34a50001 	ori	a1,a1,0x1
9d00a860:	02073821 	addu	a3,s0,a3
9d00a864:	ac62000c 	sw	v0,12(v1)
9d00a868:	ac450000 	sw	a1,0(v0)
9d00a86c:	ac480004 	sw	t0,4(v0)
9d00a870:	ace80000 	sw	t0,0(a3)
9d00a874:	1000ffc9 	b	9d00a79c <malloc+0x18c>
9d00a878:	ae050004 	sw	a1,4(s0)
9d00a87c:	00852024 	and	a0,a0,a1
9d00a880:	3582e629 	ori	v0,t4,0xe629
9d00a884:	70822002 	mul	a0,a0,v0
9d00a888:	000426c2 	srl	a0,a0,0x1b
9d00a88c:	01042021 	addu	a0,t0,a0
9d00a890:	1000ffd1 	b	9d00a7d8 <malloc+0x1c8>
9d00a894:	80860000 	lb	a2,0(a0)
9d00a898:	00c02825 	move	a1,a2
9d00a89c:	0f40374e 	jal	9d00dd38 <unbin>
9d00a8a0:	02002025 	move	a0,s0
9d00a8a4:	1000ffbe 	b	9d00a7a0 <malloc+0x190>
9d00a8a8:	8fa50028 	lw	a1,40(sp)

Disassembly of section .text.fpsubadd:

9d00a8ac <__subsf3>:
9d00a8ac:	3c018000 00a12826                       ...<&(..

9d00a8b4 <__addsf3>:
9d00a8b4:	00044dc2 312900ff 00055dc2 316b00ff     .M....)1.]....k1
9d00a8c4:	3c078000 00044200 01074025 00055200     ...<.B..%@...R..
9d00a8d4:	01475025 252dffff 2da100fe 10200061     %PG...-%...-a. .
9d00a8e4:	00000000                                ....

9d00a8e8 <Blab1>:
9d00a8e8:	256dffff 	addiu	t5,t3,-1
9d00a8ec:	2da100fe 	sltiu	at,t5,254
9d00a8f0:	10200077 	beqz	at,9d00aad0 <BspecB>
9d00a8f4:	00000000 	nop

9d00a8f8 <Blab2>:
9d00a8f8:	012b6023 	subu	t4,t1,t3
9d00a8fc:	0580000d 	bltz	t4,9d00a934 <i1>
9d00a900:	00000000 	nop
9d00a904:	29810020 	slti	at,t4,32
9d00a908:	14200003 	bnez	at,9d00a918 <i2>
9d00a90c:	00000000 	nop
9d00a910:	10000015 	b	9d00a968 <e1>
9d00a914:	240a0002 	li	t2,2

9d00a918 <i2>:
9d00a918:	000a3025 	or	a2,zero,t2
9d00a91c:	018a5006 	srlv	t2,t2,t4
9d00a920:	018a6804 	sllv	t5,t2,t4
9d00a924:	11a60010 	beq	t5,a2,9d00a968 <e1>
9d00a928:	00000000 	nop
9d00a92c:	1000000e 	b	9d00a968 <e1>
9d00a930:	354a0002 	ori	t2,t2,0x2

9d00a934 <i1>:
9d00a934:	000b4825 	or	t1,zero,t3
9d00a938:	000c6023 	negu	t4,t4
9d00a93c:	29810020 	slti	at,t4,32
9d00a940:	14200003 	bnez	at,9d00a950 <i4>
9d00a944:	00000000 	nop
9d00a948:	10000007 	b	9d00a968 <e1>
9d00a94c:	24080002 	li	t0,2

9d00a950 <i4>:
9d00a950:	00083025 	or	a2,zero,t0
9d00a954:	01884006 	srlv	t0,t0,t4
9d00a958:	01886804 	sllv	t5,t0,t4
9d00a95c:	11a60002 	beq	t5,a2,9d00a968 <e1>
9d00a960:	00000000 	nop
9d00a964:	35080002 	ori	t0,t0,0x2

9d00a968 <e1>:
9d00a968:	00876024 	and	t4,a0,a3
9d00a96c:	01856826 	xor	t5,t4,a1
9d00a970:	05a00010 	bltz	t5,9d00a9b4 <Bsub1>
9d00a974:	00000000 	nop
9d00a978:	010a4021 	addu	t0,t0,t2
9d00a97c:	010a682b 	sltu	t5,t0,t2
9d00a980:	11a00017 	beqz	t5,9d00a9e0 <Bres>
9d00a984:	00000000 	nop
9d00a988:	310d0001 	andi	t5,t0,0x1
9d00a98c:	11a00002 	beqz	t5,9d00a998 <i7>
9d00a990:	00000000 	nop
9d00a994:	35080002 	ori	t0,t0,0x2

9d00a998 <i7>:
9d00a998:	00084042 	srl	t0,t0,0x1
9d00a99c:	25290001 	addiu	t1,t1,1
9d00a9a0:	240100ff 	li	at,255
9d00a9a4:	1521000e 	bne	t1,at,9d00a9e0 <Bres>
9d00a9a8:	00000000 	nop
9d00a9ac:	1000000c 	b	9d00a9e0 <Bres>
9d00a9b0:	24080000 	li	t0,0

9d00a9b4 <Bsub1>:
9d00a9b4:	010a682b 	sltu	t5,t0,t2
9d00a9b8:	11a00004 	beqz	t5,9d00a9cc <i9>
9d00a9bc:	010a4023 	subu	t0,t0,t2
9d00a9c0:	00084023 	negu	t0,t0
9d00a9c4:	10000003 	b	9d00a9d4 <e9>
9d00a9c8:	01876026 	xor	t4,t4,a3

9d00a9cc <i9>:
9d00a9cc:	11000050 	beqz	t0,9d00ab10 <Bzer>
9d00a9d0:	00000000 	nop

9d00a9d4 <e9>:
9d00a9d4:	71063020 	clz	a2,t0
9d00a9d8:	01264823 	subu	t1,t1,a2
9d00a9dc:	00c84004 	sllv	t0,t0,a2

9d00a9e0 <Bres>:
9d00a9e0:	1920000e 	blez	t1,9d00aa1c <Bund>
9d00a9e4:	00000000 	nop

9d00a9e8 <Blab12>:
9d00a9e8:	25080080 	addiu	t0,t0,128
9d00a9ec:	2d0d0080 	sltiu	t5,t0,128
9d00a9f0:	012d4821 	addu	t1,t1,t5
9d00a9f4:	00086a02 	srl	t5,t0,0x8
9d00a9f8:	31ad0001 	andi	t5,t5,0x1
9d00a9fc:	010d4023 	subu	t0,t0,t5
9d00aa00:	00084040 	sll	t0,t0,0x1
9d00aa04:	00084242 	srl	t0,t0,0x9
9d00aa08:	00096dc0 	sll	t5,t1,0x17
9d00aa0c:	010d4025 	or	t0,t0,t5
9d00aa10:	010c1025 	or	v0,t0,t4

9d00aa14 <B999>:
9d00aa14:	03e00008 	jr	ra
9d00aa18:	00000000 	nop

9d00aa1c <Bund>:
9d00aa1c:	24060001 	li	a2,1
9d00aa20:	00c93023 	subu	a2,a2,t1
9d00aa24:	2cc10020 	sltiu	at,a2,32
9d00aa28:	10200039 	beqz	at,9d00ab10 <Bzer>
9d00aa2c:	00000000 	nop
9d00aa30:	3c018000 	lui	at,0x8000
9d00aa34:	01014025 	or	t0,t0,at
9d00aa38:	240d0020 	li	t5,32
9d00aa3c:	01a66823 	subu	t5,t5,a2
9d00aa40:	01a84804 	sllv	t1,t0,t5
9d00aa44:	11200002 	beqz	t1,9d00aa50 <i10>
9d00aa48:	00c84006 	srlv	t0,t0,a2
9d00aa4c:	35080001 	ori	t0,t0,0x1

9d00aa50 <i10>:
9d00aa50:	24090000 	li	t1,0
9d00aa54:	250d0080 	addiu	t5,t0,128
9d00aa58:	05a1ffe3 	bgez	t5,9d00a9e8 <Blab12>
9d00aa5c:	00000000 	nop
9d00aa60:	1000ffe1 	b	9d00a9e8 <Blab12>
9d00aa64:	24090001 	li	t1,1

9d00aa68 <BspecA>:
9d00aa68:	1520000e 	bnez	t1,9d00aaa4 <i12>
9d00aa6c:	00000000 	nop
9d00aa70:	01084021 	addu	t0,t0,t0
9d00aa74:	11000005 	beqz	t0,9d00aa8c <i13>
9d00aa78:	00000000 	nop
9d00aa7c:	710c6020 	clz	t4,t0
9d00aa80:	012c4823 	subu	t1,t1,t4
9d00aa84:	1000ff98 	b	9d00a8e8 <Blab1>
9d00aa88:	01884004 	sllv	t0,t0,t4

9d00aa8c <i13>:
9d00aa8c:	240100ff 	li	at,255
9d00aa90:	1161000f 	beq	t3,at,9d00aad0 <BspecB>
9d00aa94:	00000000 	nop
9d00aa98:	3c018000 	lui	at,0x8000
9d00aa9c:	14a10018 	bne	a1,at,9d00ab00 <BretB>
9d00aaa0:	00000000 	nop

9d00aaa4 <i12>:
9d00aaa4:	01086821 	addu	t5,t0,t0
9d00aaa8:	15a0001b 	bnez	t5,9d00ab18 <Bnan>
9d00aaac:	00000000 	nop
9d00aab0:	240100ff 	li	at,255
9d00aab4:	15610014 	bne	t3,at,9d00ab08 <BretA>
9d00aab8:	00000000 	nop
9d00aabc:	00856826 	xor	t5,a0,a1
9d00aac0:	05a00015 	bltz	t5,9d00ab18 <Bnan>
9d00aac4:	00000000 	nop
9d00aac8:	1000000d 	b	9d00ab00 <BretB>
9d00aacc:	00000000 	nop

9d00aad0 <BspecB>:
9d00aad0:	15600008 	bnez	t3,9d00aaf4 <i15>
9d00aad4:	00000000 	nop
9d00aad8:	014a5021 	addu	t2,t2,t2
9d00aadc:	1140000a 	beqz	t2,9d00ab08 <BretA>
9d00aae0:	00000000 	nop
9d00aae4:	714c6020 	clz	t4,t2
9d00aae8:	016c5823 	subu	t3,t3,t4
9d00aaec:	1000ff82 	b	9d00a8f8 <Blab2>
9d00aaf0:	018a5004 	sllv	t2,t2,t4

9d00aaf4 <i15>:
9d00aaf4:	014a6821 	addu	t5,t2,t2
9d00aaf8:	15a00007 	bnez	t5,9d00ab18 <Bnan>
9d00aafc:	00000000 	nop

9d00ab00 <BretB>:
9d00ab00:	1000ffc4 	b	9d00aa14 <B999>
9d00ab04:	00051025 	or	v0,zero,a1

9d00ab08 <BretA>:
9d00ab08:	1000ffc2 	b	9d00aa14 <B999>
9d00ab0c:	00041025 	or	v0,zero,a0

9d00ab10 <Bzer>:
9d00ab10:	1000ffc0 	b	9d00aa14 <B999>
9d00ab14:	24020000 	li	v0,0

9d00ab18 <Bnan>:
9d00ab18:	1000ffbe 	b	9d00aa14 <B999>
9d00ab1c:	3c02ffc0 	lui	v0,0xffc0
9d00ab20:	00000000 	nop

Disassembly of section .text.fp32div:

9d00ab24 <__divsf3>:
9d00ab24:	3c0b8000 000445c2 310800ff 000555c2     ...<.E.....1.U..
9d00ab34:	314a00ff 00043a00 00eb3825 00054a00     ..J1.:..%8...J..
9d00ab44:	012b4825 00857026 016e5824 250effff     %H+.&p..$Xn....%
9d00ab54:	2dc100fe 1020003f 00000000              ...-?. .....

9d00ab60 <Dlab1>:
9d00ab60:	254effff 	addiu	t6,t2,-1
9d00ab64:	2dc100fe 	sltiu	at,t6,254
9d00ab68:	10200053 	beqz	at,9d00acb8 <DspecB>
9d00ab6c:	00000000 	nop

9d00ab70 <Dlab2>:
9d00ab70:	00e9082b 	sltu	at,a3,t1
9d00ab74:	14200003 	bnez	at,9d00ab84 <i27>
9d00ab78:	00000000 	nop
9d00ab7c:	00073842 	srl	a3,a3,0x1
9d00ab80:	25080001 	addiu	t0,t0,1

9d00ab84 <i27>:
9d00ab84:	00096382 	srl	t4,t1,0xe
9d00ab88:	018001f4 	teq	t4,zero,0x7
9d00ab8c:	00ec001b 	divu	zero,a3,t4
9d00ab90:	00002012 	mflo	a0
9d00ab94:	00003010 	mfhi	a2
9d00ab98:	312d3fff 	andi	t5,t1,0x3fff
9d00ab9c:	01a40019 	multu	t5,a0
9d00aba0:	00002812 	mflo	a1
9d00aba4:	00063380 	sll	a2,a2,0xe
9d00aba8:	00c5702b 	sltu	t6,a2,a1
9d00abac:	11c00004 	beqz	t6,9d00abc0 <i28>
9d00abb0:	00c53023 	subu	a2,a2,a1
9d00abb4:	2484ffff 	addiu	a0,a0,-1
9d00abb8:	00c93021 	addu	a2,a2,t1
9d00abbc:	00c9702b 	sltu	t6,a2,t1

9d00abc0 <i28>:
9d00abc0:	018001f4 	teq	t4,zero,0x7
9d00abc4:	00cc001b 	divu	zero,a2,t4
9d00abc8:	00003812 	mflo	a3
9d00abcc:	00003010 	mfhi	a2
9d00abd0:	01a70019 	multu	t5,a3
9d00abd4:	00002812 	mflo	a1
9d00abd8:	00063380 	sll	a2,a2,0xe
9d00abdc:	00c5702b 	sltu	t6,a2,a1
9d00abe0:	11c00004 	beqz	t6,9d00abf4 <i29>
9d00abe4:	00c53023 	subu	a2,a2,a1
9d00abe8:	24e7ffff 	addiu	a3,a3,-1
9d00abec:	00c93021 	addu	a2,a2,t1
9d00abf0:	00c9702b 	sltu	t6,a2,t1

9d00abf4 <i29>:
9d00abf4:	00047380 	sll	t6,a0,0xe
9d00abf8:	00ee3821 	addu	a3,a3,t6
9d00abfc:	10c00002 	beqz	a2,9d00ac08 <i30>
9d00ac00:	00073900 	sll	a3,a3,0x4
9d00ac04:	34e70001 	ori	a3,a3,0x1

9d00ac08 <i30>:
9d00ac08:	240e007e 	li	t6,126
9d00ac0c:	01ca7023 	subu	t6,t6,t2
9d00ac10:	010e4021 	addu	t0,t0,t6
9d00ac14:	250effff 	addiu	t6,t0,-1
9d00ac18:	2dc100fe 	sltiu	at,t6,254
9d00ac1c:	10200034 	beqz	at,9d00acf0 <Doveund>
9d00ac20:	00000000 	nop

9d00ac24 <Dlab8>:
9d00ac24:	24e70080 	addiu	a3,a3,128
9d00ac28:	2cee0080 	sltiu	t6,a3,128
9d00ac2c:	010e4021 	addu	t0,t0,t6
9d00ac30:	00077202 	srl	t6,a3,0x8
9d00ac34:	31ce0001 	andi	t6,t6,0x1
9d00ac38:	00ee3823 	subu	a3,a3,t6
9d00ac3c:	00073840 	sll	a3,a3,0x1
9d00ac40:	00073a42 	srl	a3,a3,0x9
9d00ac44:	000875c0 	sll	t6,t0,0x17
9d00ac48:	00ee3825 	or	a3,a3,t6
9d00ac4c:	00eb1025 	or	v0,a3,t3

9d00ac50 <D999>:
9d00ac50:	03e00008 	jr	ra
9d00ac54:	00000000 	nop

9d00ac58 <DspecA>:
9d00ac58:	15000008 	bnez	t0,9d00ac7c <i31>
9d00ac5c:	00000000 	nop
9d00ac60:	00e73821 	addu	a3,a3,a3
9d00ac64:	10e00005 	beqz	a3,9d00ac7c <i31>
9d00ac68:	00000000 	nop
9d00ac6c:	70ec6020 	clz	t4,a3
9d00ac70:	010c4023 	subu	t0,t0,t4
9d00ac74:	1000ffba 	b	9d00ab60 <Dlab1>
9d00ac78:	01873804 	sllv	a3,a3,t4

9d00ac7c <i31>:
9d00ac7c:	15480004 	bne	t2,t0,9d00ac90 <i33>
9d00ac80:	00000000 	nop
9d00ac84:	01297021 	addu	t6,t1,t1
9d00ac88:	11c0002f 	beqz	t6,9d00ad48 <Dnan>
9d00ac8c:	00000000 	nop

9d00ac90 <i33>:
9d00ac90:	240100ff 	li	at,255
9d00ac94:	11410008 	beq	t2,at,9d00acb8 <DspecB>
9d00ac98:	00000000 	nop
9d00ac9c:	11000012 	beqz	t0,9d00ace8 <Dzer>
9d00aca0:	00000000 	nop
9d00aca4:	00e77021 	addu	t6,a3,a3
9d00aca8:	15c00027 	bnez	t6,9d00ad48 <Dnan>
9d00acac:	00000000 	nop
9d00acb0:	10000022 	b	9d00ad3c <Dinf>
9d00acb4:	00000000 	nop

9d00acb8 <DspecB>:
9d00acb8:	15400008 	bnez	t2,9d00acdc <i34>
9d00acbc:	00000000 	nop
9d00acc0:	01294821 	addu	t1,t1,t1
9d00acc4:	1120001d 	beqz	t1,9d00ad3c <Dinf>
9d00acc8:	00000000 	nop
9d00accc:	712c6020 	clz	t4,t1
9d00acd0:	014c5023 	subu	t2,t2,t4
9d00acd4:	1000ffa6 	b	9d00ab70 <Dlab2>
9d00acd8:	01894804 	sllv	t1,t1,t4

9d00acdc <i34>:
9d00acdc:	01297021 	addu	t6,t1,t1
9d00ace0:	15c00019 	bnez	t6,9d00ad48 <Dnan>
9d00ace4:	00000000 	nop

9d00ace8 <Dzer>:
9d00ace8:	1000ffd9 	b	9d00ac50 <D999>
9d00acec:	000b1025 	or	v0,zero,t3

9d00acf0 <Doveund>:
9d00acf0:	1d000012 	bgtz	t0,9d00ad3c <Dinf>
9d00acf4:	00000000 	nop
9d00acf8:	240c0001 	li	t4,1
9d00acfc:	01886023 	subu	t4,t4,t0
9d00ad00:	2d810020 	sltiu	at,t4,32
9d00ad04:	1020fff8 	beqz	at,9d00ace8 <Dzer>
9d00ad08:	00000000 	nop
9d00ad0c:	240e0020 	li	t6,32
9d00ad10:	01cc7023 	subu	t6,t6,t4
9d00ad14:	01c74004 	sllv	t0,a3,t6
9d00ad18:	11000002 	beqz	t0,9d00ad24 <i37>
9d00ad1c:	01873806 	srlv	a3,a3,t4
9d00ad20:	34e70002 	ori	a3,a3,0x2

9d00ad24 <i37>:
9d00ad24:	24080000 	li	t0,0
9d00ad28:	24ee0080 	addiu	t6,a3,128
9d00ad2c:	05c1ffbd 	bgez	t6,9d00ac24 <Dlab8>
9d00ad30:	00000000 	nop
9d00ad34:	1000ffbb 	b	9d00ac24 <Dlab8>
9d00ad38:	24080001 	li	t0,1

9d00ad3c <Dinf>:
9d00ad3c:	3c017f80 	lui	at,0x7f80
9d00ad40:	1000ffc3 	b	9d00ac50 <D999>
9d00ad44:	01611025 	or	v0,t3,at

9d00ad48 <Dnan>:
9d00ad48:	1000ffc1 	b	9d00ac50 <D999>
9d00ad4c:	3c02ffc0 	lui	v0,0xffc0
9d00ad50:	00000000 	nop

Disassembly of section .text.__fmt_x:

9d00ad54 <__fmt_x>:
9d00ad54:	27bdffa8 	addiu	sp,sp,-88
9d00ad58:	afb10034 	sw	s1,52(sp)
9d00ad5c:	8cb10004 	lw	s1,4(a1)
9d00ad60:	afbe0050 	sw	s8,80(sp)
9d00ad64:	afb7004c 	sw	s7,76(sp)
9d00ad68:	afb50044 	sw	s5,68(sp)
9d00ad6c:	afb3003c 	sw	s3,60(sp)
9d00ad70:	00e04825 	move	t1,a3
9d00ad74:	afbf0054 	sw	ra,84(sp)
9d00ad78:	afb60048 	sw	s6,72(sp)
9d00ad7c:	afb40040 	sw	s4,64(sp)
9d00ad80:	afb20038 	sw	s2,56(sp)
9d00ad84:	afb00030 	sw	s0,48(sp)
9d00ad88:	00809825 	move	s3,a0
9d00ad8c:	00a0a825 	move	s5,a1
9d00ad90:	8ca70008 	lw	a3,8(a1)
9d00ad94:	8cbe0000 	lw	s8,0(a1)
9d00ad98:	0620004c 	bltz	s1,9d00aecc <__fmt_x+0x178>
9d00ad9c:	8cb7000c 	lw	s7,12(a1)
9d00ada0:	7c1e0844 	ins	s8,zero,0x1,0x1
9d00ada4:	33ca0010 	andi	t2,s8,0x10
9d00ada8:	8cd60000 	lw	s6,0(a2)
9d00adac:	8cc80004 	lw	t0,4(a2)
9d00adb0:	11400004 	beqz	t2,9d00adc4 <__fmt_x+0x70>
9d00adb4:	00e01025 	move	v0,a3
9d00adb8:	02c81825 	or	v1,s6,t0
9d00adbc:	54600001 	bnezl	v1,9d00adc4 <__fmt_x+0x70>
9d00adc0:	24e2fffe 	addiu	v0,a3,-2
9d00adc4:	33cb0008 	andi	t3,s8,0x8
9d00adc8:	55600001 	bnezl	t3,9d00add0 <__fmt_x+0x7c>
9d00adcc:	2442ffff 	addiu	v0,v0,-1
9d00add0:	8eb00010 	lw	s0,16(s5)
9d00add4:	2534ffbf 	addiu	s4,t1,-65
9d00add8:	00519023 	subu	s2,v0,s1
9d00addc:	2610ffff 	addiu	s0,s0,-1
9d00ade0:	02f01821 	addu	v1,s7,s0
9d00ade4:	a0600000 	sb	zero,0(v1)
9d00ade8:	33c50002 	andi	a1,s8,0x2
9d00adec:	2e94001a 	sltiu	s4,s4,26
9d00adf0:	2a020002 	slti	v0,s0,2
9d00adf4:	1440000a 	bnez	v0,9d00ae20 <__fmt_x+0xcc>
9d00adf8:	02c81025 	or	v0,s6,t0
9d00adfc:	14400035 	bnez	v0,9d00aed4 <__fmt_x+0x180>
9d00ae00:	32c3000f 	andi	v1,s6,0xf
9d00ae04:	1e200034 	bgtz	s1,9d00aed8 <__fmt_x+0x184>
9d00ae08:	2864000a 	slti	a0,v1,10
9d00ae0c:	02511021 	addu	v0,s2,s1
9d00ae10:	18400003 	blez	v0,9d00ae20 <__fmt_x+0xcc>
9d00ae14:	00000000 	nop
9d00ae18:	54a00030 	bnezl	a1,9d00aedc <__fmt_x+0x188>
9d00ae1c:	2610ffff 	addiu	s0,s0,-1
9d00ae20:	1140000b 	beqz	t2,9d00ae50 <__fmt_x+0xfc>
9d00ae24:	00000000 	nop
9d00ae28:	8cc20000 	lw	v0,0(a2)
9d00ae2c:	8cc30004 	lw	v1,4(a2)
9d00ae30:	00431025 	or	v0,v0,v1
9d00ae34:	10400006 	beqz	v0,9d00ae50 <__fmt_x+0xfc>
9d00ae38:	02f01021 	addu	v0,s7,s0
9d00ae3c:	2610fffe 	addiu	s0,s0,-2
9d00ae40:	a049ffff 	sb	t1,-1(v0)
9d00ae44:	24030030 	li	v1,48
9d00ae48:	02f01021 	addu	v0,s7,s0
9d00ae4c:	a0430000 	sb	v1,0(v0)
9d00ae50:	51600006 	beqzl	t3,9d00ae6c <__fmt_x+0x118>
9d00ae54:	8ea60010 	lw	a2,16(s5)
9d00ae58:	2610ffff 	addiu	s0,s0,-1
9d00ae5c:	02f01021 	addu	v0,s7,s0
9d00ae60:	24030020 	li	v1,32
9d00ae64:	a0430000 	sb	v1,0(v0)
9d00ae68:	8ea60010 	lw	a2,16(s5)
9d00ae6c:	afbe0010 	sw	s8,16(sp)
9d00ae70:	02f02821 	addu	a1,s7,s0
9d00ae74:	24c6ffff 	addiu	a2,a2,-1
9d00ae78:	00d03023 	subu	a2,a2,s0
9d00ae7c:	0f40348c 	jal	9d00d230 <__pad>
9d00ae80:	02602025 	move	a0,s3
9d00ae84:	8e630004 	lw	v1,4(s3)
9d00ae88:	30630100 	andi	v1,v1,0x100
9d00ae8c:	10600004 	beqz	v1,9d00aea0 <__fmt_x+0x14c>
9d00ae90:	8fbf0054 	lw	ra,84(sp)
9d00ae94:	8ea30004 	lw	v1,4(s5)
9d00ae98:	0043202a 	slt	a0,v0,v1
9d00ae9c:	0064100b 	movn	v0,v1,a0
9d00aea0:	8fbe0050 	lw	s8,80(sp)
9d00aea4:	8fb7004c 	lw	s7,76(sp)
9d00aea8:	8fb60048 	lw	s6,72(sp)
9d00aeac:	8fb50044 	lw	s5,68(sp)
9d00aeb0:	8fb40040 	lw	s4,64(sp)
9d00aeb4:	8fb3003c 	lw	s3,60(sp)
9d00aeb8:	8fb20038 	lw	s2,56(sp)
9d00aebc:	8fb10034 	lw	s1,52(sp)
9d00aec0:	8fb00030 	lw	s0,48(sp)
9d00aec4:	03e00008 	jr	ra
9d00aec8:	27bd0058 	addiu	sp,sp,88
9d00aecc:	1000ffb5 	b	9d00ada4 <__fmt_x+0x50>
9d00aed0:	24110001 	li	s1,1
9d00aed4:	2864000a 	slti	a0,v1,10
9d00aed8:	2610ffff 	addiu	s0,s0,-1
9d00aedc:	10800002 	beqz	a0,9d00aee8 <__fmt_x+0x194>
9d00aee0:	24620057 	addiu	v0,v1,87
9d00aee4:	24620030 	addiu	v0,v1,48
9d00aee8:	12800017 	beqz	s4,9d00af48 <__fmt_x+0x1f4>
9d00aeec:	02f01821 	addu	v1,s7,s0
9d00aef0:	34430020 	ori	v1,v0,0x20
9d00aef4:	2463ff9f 	addiu	v1,v1,-97
9d00aef8:	2c63001a 	sltiu	v1,v1,26
9d00aefc:	10600012 	beqz	v1,9d00af48 <__fmt_x+0x1f4>
9d00af00:	02f01821 	addu	v1,s7,s0
9d00af04:	00402025 	move	a0,v0
9d00af08:	afa50028 	sw	a1,40(sp)
9d00af0c:	afa80024 	sw	t0,36(sp)
9d00af10:	afa90064 	sw	t1,100(sp)
9d00af14:	afa60060 	sw	a2,96(sp)
9d00af18:	afa70020 	sw	a3,32(sp)
9d00af1c:	afab001c 	sw	t3,28(sp)
9d00af20:	0f403fe8 	jal	9d00ffa0 <toupper>
9d00af24:	afaa0018 	sw	t2,24(sp)
9d00af28:	8fa50028 	lw	a1,40(sp)
9d00af2c:	8fa80024 	lw	t0,36(sp)
9d00af30:	8fa90064 	lw	t1,100(sp)
9d00af34:	8fa60060 	lw	a2,96(sp)
9d00af38:	8fa70020 	lw	a3,32(sp)
9d00af3c:	8fab001c 	lw	t3,28(sp)
9d00af40:	8faa0018 	lw	t2,24(sp)
9d00af44:	02f01821 	addu	v1,s7,s0
9d00af48:	a0620000 	sb	v0,0(v1)
9d00af4c:	0016b102 	srl	s6,s6,0x4
9d00af50:	00081700 	sll	v0,t0,0x1c
9d00af54:	2631ffff 	addiu	s1,s1,-1
9d00af58:	0056b025 	or	s6,v0,s6
9d00af5c:	1000ffa4 	b	9d00adf0 <__fmt_x+0x9c>
9d00af60:	00084102 	srl	t0,t0,0x4

Disassembly of section .text.__floatdidf:

9d00af64 <__floatdidf>:
9d00af64:	00851025 	or	v0,a0,a1
9d00af68:	1040003e 	beqz	v0,9d00b064 <__floatdidf+0x100>
9d00af6c:	00a03825 	move	a3,a1
9d00af70:	24820001 	addiu	v0,a0,1
9d00af74:	0044302b 	sltu	a2,v0,a0
9d00af78:	00c53021 	addu	a2,a2,a1
9d00af7c:	7c020844 	ins	v0,zero,0x1,0x1
9d00af80:	00051fc2 	srl	v1,a1,0x1f
9d00af84:	00463025 	or	a2,v0,a2
9d00af88:	00801025 	move	v0,a0
9d00af8c:	10c00038 	beqz	a2,9d00b070 <__floatdidf+0x10c>
9d00af90:	00031ac0 	sll	v1,v1,0xb
9d00af94:	2406000a 	li	a2,10
9d00af98:	10860040 	beq	a0,a2,9d00b09c <__floatdidf+0x138>
9d00af9c:	2406fff6 	li	a2,-10
9d00afa0:	1086005f 	beq	a0,a2,9d00b120 <__floatdidf+0x1bc>
9d00afa4:	2406ffff 	li	a2,-1
9d00afa8:	04a00035 	bltz	a1,9d00b080 <__floatdidf+0x11c>
9d00afac:	00000000 	nop
9d00afb0:	14e00042 	bnez	a3,9d00b0bc <__floatdidf+0x158>
9d00afb4:	70463020 	clz	a2,v0
9d00afb8:	24c60020 	addiu	a2,a2,32
9d00afbc:	24c4fff8 	addiu	a0,a2,-8
9d00afc0:	00024042 	srl	t0,v0,0x1
9d00afc4:	00044827 	nor	t1,zero,a0
9d00afc8:	00872804 	sllv	a1,a3,a0
9d00afcc:	01284006 	srlv	t0,t0,t1
9d00afd0:	30870020 	andi	a3,a0,0x20
9d00afd4:	01052825 	or	a1,t0,a1
9d00afd8:	00822004 	sllv	a0,v0,a0
9d00afdc:	00801025 	move	v0,a0
9d00afe0:	2408043e 	li	t0,1086
9d00afe4:	00a7200a 	movz	a0,a1,a3
9d00afe8:	0007100b 	movn	v0,zero,a3
9d00afec:	01064023 	subu	t0,t0,a2
9d00aff0:	00803825 	move	a3,a0
9d00aff4:	30440007 	andi	a0,v0,0x7
9d00aff8:	10800010 	beqz	a0,9d00b03c <__floatdidf+0xd8>
9d00affc:	000720c2 	srl	a0,a3,0x3
9d00b000:	7c4500c0 	ext	a1,v0,0x3,0x1
9d00b004:	24a50003 	addiu	a1,a1,3
9d00b008:	00452821 	addu	a1,v0,a1
9d00b00c:	00a2102b 	sltu	v0,a1,v0
9d00b010:	00473821 	addu	a3,v0,a3
9d00b014:	7ce40600 	ext	a0,a3,0x18,0x1
9d00b018:	10800007 	beqz	a0,9d00b038 <__floatdidf+0xd4>
9d00b01c:	00a01025 	move	v0,a1
9d00b020:	000727c0 	sll	a0,a3,0x1f
9d00b024:	00051042 	srl	v0,a1,0x1
9d00b028:	2408043f 	li	t0,1087
9d00b02c:	00821025 	or	v0,a0,v0
9d00b030:	00073842 	srl	a3,a3,0x1
9d00b034:	01064023 	subu	t0,t0,a2
9d00b038:	000720c2 	srl	a0,a3,0x3
9d00b03c:	00072f40 	sll	a1,a3,0x1d
9d00b040:	000210c2 	srl	v0,v0,0x3
9d00b044:	7c860500 	ext	a2,a0,0x14,0x1
9d00b048:	10c00003 	beqz	a2,9d00b058 <__floatdidf+0xf4>
9d00b04c:	00a21025 	or	v0,a1,v0
9d00b050:	7c849800 	ext	a0,a0,0x0,0x14
9d00b054:	00681825 	or	v1,v1,t0
9d00b058:	00031d00 	sll	v1,v1,0x14
9d00b05c:	03e00008 	jr	ra
9d00b060:	00641825 	or	v1,v1,a0
9d00b064:	00001025 	move	v0,zero
9d00b068:	03e00008 	jr	ra
9d00b06c:	00001825 	move	v1,zero
9d00b070:	346303ff 	ori	v1,v1,0x3ff
9d00b074:	00031d00 	sll	v1,v1,0x14
9d00b078:	03e00008 	jr	ra
9d00b07c:	00001025 	move	v0,zero
9d00b080:	5080002f 	beqzl	a0,9d00b140 <__floatdidf+0x1dc>
9d00b084:	3c028000 	lui	v0,0x8000
9d00b088:	00041023 	negu	v0,a0
9d00b08c:	0002382b 	sltu	a3,zero,v0
9d00b090:	00052823 	negu	a1,a1
9d00b094:	1000ffc6 	b	9d00afb0 <__floatdidf+0x4c>
9d00b098:	00a73823 	subu	a3,a1,a3
9d00b09c:	14a0ffc0 	bnez	a1,9d00afa0 <__floatdidf+0x3c>
9d00b0a0:	00000000 	nop
9d00b0a4:	34630402 	ori	v1,v1,0x402
9d00b0a8:	3c040004 	lui	a0,0x4
9d00b0ac:	00031d00 	sll	v1,v1,0x14
9d00b0b0:	00001025 	move	v0,zero
9d00b0b4:	03e00008 	jr	ra
9d00b0b8:	00641825 	or	v1,v1,a0
9d00b0bc:	70e63020 	clz	a2,a3
9d00b0c0:	24040008 	li	a0,8
9d00b0c4:	2408043e 	li	t0,1086
9d00b0c8:	00862023 	subu	a0,a0,a2
9d00b0cc:	18800018 	blez	a0,9d00b130 <__floatdidf+0x1cc>
9d00b0d0:	01064023 	subu	t0,t0,a2
9d00b0d4:	00042827 	nor	a1,zero,a0
9d00b0d8:	00075040 	sll	t2,a3,0x1
9d00b0dc:	00aa5004 	sllv	t2,t2,a1
9d00b0e0:	00824806 	srlv	t1,v0,a0
9d00b0e4:	24c5fff8 	addiu	a1,a2,-8
9d00b0e8:	308b0020 	andi	t3,a0,0x20
9d00b0ec:	01494825 	or	t1,t2,t1
9d00b0f0:	00872006 	srlv	a0,a3,a0
9d00b0f4:	30ac0020 	andi	t4,a1,0x20
9d00b0f8:	008b480b 	movn	t1,a0,t3
9d00b0fc:	00405025 	move	t2,v0
9d00b100:	15800017 	bnez	t4,9d00b160 <__floatdidf+0x1fc>
9d00b104:	000b200b 	movn	a0,zero,t3
9d00b108:	00a72804 	sllv	a1,a3,a1
9d00b10c:	00a21025 	or	v0,a1,v0
9d00b110:	0002102b 	sltu	v0,zero,v0
9d00b114:	00491025 	or	v0,v0,t1
9d00b118:	1000ffb6 	b	9d00aff4 <__floatdidf+0x90>
9d00b11c:	00803825 	move	a3,a0
9d00b120:	14a6ffa1 	bne	a1,a2,9d00afa8 <__floatdidf+0x44>
9d00b124:	00000000 	nop
9d00b128:	1000ffdf 	b	9d00b0a8 <__floatdidf+0x144>
9d00b12c:	34630402 	ori	v1,v1,0x402
9d00b130:	1480ffa3 	bnez	a0,9d00afc0 <__floatdidf+0x5c>
9d00b134:	24c4fff8 	addiu	a0,a2,-8
9d00b138:	1000ffae 	b	9d00aff4 <__floatdidf+0x90>
9d00b13c:	24060008 	li	a2,8
9d00b140:	54a2ffd2 	bnel	a1,v0,9d00b08c <__floatdidf+0x128>
9d00b144:	00041023 	negu	v0,a0
9d00b148:	00003025 	move	a2,zero
9d00b14c:	2408043e 	li	t0,1086
9d00b150:	00005025 	move	t2,zero
9d00b154:	2405fff8 	li	a1,-8
9d00b158:	00004825 	move	t1,zero
9d00b15c:	3c040080 	lui	a0,0x80
9d00b160:	1000ffeb 	b	9d00b110 <__floatdidf+0x1ac>
9d00b164:	00aa1004 	sllv	v0,t2,a1

Disassembly of section .text.__scan_x:

9d00b168 <__scan_x>:
9d00b168:	27bdffc0 	addiu	sp,sp,-64
9d00b16c:	afb20020 	sw	s2,32(sp)
9d00b170:	00e09025 	move	s2,a3
9d00b174:	afb60030 	sw	s6,48(sp)
9d00b178:	afb5002c 	sw	s5,44(sp)
9d00b17c:	afb30024 	sw	s3,36(sp)
9d00b180:	afb1001c 	sw	s1,28(sp)
9d00b184:	0080b025 	move	s6,a0
9d00b188:	afbf003c 	sw	ra,60(sp)
9d00b18c:	afbe0038 	sw	s8,56(sp)
9d00b190:	afb70034 	sw	s7,52(sp)
9d00b194:	afb40028 	sw	s4,40(sp)
9d00b198:	afb00018 	sw	s0,24(sp)
9d00b19c:	afa50044 	sw	a1,68(sp)
9d00b1a0:	8cd30008 	lw	s3,8(a2)
9d00b1a4:	8cd50010 	lw	s5,16(a2)
9d00b1a8:	0f4036f6 	jal	9d00dbd8 <__skipws>
9d00b1ac:	8cd1000c 	lw	s1,12(a2)
9d00b1b0:	8e440000 	lw	a0,0(s2)
9d00b1b4:	00821021 	addu	v0,a0,v0
9d00b1b8:	16600002 	bnez	s3,9d00b1c4 <__scan_x+0x5c>
9d00b1bc:	ae420000 	sw	v0,0(s2)
9d00b1c0:	26b3ffff 	addiu	s3,s5,-1
9d00b1c4:	00008025 	move	s0,zero
9d00b1c8:	26b5ffff 	addiu	s5,s5,-1
9d00b1cc:	24170078 	li	s7,120
9d00b1d0:	241e0030 	li	s8,48
9d00b1d4:	0213102a 	slt	v0,s0,s3
9d00b1d8:	10400030 	beqz	v0,9d00b29c <__scan_x+0x134>
9d00b1dc:	0215102a 	slt	v0,s0,s5
9d00b1e0:	5040002f 	beqzl	v0,9d00b2a0 <__scan_x+0x138>
9d00b1e4:	02308021 	addu	s0,s1,s0
9d00b1e8:	8ec2003c 	lw	v0,60(s6)
9d00b1ec:	8ec4004c 	lw	a0,76(s6)
9d00b1f0:	0044202b 	sltu	a0,v0,a0
9d00b1f4:	10800039 	beqz	a0,9d00b2dc <__scan_x+0x174>
9d00b1f8:	24440001 	addiu	a0,v0,1
9d00b1fc:	aec4003c 	sw	a0,60(s6)
9d00b200:	90540000 	lbu	s4,0(v0)
9d00b204:	0f403f8e 	jal	9d00fe38 <isxdigit>
9d00b208:	02802025 	move	a0,s4
9d00b20c:	1440004c 	bnez	v0,9d00b340 <__scan_x+0x1d8>
9d00b210:	02301021 	addu	v0,s1,s0
9d00b214:	24020001 	li	v0,1
9d00b218:	5602001b 	bnel	s0,v0,9d00b288 <__scan_x+0x120>
9d00b21c:	8ec2004c 	lw	v0,76(s6)
9d00b220:	0f403fda 	jal	9d00ff68 <tolower>
9d00b224:	02802025 	move	a0,s4
9d00b228:	54570017 	bnel	v0,s7,9d00b288 <__scan_x+0x120>
9d00b22c:	8ec2004c 	lw	v0,76(s6)
9d00b230:	82220000 	lb	v0,0(s1)
9d00b234:	545e0014 	bnel	v0,s8,9d00b288 <__scan_x+0x120>
9d00b238:	8ec2004c 	lw	v0,76(s6)
9d00b23c:	8ec2003c 	lw	v0,60(s6)
9d00b240:	8ec4004c 	lw	a0,76(s6)
9d00b244:	0044202b 	sltu	a0,v0,a0
9d00b248:	10800039 	beqz	a0,9d00b330 <__scan_x+0x1c8>
9d00b24c:	00000000 	nop
9d00b250:	24440001 	addiu	a0,v0,1
9d00b254:	aec4003c 	sw	a0,60(s6)
9d00b258:	90420000 	lbu	v0,0(v0)
9d00b25c:	8ec4004c 	lw	a0,76(s6)
9d00b260:	10800004 	beqz	a0,9d00b274 <__scan_x+0x10c>
9d00b264:	00000000 	nop
9d00b268:	8ec6003c 	lw	a2,60(s6)
9d00b26c:	24c6ffff 	addiu	a2,a2,-1
9d00b270:	aec6003c 	sw	a2,60(s6)
9d00b274:	0f403f8e 	jal	9d00fe38 <isxdigit>
9d00b278:	00402025 	move	a0,v0
9d00b27c:	14400030 	bnez	v0,9d00b340 <__scan_x+0x1d8>
9d00b280:	02301021 	addu	v0,s1,s0
9d00b284:	8ec2004c 	lw	v0,76(s6)
9d00b288:	50400005 	beqzl	v0,9d00b2a0 <__scan_x+0x138>
9d00b28c:	02308021 	addu	s0,s1,s0
9d00b290:	8ec2003c 	lw	v0,60(s6)
9d00b294:	2442ffff 	addiu	v0,v0,-1
9d00b298:	aec2003c 	sw	v0,60(s6)
9d00b29c:	02308021 	addu	s0,s1,s0
9d00b2a0:	02202025 	move	a0,s1
9d00b2a4:	27a50010 	addiu	a1,sp,16
9d00b2a8:	a2000000 	sb	zero,0(s0)
9d00b2ac:	0f403ed2 	jal	9d00fb48 <strtoull>
9d00b2b0:	24060010 	li	a2,16
9d00b2b4:	8fa40044 	lw	a0,68(sp)
9d00b2b8:	8fa50010 	lw	a1,16(sp)
9d00b2bc:	ac820000 	sw	v0,0(a0)
9d00b2c0:	00b18826 	xor	s1,a1,s1
9d00b2c4:	2402fffe 	li	v0,-2
9d00b2c8:	24050001 	li	a1,1
9d00b2cc:	0051280a 	movz	a1,v0,s1
9d00b2d0:	ac830004 	sw	v1,4(a0)
9d00b2d4:	10000009 	b	9d00b2fc <__scan_x+0x194>
9d00b2d8:	00a0a025 	move	s4,a1
9d00b2dc:	0f403330 	jal	9d00ccc0 <__shgetc>
9d00b2e0:	02c02025 	move	a0,s6
9d00b2e4:	0040a025 	move	s4,v0
9d00b2e8:	2402ffff 	li	v0,-1
9d00b2ec:	1682ffc5 	bne	s4,v0,9d00b204 <__scan_x+0x9c>
9d00b2f0:	00000000 	nop
9d00b2f4:	1600ffea 	bnez	s0,9d00b2a0 <__scan_x+0x138>
9d00b2f8:	02308021 	addu	s0,s1,s0
9d00b2fc:	8fbf003c 	lw	ra,60(sp)
9d00b300:	02801025 	move	v0,s4
9d00b304:	8fbe0038 	lw	s8,56(sp)
9d00b308:	8fb70034 	lw	s7,52(sp)
9d00b30c:	8fb60030 	lw	s6,48(sp)
9d00b310:	8fb5002c 	lw	s5,44(sp)
9d00b314:	8fb40028 	lw	s4,40(sp)
9d00b318:	8fb30024 	lw	s3,36(sp)
9d00b31c:	8fb20020 	lw	s2,32(sp)
9d00b320:	8fb1001c 	lw	s1,28(sp)
9d00b324:	8fb00018 	lw	s0,24(sp)
9d00b328:	03e00008 	jr	ra
9d00b32c:	27bd0040 	addiu	sp,sp,64
9d00b330:	0f403330 	jal	9d00ccc0 <__shgetc>
9d00b334:	02c02025 	move	a0,s6
9d00b338:	1000ffc9 	b	9d00b260 <__scan_x+0xf8>
9d00b33c:	8ec4004c 	lw	a0,76(s6)
9d00b340:	a0540000 	sb	s4,0(v0)
9d00b344:	8e420000 	lw	v0,0(s2)
9d00b348:	26100001 	addiu	s0,s0,1
9d00b34c:	24420001 	addiu	v0,v0,1
9d00b350:	1000ffa0 	b	9d00b1d4 <__scan_x+0x6c>
9d00b354:	ae420000 	sw	v0,0(s2)

Disassembly of section .text.fp32mul:

9d00b358 <__mulsf3>:
9d00b358:	00043dc2 30e700ff 00054dc2 312900ff     .=.....0.M....)1
9d00b368:	3c0a8000 00043200 00ca3025 00054200     ...<.2..%0...B..
9d00b378:	010a4025 00856026 014c5024 24ecffff     %@..&`..$PL....$
9d00b388:	2d8100fe 10200021 00000000              ...-!. .....

9d00b394 <Clab1>:
9d00b394:	252cffff 	addiu	t4,t1,-1
9d00b398:	2d8100fe 	sltiu	at,t4,254
9d00b39c:	10200036 	beqz	at,9d00b478 <CspecB>
9d00b3a0:	00000000 	nop

9d00b3a4 <Clab2>:
9d00b3a4:	00c80019 	multu	a2,t0
9d00b3a8:	00005812 	mflo	t3
9d00b3ac:	11600002 	beqz	t3,9d00b3b8 <i17>
9d00b3b0:	00003010 	mfhi	a2
9d00b3b4:	34c60001 	ori	a2,a2,0x1

9d00b3b8 <i17>:
9d00b3b8:	04c00003 	bltz	a2,9d00b3c8 <i18>
9d00b3bc:	00000000 	nop
9d00b3c0:	00063040 	sll	a2,a2,0x1
9d00b3c4:	24e7ffff 	addiu	a3,a3,-1

9d00b3c8 <i18>:
9d00b3c8:	252cff82 	addiu	t4,t1,-126
9d00b3cc:	00ec3821 	addu	a3,a3,t4
9d00b3d0:	24ecffff 	addiu	t4,a3,-1
9d00b3d4:	2d8100fe 	sltiu	at,t4,254
9d00b3d8:	1020003a 	beqz	at,9d00b4c4 <Coveund>
9d00b3dc:	00000000 	nop

9d00b3e0 <Clab8>:
9d00b3e0:	24c60080 	addiu	a2,a2,128
9d00b3e4:	2ccc0080 	sltiu	t4,a2,128
9d00b3e8:	00ec3821 	addu	a3,a3,t4
9d00b3ec:	00066202 	srl	t4,a2,0x8
9d00b3f0:	318c0001 	andi	t4,t4,0x1
9d00b3f4:	00cc3023 	subu	a2,a2,t4
9d00b3f8:	00063040 	sll	a2,a2,0x1
9d00b3fc:	00063242 	srl	a2,a2,0x9
9d00b400:	000765c0 	sll	t4,a3,0x17
9d00b404:	00cc3025 	or	a2,a2,t4
9d00b408:	00ca1025 	or	v0,a2,t2

9d00b40c <C999>:
9d00b40c:	03e00008 	jr	ra
9d00b410:	00000000 	nop

9d00b414 <CspecA>:
9d00b414:	14e0000d 	bnez	a3,9d00b44c <i19>
9d00b418:	00000000 	nop
9d00b41c:	00c63021 	addu	a2,a2,a2
9d00b420:	10c00005 	beqz	a2,9d00b438 <i20>
9d00b424:	00000000 	nop
9d00b428:	70cb5820 	clz	t3,a2
9d00b42c:	00eb3823 	subu	a3,a3,t3
9d00b430:	1000ffd8 	b	9d00b394 <Clab1>
9d00b434:	01663004 	sllv	a2,a2,t3

9d00b438 <i20>:
9d00b438:	240100ff 	li	at,255
9d00b43c:	1121001f 	beq	t1,at,9d00b4bc <Cnan>
9d00b440:	00000000 	nop
9d00b444:	10000015 	b	9d00b49c <Czer>
9d00b448:	00000000 	nop

9d00b44c <i19>:
9d00b44c:	00c66021 	addu	t4,a2,a2
9d00b450:	1580001a 	bnez	t4,9d00b4bc <Cnan>
9d00b454:	00000000 	nop
9d00b458:	15200004 	bnez	t1,9d00b46c <i21>
9d00b45c:	00000000 	nop
9d00b460:	01086021 	addu	t4,t0,t0
9d00b464:	11800015 	beqz	t4,9d00b4bc <Cnan>
9d00b468:	00000000 	nop

9d00b46c <i21>:
9d00b46c:	240100ff 	li	at,255
9d00b470:	1521000f 	bne	t1,at,9d00b4b0 <Cinf>
9d00b474:	00000000 	nop

9d00b478 <CspecB>:
9d00b478:	1520000a 	bnez	t1,9d00b4a4 <i22>
9d00b47c:	00000000 	nop
9d00b480:	01084021 	addu	t0,t0,t0
9d00b484:	11000005 	beqz	t0,9d00b49c <Czer>
9d00b488:	00000000 	nop
9d00b48c:	710b5820 	clz	t3,t0
9d00b490:	012b4823 	subu	t1,t1,t3
9d00b494:	1000ffc3 	b	9d00b3a4 <Clab2>
9d00b498:	01684004 	sllv	t0,t0,t3

9d00b49c <Czer>:
9d00b49c:	1000ffdb 	b	9d00b40c <C999>
9d00b4a0:	000a1025 	or	v0,zero,t2

9d00b4a4 <i22>:
9d00b4a4:	01086021 	addu	t4,t0,t0
9d00b4a8:	15800004 	bnez	t4,9d00b4bc <Cnan>
9d00b4ac:	00000000 	nop

9d00b4b0 <Cinf>:
9d00b4b0:	3c017f80 	lui	at,0x7f80
9d00b4b4:	1000ffd5 	b	9d00b40c <C999>
9d00b4b8:	01411025 	or	v0,t2,at

9d00b4bc <Cnan>:
9d00b4bc:	1000ffd3 	b	9d00b40c <C999>
9d00b4c0:	3c02ffc0 	lui	v0,0xffc0

9d00b4c4 <Coveund>:
9d00b4c4:	1ce0fffa 	bgtz	a3,9d00b4b0 <Cinf>
9d00b4c8:	00000000 	nop
9d00b4cc:	240b0001 	li	t3,1
9d00b4d0:	01675823 	subu	t3,t3,a3
9d00b4d4:	2d610020 	sltiu	at,t3,32
9d00b4d8:	1020fff0 	beqz	at,9d00b49c <Czer>
9d00b4dc:	00000000 	nop
9d00b4e0:	240c0020 	li	t4,32
9d00b4e4:	018b6023 	subu	t4,t4,t3
9d00b4e8:	01863804 	sllv	a3,a2,t4
9d00b4ec:	10e00002 	beqz	a3,9d00b4f8 <i25>
9d00b4f0:	01663006 	srlv	a2,a2,t3
9d00b4f4:	34c60002 	ori	a2,a2,0x2

9d00b4f8 <i25>:
9d00b4f8:	24070000 	li	a3,0
9d00b4fc:	24cc0080 	addiu	t4,a2,128
9d00b500:	0581ffb7 	bgez	t4,9d00b3e0 <Clab8>
9d00b504:	00000000 	nop
9d00b508:	1000ffb5 	b	9d00b3e0 <Clab8>
9d00b50c:	24070001 	li	a3,1
9d00b510:	00000000 	nop

Disassembly of section .dinit:

9d00b514 <.dinit>:
9d00b514:	a0013944 	sb	at,14660(zero)
9d00b518:	00000320 	0x320
9d00b51c:	00000000 	nop
9d00b520:	a000000c 	sb	zero,12(zero)
9d00b524:	00000020 	add	zero,zero,zero
9d00b528:	00000000 	nop
9d00b52c:	a000002c 	sb	zero,44(zero)
9d00b530:	0000000c 	syscall
9d00b534:	00000000 	nop
9d00b538:	a0000060 	sb	zero,96(zero)
9d00b53c:	00000064 	0x64
9d00b540:	00000000 	nop
9d00b544:	a0009d04 	sb	zero,-25340(zero)
9d00b548:	00009c40 	sll	s3,zero,0x11
9d00b54c:	00000000 	nop
9d00b550:	a0000038 	sb	zero,56(zero)
9d00b554:	0000001c 	0x1c
9d00b558:	00000000 	nop
9d00b55c:	a0000000 	sb	zero,0(zero)
9d00b560:	00000008 	jr	zero
9d00b564:	00000001 	movf	zero,zero,$fcc0
9d00b568:	43fa0000 	c0	0x1fa0000
9d00b56c:	41200000 	0x41200000
9d00b570:	a00000c4 	sb	zero,196(zero)
9d00b574:	00009c40 	sll	s3,zero,0x11
9d00b578:	00000000 	nop
9d00b57c:	a0000054 	sb	zero,84(zero)
9d00b580:	00000004 	sllv	zero,zero,zero
9d00b584:	00000000 	nop
9d00b588:	a0013e78 	sb	at,15992(zero)
9d00b58c:	00000068 	0x68
9d00b590:	00000001 	movf	zero,zero,$fcc0
9d00b594:	00000001 	movf	zero,zero,$fcc0
9d00b598:	00000003 	sra	zero,zero,0x0
	...
9d00b5b0:	9d00d998 	0x9d00d998
	...
9d00b5c0:	9d00fea0 	0x9d00fea0
9d00b5c4:	9d00e1d0 	0x9d00e1d0
	...
9d00b5fc:	a0013c64 	sb	at,15460(zero)
9d00b600:	00000004 	sllv	zero,zero,zero
9d00b604:	00000000 	nop
9d00b608:	a0013ee0 	sb	at,16096(zero)
9d00b60c:	00000068 	0x68
9d00b610:	00000001 	movf	zero,zero,$fcc0
9d00b614:	00000001 	movf	zero,zero,$fcc0
9d00b618:	00000003 	sra	zero,zero,0x0
	...
9d00b630:	9d00d998 	0x9d00d998
	...
9d00b640:	9d00fea0 	0x9d00fea0
9d00b644:	9d00e1d0 	0x9d00e1d0
	...
9d00b67c:	a0013c68 	sb	at,15464(zero)
9d00b680:	00000210 	0x210
9d00b684:	00000000 	nop
9d00b688:	a0013f48 	sb	at,16200(zero)
9d00b68c:	00000050 	0x50
9d00b690:	00000000 	nop
9d00b694:	a0013f98 	sb	at,16280(zero)
9d00b698:	00000024 	and	zero,zero,zero
9d00b69c:	00000000 	nop
9d00b6a0:	a0013fbc 	sb	at,16316(zero)
9d00b6a4:	00000004 	sllv	zero,zero,zero
9d00b6a8:	00000000 	nop
9d00b6ac:	a0000008 	sb	zero,8(zero)
9d00b6b0:	00000004 	sllv	zero,zero,zero
9d00b6b4:	00000001 	movf	zero,zero,$fcc0
9d00b6b8:	00000002 	srl	zero,zero,0x0
9d00b6bc:	00000000 	nop
9d00b6c0:	22222222 	addi	v0,s1,8738

Disassembly of section .text:

9d00b6c4 <NU32_Startup>:

// Perform startup routines:
//  Make NU32_LED1 and NU32_LED2 pins outputs (NU32_USER is by default an input)
//  Initialize the serial port - UART3 (no interrupt) 
//  Enable interrupts
void NU32_Startup() {
9d00b6c4:	27bdfff8 	addiu	sp,sp,-8
9d00b6c8:	afbf0004 	sw	ra,4(sp)
  // disable interrupts
  __builtin_disable_interrupts();
9d00b6cc:	41626000 	di	v0
9d00b6d0:	000000c0 	ehb
  // see Chapter 2 "CPU for Devices with M4K Core" of the PIC32 reference manual
  // most of the other bits have prescribed values
  // microchip does not provide a _CP0_SET_CONFIG macro, so we directly use
  // the compiler built-in command _mtc0
  // to disable cache, use 0xa4210582 
  __builtin_mtc0(_CP0_CONFIG, _CP0_CONFIG_SELECT, 0xa4210583); 
9d00b6d4:	3c02a421 	lui	v0,0xa421
9d00b6d8:	24420583 	addiu	v0,v0,1411
9d00b6dc:	40828000 	mtc0	v0,c0_config
9d00b6e0:	000000c0 	ehb
  
  // set the prefectch cache wait state to 2, as per the
  // electrical characteristics data sheet
  CHECONbits.PFMWS = 0x2;   
9d00b6e4:	3c02bf88 	lui	v0,0xbf88
9d00b6e8:	8c434000 	lw	v1,16384(v0)
9d00b6ec:	24050002 	li	a1,2
9d00b6f0:	7ca31004 	ins	v1,a1,0x0,0x3
9d00b6f4:	ac434000 	sw	v1,16384(v0)

  //enable prefetch for cacheable and noncacheable memory
  CHECONbits.PREFEN = 0x3; 
9d00b6f8:	8c434000 	lw	v1,16384(v0)
9d00b6fc:	24040003 	li	a0,3
9d00b700:	7c832904 	ins	v1,a0,0x4,0x2
9d00b704:	ac434000 	sw	v1,16384(v0)

  // 0 data RAM access wait states
  BMXCONbits.BMXWSDRM = 0x0;
9d00b708:	3c02bf88 	lui	v0,0xbf88
9d00b70c:	8c432000 	lw	v1,8192(v0)
9d00b710:	7c033184 	ins	v1,zero,0x6,0x1
9d00b714:	ac432000 	sw	v1,8192(v0)
  
  // enable multi vector interrupts
  INTCONbits.MVEC = 0x1;
9d00b718:	3c02bf88 	lui	v0,0xbf88
9d00b71c:	8c461000 	lw	a2,4096(v0)
9d00b720:	24030001 	li	v1,1
9d00b724:	7c666304 	ins	a2,v1,0xc,0x1
9d00b728:	ac461000 	sw	a2,4096(v0)

  // disable JTAG to get B10, B11, B12 and B13 back
  DDPCONbits.JTAGEN = 0;
9d00b72c:	3c02bf81 	lui	v0,0xbf81
9d00b730:	9046f200 	lbu	a2,-3584(v0)
9d00b734:	7c0618c4 	ins	a2,zero,0x3,0x1
9d00b738:	a046f200 	sb	a2,-3584(v0)

  TRISFCLR = 0x0003;  // Make F0 and F1 outputs (LED1 and LED2)
9d00b73c:	3c02bf88 	lui	v0,0xbf88
9d00b740:	ac446144 	sw	a0,24900(v0)
  NU32_LED1 = 1;      // LED1 is off
9d00b744:	3c02bf88 	lui	v0,0xbf88
9d00b748:	90446160 	lbu	a0,24928(v0)
9d00b74c:	7c640004 	ins	a0,v1,0x0,0x1
9d00b750:	a0446160 	sb	a0,24928(v0)
  NU32_LED2 = 0;      // LED2 is on
9d00b754:	90446160 	lbu	a0,24928(v0)
9d00b758:	7c040844 	ins	a0,zero,0x1,0x1
9d00b75c:	a0446160 	sb	a0,24928(v0)

  // turn on UART3 without an interrupt
  U3MODEbits.BRGH = 0; // set baud to NU32_DESIRED_BAUD
9d00b760:	3c02bf80 	lui	v0,0xbf80
9d00b764:	94446400 	lhu	a0,25600(v0)
9d00b768:	7c0418c4 	ins	a0,zero,0x3,0x1
9d00b76c:	a4446400 	sh	a0,25600(v0)
  U3BRG = ((NU32_SYS_FREQ / NU32_DESIRED_BAUD) / 16) - 1;
9d00b770:	3c04bf80 	lui	a0,0xbf80
9d00b774:	24060014 	li	a2,20
9d00b778:	ac866440 	sw	a2,25664(a0)

  // 8 bit, no parity bit, and 1 stop bit (8N1 setup)
  U3MODEbits.PDSEL = 0;
9d00b77c:	94446400 	lhu	a0,25600(v0)
9d00b780:	7c041044 	ins	a0,zero,0x1,0x2
9d00b784:	a4446400 	sh	a0,25600(v0)
  U3MODEbits.STSEL = 0;
9d00b788:	94446400 	lhu	a0,25600(v0)
9d00b78c:	7c040004 	ins	a0,zero,0x0,0x1
9d00b790:	a4446400 	sh	a0,25600(v0)

  // configure TX & RX pins as output & input pins
  U3STAbits.UTXEN = 1;
9d00b794:	3c04bf80 	lui	a0,0xbf80
9d00b798:	8c866410 	lw	a2,25616(a0)
9d00b79c:	7c665284 	ins	a2,v1,0xa,0x1
9d00b7a0:	ac866410 	sw	a2,25616(a0)
  U3STAbits.URXEN = 1;
9d00b7a4:	8c866410 	lw	a2,25616(a0)
9d00b7a8:	7c666304 	ins	a2,v1,0xc,0x1
9d00b7ac:	ac866410 	sw	a2,25616(a0)
  // configure hardware flow control using RTS and CTS
  U3MODEbits.UEN = 2;
9d00b7b0:	94446400 	lhu	a0,25600(v0)
9d00b7b4:	7ca44a04 	ins	a0,a1,0x8,0x2
9d00b7b8:	a4446400 	sh	a0,25600(v0)

  // enable the uart
  U3MODEbits.ON = 1;
9d00b7bc:	94446400 	lhu	a0,25600(v0)
9d00b7c0:	7c647bc4 	ins	a0,v1,0xf,0x1
9d00b7c4:	a4446400 	sh	a0,25600(v0)

  __builtin_enable_interrupts();
9d00b7c8:	41626020 	ei	v0
}
9d00b7cc:	8fbf0004 	lw	ra,4(sp)
9d00b7d0:	03e00008 	jr	ra
9d00b7d4:	27bd0008 	addiu	sp,sp,8

9d00b7d8 <NU32_ReadUART3>:
// Read from UART3
// block other functions until you get a '\r' or '\n'
// send the pointer to your char array and the number of elements in the array
void NU32_ReadUART3(char * message, int maxLength) {
  char data = 0;
  int complete = 0, num_bytes = 0;
9d00b7d8:	00003025 	move	a2,zero
  // loop until you get a '\r' or '\n'
  while (!complete) {
    if (U3STAbits.URXDA) { // if data is available
9d00b7dc:	3c03bf80 	lui	v1,0xbf80
      data = U3RXREG;      // read the data
9d00b7e0:	3c09bf80 	lui	t1,0xbf80
      if ((data == '\n') || (data == '\r')) {
9d00b7e4:	2408000a 	li	t0,10
9d00b7e8:	240a000d 	li	t2,13
    if (U3STAbits.URXDA) { // if data is available
9d00b7ec:	8c626410 	lw	v0,25616(v1)
9d00b7f0:	30420001 	andi	v0,v0,0x1
9d00b7f4:	1040fffd 	beqz	v0,9d00b7ec <NU32_ReadUART3+0x14>
9d00b7f8:	00000000 	nop
      data = U3RXREG;      // read the data
9d00b7fc:	8d226430 	lw	v0,25648(t1)
9d00b800:	7c021420 	seb	v0,v0
      if ((data == '\n') || (data == '\r')) {
9d00b804:	50480009 	beql	v0,t0,9d00b82c <NU32_ReadUART3+0x54>
9d00b808:	00862021 	addu	a0,a0,a2
9d00b80c:	104a0006 	beq	v0,t2,9d00b828 <NU32_ReadUART3+0x50>
9d00b810:	00863821 	addu	a3,a0,a2
        complete = 1;
      } else {
        message[num_bytes] = data;
9d00b814:	a0e20000 	sb	v0,0(a3)
        ++num_bytes;
9d00b818:	24c60001 	addiu	a2,a2,1
        // roll over if the array is too small
        if (num_bytes >= maxLength) {
9d00b81c:	00c5102a 	slt	v0,a2,a1
9d00b820:	1000fff2 	b	9d00b7ec <NU32_ReadUART3+0x14>
9d00b824:	0002300a 	movz	a2,zero,v0
        }
      }
    }
  }
  // end the string
  message[num_bytes] = '\0';
9d00b828:	00862021 	addu	a0,a0,a2
}
9d00b82c:	03e00008 	jr	ra
9d00b830:	a0800000 	sb	zero,0(a0)

9d00b834 <NU32_WriteUART3>:

// Write a character array using UART3
void NU32_WriteUART3(const char * string) {
  while (*string != '\0') {
9d00b834:	80850000 	lb	a1,0(a0)
9d00b838:	10a0000b 	beqz	a1,9d00b868 <NU32_WriteUART3+0x34>
9d00b83c:	3c03bf80 	lui	v1,0xbf80
    while (U3STAbits.UTXBF) {
      ; // wait until tx buffer isn't full
    }
    U3TXREG = *string;
9d00b840:	3c06bf80 	lui	a2,0xbf80
    while (U3STAbits.UTXBF) {
9d00b844:	8c626410 	lw	v0,25616(v1)
9d00b848:	7c420240 	ext	v0,v0,0x9,0x1
9d00b84c:	1440fffd 	bnez	v0,9d00b844 <NU32_WriteUART3+0x10>
9d00b850:	00000000 	nop
    U3TXREG = *string;
9d00b854:	acc56420 	sw	a1,25632(a2)
    ++string;
9d00b858:	24840001 	addiu	a0,a0,1
  while (*string != '\0') {
9d00b85c:	80850000 	lb	a1,0(a0)
9d00b860:	14a0fff8 	bnez	a1,9d00b844 <NU32_WriteUART3+0x10>
9d00b864:	00000000 	nop
  }
}
9d00b868:	03e00008 	jr	ra
9d00b86c:	00000000 	nop

Disassembly of section .text.free:

9d00b870 <free>:
9d00b870:	10800064 	beqz	a0,9d00ba04 <free+0x194>
9d00b874:	00000000 	nop
9d00b878:	8c82fffc 	lw	v0,-4(a0)
9d00b87c:	27bdffd0 	addiu	sp,sp,-48
9d00b880:	afb2001c 	sw	s2,28(sp)
9d00b884:	00409025 	move	s2,v0
9d00b888:	afb00014 	sw	s0,20(sp)
9d00b88c:	7c120004 	ins	s2,zero,0x0,0x1
9d00b890:	2490fff8 	addiu	s0,a0,-8
9d00b894:	afb10018 	sw	s1,24(sp)
9d00b898:	02128821 	addu	s1,s0,s2
9d00b89c:	8e230000 	lw	v1,0(s1)
9d00b8a0:	afb40024 	sw	s4,36(sp)
9d00b8a4:	afbf002c 	sw	ra,44(sp)
9d00b8a8:	afb50028 	sw	s5,40(sp)
9d00b8ac:	afb30020 	sw	s3,32(sp)
9d00b8b0:	10430003 	beq	v0,v1,9d00b8c0 <free+0x50>
9d00b8b4:	2414fffe 	li	s4,-2
9d00b8b8:	a0000000 	sb	zero,0(zero)
9d00b8bc:	00000034 	teq	zero,zero
9d00b8c0:	8e020000 	lw	v0,0(s0)
9d00b8c4:	8e230004 	lw	v1,4(s1)
9d00b8c8:	00431024 	and	v0,v0,v1
9d00b8cc:	30420001 	andi	v0,v0,0x1
9d00b8d0:	1440000e 	bnez	v0,9d00b90c <free+0x9c>
9d00b8d4:	36420001 	ori	v0,s2,0x1
9d00b8d8:	0f403b46 	jal	9d00ed18 <alloc_rev>
9d00b8dc:	02002025 	move	a0,s0
9d00b8e0:	54400042 	bnezl	v0,9d00b9ec <free+0x17c>
9d00b8e4:	8e020000 	lw	v0,0(s0)
9d00b8e8:	0f403b9b 	jal	9d00ee6c <alloc_fwd>
9d00b8ec:	02202025 	move	a0,s1
9d00b8f0:	5040fff4 	beqzl	v0,9d00b8c4 <free+0x54>
9d00b8f4:	8e020000 	lw	v0,0(s0)
9d00b8f8:	8e220004 	lw	v0,4(s1)
9d00b8fc:	02821024 	and	v0,s4,v0
9d00b900:	02429021 	addu	s2,s2,v0
9d00b904:	1000ffee 	b	9d00b8c0 <free+0x50>
9d00b908:	02228821 	addu	s1,s1,v0
9d00b90c:	ae020004 	sw	v0,4(s0)
9d00b910:	02402025 	move	a0,s2
9d00b914:	0f403bee 	jal	9d00efb8 <bin_index>
9d00b918:	ae220000 	sw	v0,0(s1)
9d00b91c:	00402025 	move	a0,v0
9d00b920:	0f403e86 	jal	9d00fa18 <lock_bin>
9d00b924:	00409825 	move	s3,v0
9d00b928:	8e020000 	lw	v0,0(s0)
9d00b92c:	8e230004 	lw	v1,4(s1)
9d00b930:	00431024 	and	v0,v0,v1
9d00b934:	30420001 	andi	v0,v0,0x1
9d00b938:	1040ffe7 	beqz	v0,9d00b8d8 <free+0x68>
9d00b93c:	3c15a001 	lui	s5,0xa001
9d00b940:	8ea43c70 	lw	a0,15472(s5)
9d00b944:	8ea53c74 	lw	a1,15476(s5)
9d00b948:	02603025 	move	a2,s3
9d00b94c:	0f403e5a 	jal	9d00f968 <__lshrdi3>
9d00b950:	26b43c70 	addiu	s4,s5,15472
9d00b954:	30420001 	andi	v0,v0,0x1
9d00b958:	54400010 	bnezl	v0,9d00b99c <free+0x12c>
9d00b95c:	26730001 	addiu	s3,s3,1
9d00b960:	00002825 	move	a1,zero
9d00b964:	02603025 	move	a2,s3
9d00b968:	0f403e69 	jal	9d00f9a4 <__ashldi3>
9d00b96c:	24040001 	li	a0,1
9d00b970:	10400004 	beqz	v0,9d00b984 <free+0x114>
9d00b974:	00602825 	move	a1,v1
9d00b978:	8ea43c70 	lw	a0,15472(s5)
9d00b97c:	00822025 	or	a0,a0,v0
9d00b980:	aea43c70 	sw	a0,15472(s5)
9d00b984:	50a00005 	beqzl	a1,9d00b99c <free+0x12c>
9d00b988:	26730001 	addiu	s3,s3,1
9d00b98c:	8e820004 	lw	v0,4(s4)
9d00b990:	00431025 	or	v0,v0,v1
9d00b994:	ae820004 	sw	v0,4(s4)
9d00b998:	26730001 	addiu	s3,s3,1
9d00b99c:	001398c0 	sll	s3,s3,0x3
9d00b9a0:	02939821 	addu	s3,s4,s3
9d00b9a4:	2662fff8 	addiu	v0,s3,-8
9d00b9a8:	ae120004 	sw	s2,4(s0)
9d00b9ac:	ae320000 	sw	s2,0(s1)
9d00b9b0:	ae020008 	sw	v0,8(s0)
9d00b9b4:	8e620004 	lw	v0,4(s3)
9d00b9b8:	8fbf002c 	lw	ra,44(sp)
9d00b9bc:	8fb50028 	lw	s5,40(sp)
9d00b9c0:	ae02000c 	sw	v0,12(s0)
9d00b9c4:	ae700004 	sw	s0,4(s3)
9d00b9c8:	8e02000c 	lw	v0,12(s0)
9d00b9cc:	8fb40024 	lw	s4,36(sp)
9d00b9d0:	8fb30020 	lw	s3,32(sp)
9d00b9d4:	ac500008 	sw	s0,8(v0)
9d00b9d8:	8fb2001c 	lw	s2,28(sp)
9d00b9dc:	8fb10018 	lw	s1,24(sp)
9d00b9e0:	8fb00014 	lw	s0,20(sp)
9d00b9e4:	03e00008 	jr	ra
9d00b9e8:	27bd0030 	addiu	sp,sp,48
9d00b9ec:	02821024 	and	v0,s4,v0
9d00b9f0:	02028023 	subu	s0,s0,v0
9d00b9f4:	8e020004 	lw	v0,4(s0)
9d00b9f8:	02821024 	and	v0,s4,v0
9d00b9fc:	1000ffba 	b	9d00b8e8 <free+0x78>
9d00ba00:	02429021 	addu	s2,s2,v0
9d00ba04:	03e00008 	jr	ra
9d00ba08:	00000000 	nop

Disassembly of section .text.__pop_int:

9d00ba0c <__pop_int>:
9d00ba0c:	24020088 	li	v0,136
9d00ba10:	10a2003f 	beq	a1,v0,9d00bb10 <__pop_int+0x104>
9d00ba14:	28a20089 	slti	v0,a1,137
9d00ba18:	1040001b 	beqz	v0,9d00ba88 <__pop_int+0x7c>
9d00ba1c:	240200a0 	li	v0,160
9d00ba20:	24020081 	li	v0,129
9d00ba24:	10a20053 	beq	a1,v0,9d00bb74 <__pop_int+0x168>
9d00ba28:	28a20082 	slti	v0,a1,130
9d00ba2c:	10400006 	beqz	v0,9d00ba48 <__pop_int+0x3c>
9d00ba30:	24020082 	li	v0,130
9d00ba34:	24020080 	li	v0,128
9d00ba38:	50a2004f 	beql	a1,v0,9d00bb78 <__pop_int+0x16c>
9d00ba3c:	8ce20000 	lw	v0,0(a3)
9d00ba40:	03e00008 	jr	ra
9d00ba44:	00001025 	move	v0,zero
9d00ba48:	50a2003a 	beql	a1,v0,9d00bb34 <__pop_int+0x128>
9d00ba4c:	8ce20000 	lw	v0,0(a3)
9d00ba50:	24020084 	li	v0,132
9d00ba54:	14a2fffa 	bne	a1,v0,9d00ba40 <__pop_int+0x34>
9d00ba58:	00000000 	nop
9d00ba5c:	8ce20000 	lw	v0,0(a3)
9d00ba60:	24430004 	addiu	v1,v0,4
9d00ba64:	8c420000 	lw	v0,0(v0)
9d00ba68:	10c00026 	beqz	a2,9d00bb04 <__pop_int+0xf8>
9d00ba6c:	ace30000 	sw	v1,0(a3)
9d00ba70:	7c021620 	seh	v0,v0
9d00ba74:	ac820000 	sw	v0,0(a0)
9d00ba78:	000217c3 	sra	v0,v0,0x1f
9d00ba7c:	ac820004 	sw	v0,4(a0)
9d00ba80:	03e00008 	jr	ra
9d00ba84:	24020001 	li	v0,1
9d00ba88:	50a20036 	beql	a1,v0,9d00bb64 <__pop_int+0x158>
9d00ba8c:	8ce20000 	lw	v0,0(a3)
9d00ba90:	28a200a1 	slti	v0,a1,161
9d00ba94:	10400011 	beqz	v0,9d00badc <__pop_int+0xd0>
9d00ba98:	240200c0 	li	v0,192
9d00ba9c:	24020090 	li	v0,144
9d00baa0:	14a2ffe7 	bne	a1,v0,9d00ba40 <__pop_int+0x34>
9d00baa4:	00000000 	nop
9d00baa8:	8ce20000 	lw	v0,0(a3)
9d00baac:	24420007 	addiu	v0,v0,7
9d00bab0:	7c021004 	ins	v0,zero,0x0,0x3
9d00bab4:	8c480000 	lw	t0,0(v0)
9d00bab8:	8c490004 	lw	t1,4(v0)
9d00babc:	24420008 	addiu	v0,v0,8
9d00bac0:	ace20000 	sw	v0,0(a3)
9d00bac4:	ac880000 	sw	t0,0(a0)
9d00bac8:	ac890004 	sw	t1,4(a0)
9d00bacc:	10c00001 	beqz	a2,9d00bad4 <__pop_int+0xc8>
9d00bad0:	24020001 	li	v0,1
9d00bad4:	03e00008 	jr	ra
9d00bad8:	00000000 	nop
9d00badc:	50a20005 	beql	a1,v0,9d00baf4 <__pop_int+0xe8>
9d00bae0:	8ce20000 	lw	v0,0(a3)
9d00bae4:	240200f0 	li	v0,240
9d00bae8:	14a2ffd5 	bne	a1,v0,9d00ba40 <__pop_int+0x34>
9d00baec:	00000000 	nop
9d00baf0:	8ce20000 	lw	v0,0(a3)
9d00baf4:	24430004 	addiu	v1,v0,4
9d00baf8:	ace30000 	sw	v1,0(a3)
9d00bafc:	10000002 	b	9d00bb08 <__pop_int+0xfc>
9d00bb00:	8c420000 	lw	v0,0(v0)
9d00bb04:	3042ffff 	andi	v0,v0,0xffff
9d00bb08:	10000020 	b	9d00bb8c <__pop_int+0x180>
9d00bb0c:	ac820000 	sw	v0,0(a0)
9d00bb10:	8ce20000 	lw	v0,0(a3)
9d00bb14:	24430004 	addiu	v1,v0,4
9d00bb18:	8c420000 	lw	v0,0(v0)
9d00bb1c:	10c00003 	beqz	a2,9d00bb2c <__pop_int+0x120>
9d00bb20:	ace30000 	sw	v1,0(a3)
9d00bb24:	1000ffd3 	b	9d00ba74 <__pop_int+0x68>
9d00bb28:	7c021420 	seb	v0,v0
9d00bb2c:	1000fff6 	b	9d00bb08 <__pop_int+0xfc>
9d00bb30:	304200ff 	andi	v0,v0,0xff
9d00bb34:	24420007 	addiu	v0,v0,7
9d00bb38:	7c021004 	ins	v0,zero,0x0,0x3
9d00bb3c:	8c480000 	lw	t0,0(v0)
9d00bb40:	8c490004 	lw	t1,4(v0)
9d00bb44:	24420008 	addiu	v0,v0,8
9d00bb48:	ace20000 	sw	v0,0(a3)
9d00bb4c:	ac880000 	sw	t0,0(a0)
9d00bb50:	ac890004 	sw	t1,4(a0)
9d00bb54:	10c0ffdf 	beqz	a2,9d00bad4 <__pop_int+0xc8>
9d00bb58:	24020001 	li	v0,1
9d00bb5c:	03e00008 	jr	ra
9d00bb60:	00000000 	nop
9d00bb64:	24430004 	addiu	v1,v0,4
9d00bb68:	ace30000 	sw	v1,0(a3)
9d00bb6c:	1000ffc1 	b	9d00ba74 <__pop_int+0x68>
9d00bb70:	8c420000 	lw	v0,0(v0)
9d00bb74:	8ce20000 	lw	v0,0(a3)
9d00bb78:	24430004 	addiu	v1,v0,4
9d00bb7c:	ace30000 	sw	v1,0(a3)
9d00bb80:	8c420000 	lw	v0,0(v0)
9d00bb84:	14c0ffbc 	bnez	a2,9d00ba78 <__pop_int+0x6c>
9d00bb88:	ac820000 	sw	v0,0(a0)
9d00bb8c:	1000ffbc 	b	9d00ba80 <__pop_int+0x74>
9d00bb90:	ac800004 	sw	zero,4(a0)

Disassembly of section .text:

9d00bb94 <i2c_master_setup>:
// Connect these through resistors to Vcc (3.3 V). 2.4k resistors recommended, 
// but something close will do.
// Connect SDA1 to the SDA pin on the slave and SCL1 to the SCL pin on a slave

void i2c_master_setup(void) {
  I2C1BRG = 90; //390 for 100kHz                    // I2CBRG = [1/(2*Fsck) - PGD]*Pblck - 2 
9d00bb94:	3c02bf80 	lui	v0,0xbf80
9d00bb98:	2403005a 	li	v1,90
9d00bb9c:	ac435340 	sw	v1,21312(v0)
                                    // Fsck is the freq (400 kHz here), PGD = 104 ns
  I2C1CONbits.ON = 1;               // turn on the I2C1 module
9d00bba0:	3c02bf80 	lui	v0,0xbf80
9d00bba4:	94435300 	lhu	v1,21248(v0)
9d00bba8:	24040001 	li	a0,1
9d00bbac:	7c837bc4 	ins	v1,a0,0xf,0x1
9d00bbb0:	a4435300 	sh	v1,21248(v0)
}
9d00bbb4:	03e00008 	jr	ra
9d00bbb8:	00000000 	nop

9d00bbbc <i2c_master_start>:

// Start a transmission on the I2C bus
void i2c_master_start(void) {
    I2C1CONbits.SEN = 1;            // send the start bit
9d00bbbc:	3c02bf80 	lui	v0,0xbf80
9d00bbc0:	94435300 	lhu	v1,21248(v0)
9d00bbc4:	24040001 	li	a0,1
9d00bbc8:	7c830004 	ins	v1,a0,0x0,0x1
9d00bbcc:	a4435300 	sh	v1,21248(v0)
    while(I2C1CONbits.SEN) { ; }    // wait for the start bit to be sent
9d00bbd0:	00401825 	move	v1,v0
9d00bbd4:	8c625300 	lw	v0,21248(v1)
9d00bbd8:	30420001 	andi	v0,v0,0x1
9d00bbdc:	1440fffd 	bnez	v0,9d00bbd4 <i2c_master_start+0x18>
9d00bbe0:	00000000 	nop
}
9d00bbe4:	03e00008 	jr	ra
9d00bbe8:	00000000 	nop

9d00bbec <i2c_master_restart>:

void i2c_master_restart(void) {     
    I2C1CONbits.RSEN = 1;           // send a restart 
9d00bbec:	3c02bf80 	lui	v0,0xbf80
9d00bbf0:	94435300 	lhu	v1,21248(v0)
9d00bbf4:	24040001 	li	a0,1
9d00bbf8:	7c830844 	ins	v1,a0,0x1,0x1
9d00bbfc:	a4435300 	sh	v1,21248(v0)
    while(I2C1CONbits.RSEN) { ; }   // wait for the restart to clear
9d00bc00:	00401825 	move	v1,v0
9d00bc04:	8c625300 	lw	v0,21248(v1)
9d00bc08:	7c420040 	ext	v0,v0,0x1,0x1
9d00bc0c:	1440fffd 	bnez	v0,9d00bc04 <i2c_master_restart+0x18>
9d00bc10:	00000000 	nop
}
9d00bc14:	03e00008 	jr	ra
9d00bc18:	00000000 	nop

9d00bc1c <i2c_master_send>:

void i2c_master_send(unsigned char byte) { // send a byte to slave
  I2C1TRN = byte;                   // if an address, bit 0 = 0 for write, 1 for read
9d00bc1c:	3c02bf80 	lui	v0,0xbf80
9d00bc20:	ac445350 	sw	a0,21328(v0)
  while(I2C1STATbits.TRSTAT) { ; }  // wait for the transmission to finish
9d00bc24:	3c03bf80 	lui	v1,0xbf80
9d00bc28:	8c625310 	lw	v0,21264(v1)
9d00bc2c:	7c420380 	ext	v0,v0,0xe,0x1
9d00bc30:	1440fffd 	bnez	v0,9d00bc28 <i2c_master_send+0xc>
9d00bc34:	3c02bf80 	lui	v0,0xbf80
  if(I2C1STATbits.ACKSTAT) {        // if this is high, slave has not acknowledged
9d00bc38:	8c425310 	lw	v0,21264(v0)
9d00bc3c:	7c4203c0 	ext	v0,v0,0xf,0x1
9d00bc40:	14400003 	bnez	v0,9d00bc50 <i2c_master_send+0x34>
9d00bc44:	3c049d00 	lui	a0,0x9d00
9d00bc48:	03e00008 	jr	ra
9d00bc4c:	00000000 	nop
void i2c_master_send(unsigned char byte) { // send a byte to slave
9d00bc50:	27bdffe8 	addiu	sp,sp,-24
9d00bc54:	afbf0014 	sw	ra,20(sp)
    NU32_WriteUART3("I2C2 Master: failed to receive ACK\r\n");
9d00bc58:	0f402e0d 	jal	9d00b834 <NU32_WriteUART3>
9d00bc5c:	24841e48 	addiu	a0,a0,7752
  }
}
9d00bc60:	8fbf0014 	lw	ra,20(sp)
9d00bc64:	03e00008 	jr	ra
9d00bc68:	27bd0018 	addiu	sp,sp,24

9d00bc6c <i2c_master_recv>:

unsigned char i2c_master_recv(void) { // receive a byte from the slave
    I2C1CONbits.RCEN = 1;             // start receiving data
9d00bc6c:	3c02bf80 	lui	v0,0xbf80
9d00bc70:	94435300 	lhu	v1,21248(v0)
9d00bc74:	24040001 	li	a0,1
9d00bc78:	7c8318c4 	ins	v1,a0,0x3,0x1
9d00bc7c:	a4435300 	sh	v1,21248(v0)
    while(!I2C1STATbits.RBF) { ; }    // wait to receive the data
9d00bc80:	3c03bf80 	lui	v1,0xbf80
9d00bc84:	8c625310 	lw	v0,21264(v1)
9d00bc88:	7c420040 	ext	v0,v0,0x1,0x1
9d00bc8c:	1040fffd 	beqz	v0,9d00bc84 <i2c_master_recv+0x18>
9d00bc90:	3c02bf80 	lui	v0,0xbf80
    return I2C1RCV;                   // read and return the data
9d00bc94:	8c425360 	lw	v0,21344(v0)
}
9d00bc98:	03e00008 	jr	ra
9d00bc9c:	304200ff 	andi	v0,v0,0xff

9d00bca0 <i2c_master_ack>:

void i2c_master_ack(int val) {        // sends ACK = 0 (slave should send another byte)
                                      // or NACK = 1 (no more bytes requested from slave)
    I2C1CONbits.ACKDT = val;          // store ACK/NACK in ACKDT
9d00bca0:	3c02bf80 	lui	v0,0xbf80
9d00bca4:	94435300 	lhu	v1,21248(v0)
9d00bca8:	7c832944 	ins	v1,a0,0x5,0x1
9d00bcac:	a4435300 	sh	v1,21248(v0)
    I2C1CONbits.ACKEN = 1;            // send ACKDT
9d00bcb0:	94435300 	lhu	v1,21248(v0)
9d00bcb4:	24040001 	li	a0,1
9d00bcb8:	7c832104 	ins	v1,a0,0x4,0x1
9d00bcbc:	a4435300 	sh	v1,21248(v0)
    while(I2C1CONbits.ACKEN) { ; }    // wait for ACK/NACK to be sent
9d00bcc0:	00401825 	move	v1,v0
9d00bcc4:	8c625300 	lw	v0,21248(v1)
9d00bcc8:	7c420100 	ext	v0,v0,0x4,0x1
9d00bccc:	1440fffd 	bnez	v0,9d00bcc4 <i2c_master_ack+0x24>
9d00bcd0:	00000000 	nop
}
9d00bcd4:	03e00008 	jr	ra
9d00bcd8:	00000000 	nop

9d00bcdc <i2c_master_stop>:

void i2c_master_stop(void) {          // send a STOP:
  I2C1CONbits.PEN = 1;                // comm is complete and master relinquishes bus
9d00bcdc:	3c02bf80 	lui	v0,0xbf80
9d00bce0:	94435300 	lhu	v1,21248(v0)
9d00bce4:	24040001 	li	a0,1
9d00bce8:	7c831084 	ins	v1,a0,0x2,0x1
9d00bcec:	a4435300 	sh	v1,21248(v0)
  while(I2C1CONbits.PEN) { ; }        // wait for STOP to complete
9d00bcf0:	00401825 	move	v1,v0
9d00bcf4:	8c625300 	lw	v0,21248(v1)
9d00bcf8:	7c420080 	ext	v0,v0,0x2,0x1
9d00bcfc:	1440fffd 	bnez	v0,9d00bcf4 <i2c_master_stop+0x18>
9d00bd00:	00000000 	nop
}
9d00bd04:	03e00008 	jr	ra
9d00bd08:	00000000 	nop

Disassembly of section .text.__push_int:

9d00bd0c <__push_int>:
9d00bd0c:	24020088 	li	v0,136
9d00bd10:	50a2003c 	beql	a1,v0,9d00be04 <__push_int+0xf8>
9d00bd14:	8ce20000 	lw	v0,0(a3)
9d00bd18:	28a20089 	slti	v0,a1,137
9d00bd1c:	1040001a 	beqz	v0,9d00bd88 <__push_int+0x7c>
9d00bd20:	240200a0 	li	v0,160
9d00bd24:	24020081 	li	v0,129
9d00bd28:	50a2003f 	beql	a1,v0,9d00be28 <__push_int+0x11c>
9d00bd2c:	8ce20000 	lw	v0,0(a3)
9d00bd30:	28a20082 	slti	v0,a1,130
9d00bd34:	10400006 	beqz	v0,9d00bd50 <__push_int+0x44>
9d00bd38:	24020082 	li	v0,130
9d00bd3c:	24020080 	li	v0,128
9d00bd40:	50a20046 	beql	a1,v0,9d00be5c <__push_int+0x150>
9d00bd44:	8ce20000 	lw	v0,0(a3)
9d00bd48:	03e00008 	jr	ra
9d00bd4c:	00001025 	move	v0,zero
9d00bd50:	10a20015 	beq	a1,v0,9d00bda8 <__push_int+0x9c>
9d00bd54:	24020084 	li	v0,132
9d00bd58:	14a2fffb 	bne	a1,v0,9d00bd48 <__push_int+0x3c>
9d00bd5c:	00000000 	nop
9d00bd60:	8ce20000 	lw	v0,0(a3)
9d00bd64:	8c830000 	lw	v1,0(a0)
9d00bd68:	24440004 	addiu	a0,v0,4
9d00bd6c:	ace40000 	sw	a0,0(a3)
9d00bd70:	8c420000 	lw	v0,0(v0)
9d00bd74:	a4430000 	sh	v1,0(v0)
9d00bd78:	10c00001 	beqz	a2,9d00bd80 <__push_int+0x74>
9d00bd7c:	24020001 	li	v0,1
9d00bd80:	03e00008 	jr	ra
9d00bd84:	00000000 	nop
9d00bd88:	50a20018 	beql	a1,v0,9d00bdec <__push_int+0xe0>
9d00bd8c:	8ce20000 	lw	v0,0(a3)
9d00bd90:	28a200a1 	slti	v0,a1,161
9d00bd94:	1040000f 	beqz	v0,9d00bdd4 <__push_int+0xc8>
9d00bd98:	240200c0 	li	v0,192
9d00bd9c:	24020090 	li	v0,144
9d00bda0:	14a2ffe9 	bne	a1,v0,9d00bd48 <__push_int+0x3c>
9d00bda4:	00000000 	nop
9d00bda8:	8ce20000 	lw	v0,0(a3)
9d00bdac:	10c00027 	beqz	a2,9d00be4c <__push_int+0x140>
9d00bdb0:	24430004 	addiu	v1,v0,4
9d00bdb4:	ace30000 	sw	v1,0(a3)
9d00bdb8:	8c850004 	lw	a1,4(a0)
9d00bdbc:	8c840000 	lw	a0,0(a0)
9d00bdc0:	8c420000 	lw	v0,0(v0)
9d00bdc4:	ac440000 	sw	a0,0(v0)
9d00bdc8:	ac450004 	sw	a1,4(v0)
9d00bdcc:	03e00008 	jr	ra
9d00bdd0:	24020001 	li	v0,1
9d00bdd4:	50a20005 	beql	a1,v0,9d00bdec <__push_int+0xe0>
9d00bdd8:	8ce20000 	lw	v0,0(a3)
9d00bddc:	240200f0 	li	v0,240
9d00bde0:	14a2ffd9 	bne	a1,v0,9d00bd48 <__push_int+0x3c>
9d00bde4:	00000000 	nop
9d00bde8:	8ce20000 	lw	v0,0(a3)
9d00bdec:	8c830000 	lw	v1,0(a0)
9d00bdf0:	24440004 	addiu	a0,v0,4
9d00bdf4:	ace40000 	sw	a0,0(a3)
9d00bdf8:	8c420000 	lw	v0,0(v0)
9d00bdfc:	1000fff3 	b	9d00bdcc <__push_int+0xc0>
9d00be00:	ac430000 	sw	v1,0(v0)
9d00be04:	8c830000 	lw	v1,0(a0)
9d00be08:	24440004 	addiu	a0,v0,4
9d00be0c:	ace40000 	sw	a0,0(a3)
9d00be10:	8c420000 	lw	v0,0(v0)
9d00be14:	a0430000 	sb	v1,0(v0)
9d00be18:	10c0ffd9 	beqz	a2,9d00bd80 <__push_int+0x74>
9d00be1c:	24020001 	li	v0,1
9d00be20:	03e00008 	jr	ra
9d00be24:	00000000 	nop
9d00be28:	8c830000 	lw	v1,0(a0)
9d00be2c:	24440004 	addiu	a0,v0,4
9d00be30:	ace40000 	sw	a0,0(a3)
9d00be34:	8c420000 	lw	v0,0(v0)
9d00be38:	ac430000 	sw	v1,0(v0)
9d00be3c:	10c0ffd0 	beqz	a2,9d00bd80 <__push_int+0x74>
9d00be40:	24020001 	li	v0,1
9d00be44:	03e00008 	jr	ra
9d00be48:	00000000 	nop
9d00be4c:	8c850004 	lw	a1,4(a0)
9d00be50:	8c840000 	lw	a0,0(a0)
9d00be54:	1000ffda 	b	9d00bdc0 <__push_int+0xb4>
9d00be58:	ace30000 	sw	v1,0(a3)
9d00be5c:	8c830000 	lw	v1,0(a0)
9d00be60:	24440004 	addiu	a0,v0,4
9d00be64:	ace40000 	sw	a0,0(a3)
9d00be68:	8c420000 	lw	v0,0(v0)
9d00be6c:	ac430000 	sw	v1,0(v0)
9d00be70:	24020001 	li	v0,1
9d00be74:	03e00008 	jr	ra
9d00be78:	00000000 	nop

Disassembly of section .text.libm:

9d00be7c <__mchp_ldexp>:
9d00be7c:	00054840 00094d42 252cffff 2d8107fe     @H..BM....,%...-
9d00be8c:	1020000f 00000000                       .. .....

9d00be94 <Clab1>:
9d00be94:	01264821 	addu	t1,t1,a2
9d00be98:	252cffff 	addiu	t4,t1,-1
9d00be9c:	2d8107fe 	sltiu	at,t4,2046
9d00bea0:	10200021 	beqz	at,9d00bf28 <Cspec2>
9d00bea4:	00000000 	nop
9d00bea8:	3c01800f 	lui	at,0x800f
9d00beac:	3421ffff 	ori	at,at,0xffff
9d00beb0:	00a12824 	and	a1,a1,at
9d00beb4:	00096500 	sll	t4,t1,0x14
9d00beb8:	00ac2825 	or	a1,a1,t4

9d00bebc <Cret>:
9d00bebc:	00041025 	or	v0,zero,a0
9d00bec0:	00051825 	or	v1,zero,a1

9d00bec4 <C999>:
9d00bec4:	03e00008 	jr	ra
9d00bec8:	00000000 	nop

9d00becc <Cspec>:
9d00becc:	00056300 	sll	t4,a1,0xc
9d00bed0:	01846025 	or	t4,t4,a0
9d00bed4:	1180fff9 	beqz	t4,9d00bebc <Cret>
9d00bed8:	00000000 	nop
9d00bedc:	11200004 	beqz	t1,9d00bef0 <i9>
9d00bee0:	00000000 	nop
9d00bee4:	3c05fff8 	lui	a1,0xfff8
9d00bee8:	1000fff4 	b	9d00bebc <Cret>
9d00beec:	24040000 	li	a0,0

9d00bef0 <i9>:
9d00bef0:	25290001 	addiu	t1,t1,1
9d00bef4:	3c018000 	lui	at,0x8000
9d00bef8:	00a15024 	and	t2,a1,at

9d00befc <b10>:
9d00befc:	2529ffff 	addiu	t1,t1,-1
9d00bf00:	0080602a 	slt	t4,a0,zero
9d00bf04:	00842021 	addu	a0,a0,a0
9d00bf08:	00a52821 	addu	a1,a1,a1
9d00bf0c:	00ac2821 	addu	a1,a1,t4
9d00bf10:	3c010010 	lui	at,0x10
9d00bf14:	00a1082b 	sltu	at,a1,at
9d00bf18:	1420fff8 	bnez	at,9d00befc <b10>
9d00bf1c:	00000000 	nop
9d00bf20:	1000ffdc 	b	9d00be94 <Clab1>
9d00bf24:	00aa2825 	or	a1,a1,t2

9d00bf28 <Cspec2>:
9d00bf28:	000542c0 	sll	t0,a1,0xb
9d00bf2c:	00046542 	srl	t4,a0,0x15
9d00bf30:	010c4025 	or	t0,t0,t4
9d00bf34:	00043ac0 	sll	a3,a0,0xb
9d00bf38:	3c018000 	lui	at,0x8000
9d00bf3c:	01014025 	or	t0,t0,at
9d00bf40:	3c018000 	lui	at,0x8000
9d00bf44:	19200005 	blez	t1,9d00bf5c <i11>
9d00bf48:	00a12824 	and	a1,a1,at
9d00bf4c:	3c017ff0 	lui	at,0x7ff0
9d00bf50:	00a12825 	or	a1,a1,at
9d00bf54:	1000ffd9 	b	9d00bebc <Cret>
9d00bf58:	24040000 	li	a0,0

9d00bf5c <i11>:
9d00bf5c:	240a0001 	li	t2,1
9d00bf60:	01495023 	subu	t2,t2,t1

9d00bf64 <L13>:
9d00bf64:	2d410020 	sltiu	at,t2,32
9d00bf68:	14200007 	bnez	at,9d00bf88 <L14>
9d00bf6c:	00000000 	nop
9d00bf70:	214affe0 	addi	t2,t2,-32
9d00bf74:	0007202b 	sltu	a0,zero,a3
9d00bf78:	1008000d 	beq	zero,t0,9d00bfb0 <L15>
9d00bf7c:	01043825 	or	a3,t0,a0
9d00bf80:	1000fff8 	b	9d00bf64 <L13>
9d00bf84:	34080000 	li	t0,0x0

9d00bf88 <L14>:
9d00bf88:	11400009 	beqz	t2,9d00bfb0 <L15>
9d00bf8c:	00000000 	nop
9d00bf90:	000a5822 	neg	t3,t2
9d00bf94:	01672004 	sllv	a0,a3,t3
9d00bf98:	01685804 	sllv	t3,t0,t3
9d00bf9c:	01473806 	srlv	a3,a3,t2
9d00bfa0:	01484006 	srlv	t0,t0,t2
9d00bfa4:	10800002 	beqz	a0,9d00bfb0 <L15>
9d00bfa8:	01673825 	or	a3,t3,a3
9d00bfac:	34e70002 	ori	a3,a3,0x2

9d00bfb0 <L15>:
9d00bfb0:	24e70400 	addiu	a3,a3,1024
9d00bfb4:	2cec0400 	sltiu	t4,a3,1024
9d00bfb8:	010c4021 	addu	t0,t0,t4
9d00bfbc:	000762c2 	srl	t4,a3,0xb
9d00bfc0:	318c0001 	andi	t4,t4,0x1
9d00bfc4:	00ec3823 	subu	a3,a3,t4
9d00bfc8:	000722c2 	srl	a0,a3,0xb
9d00bfcc:	00086540 	sll	t4,t0,0x15
9d00bfd0:	008c2025 	or	a0,a0,t4
9d00bfd4:	00086040 	sll	t4,t0,0x1
9d00bfd8:	000c6302 	srl	t4,t4,0xc
9d00bfdc:	1000ffb7 	b	9d00bebc <Cret>
9d00bfe0:	00ac2825 	or	a1,a1,t4
9d00bfe4:	00000000 	nop

Disassembly of section .text:

9d00bfe8 <writeINA219>:
  float ma = value / 3.0;
  return ma;
}

// write 2 bytes
void writeINA219(unsigned char reg, unsigned short value){
9d00bfe8:	27bdffe0 	addiu	sp,sp,-32
9d00bfec:	afbf001c 	sw	ra,28(sp)
9d00bff0:	afb10018 	sw	s1,24(sp)
9d00bff4:	afb00014 	sw	s0,20(sp)
9d00bff8:	00808825 	move	s1,a0
  i2c_master_start();
9d00bffc:	0f402eef 	jal	9d00bbbc <i2c_master_start>
9d00c000:	00a08025 	move	s0,a1
  i2c_master_send(INA219_ADDR<<1); // write to the INA219
9d00c004:	0f402f07 	jal	9d00bc1c <i2c_master_send>
9d00c008:	24040080 	li	a0,128
  i2c_master_send(reg); // the reg to write to
9d00c00c:	0f402f07 	jal	9d00bc1c <i2c_master_send>
9d00c010:	02202025 	move	a0,s1
  i2c_master_send(value>>8);
9d00c014:	0f402f07 	jal	9d00bc1c <i2c_master_send>
9d00c018:	00102202 	srl	a0,s0,0x8
  i2c_master_send(value&0xff);
9d00c01c:	0f402f07 	jal	9d00bc1c <i2c_master_send>
9d00c020:	320400ff 	andi	a0,s0,0xff
  i2c_master_stop();
9d00c024:	0f402f37 	jal	9d00bcdc <i2c_master_stop>
9d00c028:	00000000 	nop
}
9d00c02c:	8fbf001c 	lw	ra,28(sp)
9d00c030:	8fb10018 	lw	s1,24(sp)
9d00c034:	8fb00014 	lw	s0,20(sp)
9d00c038:	03e00008 	jr	ra
9d00c03c:	27bd0020 	addiu	sp,sp,32

9d00c040 <INA219_Startup>:
void INA219_Startup() {
9d00c040:	27bdffe8 	addiu	sp,sp,-24
9d00c044:	afbf0014 	sw	ra,20(sp)
  __builtin_disable_interrupts();
9d00c048:	41626000 	di	v0
9d00c04c:	000000c0 	ehb
  i2c_master_setup();
9d00c050:	0f402ee5 	jal	9d00bb94 <i2c_master_setup>
9d00c054:	00000000 	nop
  writeINA219(INA219_REG_CALIBRATION, ina219_calValue);
9d00c058:	24050400 	li	a1,1024
9d00c05c:	0f402ffa 	jal	9d00bfe8 <writeINA219>
9d00c060:	24040005 	li	a0,5
  writeINA219(INA219_REG_CONFIG, ina219_config);
9d00c064:	2405308f 	li	a1,12431
9d00c068:	0f402ffa 	jal	9d00bfe8 <writeINA219>
9d00c06c:	00002025 	move	a0,zero
  __builtin_enable_interrupts();
9d00c070:	41626020 	ei	v0
}
9d00c074:	8fbf0014 	lw	ra,20(sp)
9d00c078:	03e00008 	jr	ra
9d00c07c:	27bd0018 	addiu	sp,sp,24

9d00c080 <readINA219>:

// read 2 bytes
signed short readINA219(unsigned char reg){
9d00c080:	27bdffe0 	addiu	sp,sp,-32
9d00c084:	afbf001c 	sw	ra,28(sp)
9d00c088:	afb10018 	sw	s1,24(sp)
9d00c08c:	afb00014 	sw	s0,20(sp)
  i2c_master_start();
9d00c090:	0f402eef 	jal	9d00bbbc <i2c_master_start>
9d00c094:	00808025 	move	s0,a0
  i2c_master_send(INA219_ADDR<<1); // write to the INA219
9d00c098:	0f402f07 	jal	9d00bc1c <i2c_master_send>
9d00c09c:	24040080 	li	a0,128
  i2c_master_send(reg); // the reg to read from
9d00c0a0:	0f402f07 	jal	9d00bc1c <i2c_master_send>
9d00c0a4:	02002025 	move	a0,s0
  i2c_master_restart();
9d00c0a8:	0f402efb 	jal	9d00bbec <i2c_master_restart>
9d00c0ac:	00000000 	nop
  i2c_master_send((INA219_ADDR<<1)|0b1); // read from the INA219
9d00c0b0:	0f402f07 	jal	9d00bc1c <i2c_master_send>
9d00c0b4:	24040081 	li	a0,129
  unsigned char r1 = i2c_master_recv();
9d00c0b8:	0f402f1b 	jal	9d00bc6c <i2c_master_recv>
9d00c0bc:	00000000 	nop
9d00c0c0:	00408025 	move	s0,v0
  i2c_master_ack(0); // read again
9d00c0c4:	0f402f28 	jal	9d00bca0 <i2c_master_ack>
9d00c0c8:	00002025 	move	a0,zero
  unsigned char r2 = i2c_master_recv();
9d00c0cc:	0f402f1b 	jal	9d00bc6c <i2c_master_recv>
9d00c0d0:	00000000 	nop
9d00c0d4:	00408825 	move	s1,v0
  i2c_master_ack(1); // no more reads
9d00c0d8:	0f402f28 	jal	9d00bca0 <i2c_master_ack>
9d00c0dc:	24040001 	li	a0,1
  i2c_master_stop();
9d00c0e0:	0f402f37 	jal	9d00bcdc <i2c_master_stop>
9d00c0e4:	00000000 	nop

  signed short value = (r1<<8)|r2;
9d00c0e8:	00101200 	sll	v0,s0,0x8
9d00c0ec:	00511025 	or	v0,v0,s1
  return value;
}
9d00c0f0:	7c021620 	seh	v0,v0
9d00c0f4:	8fbf001c 	lw	ra,28(sp)
9d00c0f8:	8fb10018 	lw	s1,24(sp)
9d00c0fc:	8fb00014 	lw	s0,20(sp)
9d00c100:	03e00008 	jr	ra
9d00c104:	27bd0020 	addiu	sp,sp,32

9d00c108 <INA219_read_current>:
float INA219_read_current(){
9d00c108:	27bdffe8 	addiu	sp,sp,-24
9d00c10c:	afbf0014 	sw	ra,20(sp)
  signed short value = readINA219(INA219_REG_CURRENT);
9d00c110:	0f403020 	jal	9d00c080 <readINA219>
9d00c114:	24040004 	li	a0,4
  float ma = value / 3.0;
9d00c118:	0f403aee 	jal	9d00ebb8 <__floatsidf>
9d00c11c:	00402025 	move	a0,v0
9d00c120:	3c049d00 	lui	a0,0x9d00
9d00c124:	8c861e70 	lw	a2,7792(a0)
9d00c128:	8c871e74 	lw	a3,7796(a0)
9d00c12c:	00402025 	move	a0,v0
9d00c130:	0f401da9 	jal	9d0076a4 <__divdf3>
9d00c134:	00602825 	move	a1,v1
9d00c138:	00402025 	move	a0,v0
9d00c13c:	0f4034cd 	jal	9d00d334 <__truncdfsf2>
9d00c140:	00602825 	move	a1,v1
}
9d00c144:	8fbf0014 	lw	ra,20(sp)
9d00c148:	03e00008 	jr	ra
9d00c14c:	27bd0018 	addiu	sp,sp,24

Disassembly of section .text.__scan_s:

9d00c150 <__scan_s>:
9d00c150:	27bdffc8 	addiu	sp,sp,-56
9d00c154:	afb50028 	sw	s5,40(sp)
9d00c158:	afb30020 	sw	s3,32(sp)
9d00c15c:	afb2001c 	sw	s2,28(sp)
9d00c160:	afb10018 	sw	s1,24(sp)
9d00c164:	afb00014 	sw	s0,20(sp)
9d00c168:	afbf0034 	sw	ra,52(sp)
9d00c16c:	afb70030 	sw	s7,48(sp)
9d00c170:	afb6002c 	sw	s6,44(sp)
9d00c174:	afb40024 	sw	s4,36(sp)
9d00c178:	0080a825 	move	s5,a0
9d00c17c:	00a08025 	move	s0,a1
9d00c180:	00c09825 	move	s3,a2
9d00c184:	00e09025 	move	s2,a3
9d00c188:	10c00006 	beqz	a2,9d00c1a4 <__scan_s+0x54>
9d00c18c:	8fb10048 	lw	s1,72(sp)
9d00c190:	0f4036f6 	jal	9d00dbd8 <__skipws>
9d00c194:	00000000 	nop
9d00c198:	8e430000 	lw	v1,0(s2)
9d00c19c:	00621021 	addu	v0,v1,v0
9d00c1a0:	ae420000 	sw	v0,0(s2)
9d00c1a4:	8e140008 	lw	s4,8(s0)
9d00c1a8:	2416ffff 	li	s6,-1
9d00c1ac:	00008025 	move	s0,zero
9d00c1b0:	24170020 	li	s7,32
9d00c1b4:	52800005 	beqzl	s4,9d00c1cc <__scan_s+0x7c>
9d00c1b8:	8ea2003c 	lw	v0,60(s5)
9d00c1bc:	0214102a 	slt	v0,s0,s4
9d00c1c0:	1040001f 	beqz	v0,9d00c240 <__scan_s+0xf0>
9d00c1c4:	00000000 	nop
9d00c1c8:	8ea2003c 	lw	v0,60(s5)
9d00c1cc:	8ea3004c 	lw	v1,76(s5)
9d00c1d0:	0043182b 	sltu	v1,v0,v1
9d00c1d4:	10600014 	beqz	v1,9d00c228 <__scan_s+0xd8>
9d00c1d8:	24430001 	addiu	v1,v0,1
9d00c1dc:	aea3003c 	sw	v1,60(s5)
9d00c1e0:	90420000 	lbu	v0,0(v0)
9d00c1e4:	12600024 	beqz	s3,9d00c278 <__scan_s+0x128>
9d00c1e8:	00000000 	nop
9d00c1ec:	10570004 	beq	v0,s7,9d00c200 <__scan_s+0xb0>
9d00c1f0:	2443fff7 	addiu	v1,v0,-9
9d00c1f4:	2c630005 	sltiu	v1,v1,5
9d00c1f8:	1060001f 	beqz	v1,9d00c278 <__scan_s+0x128>
9d00c1fc:	00000000 	nop
9d00c200:	8ea2004c 	lw	v0,76(s5)
9d00c204:	10400004 	beqz	v0,9d00c218 <__scan_s+0xc8>
9d00c208:	00000000 	nop
9d00c20c:	8ea2003c 	lw	v0,60(s5)
9d00c210:	2442ffff 	addiu	v0,v0,-1
9d00c214:	aea2003c 	sw	v0,60(s5)
9d00c218:	16200022 	bnez	s1,9d00c2a4 <__scan_s+0x154>
9d00c21c:	02308821 	addu	s1,s1,s0
9d00c220:	1000000a 	b	9d00c24c <__scan_s+0xfc>
9d00c224:	0010102b 	sltu	v0,zero,s0
9d00c228:	0f403330 	jal	9d00ccc0 <__shgetc>
9d00c22c:	02a02025 	move	a0,s5
9d00c230:	1456ffec 	bne	v0,s6,9d00c1e4 <__scan_s+0x94>
9d00c234:	00000000 	nop
9d00c238:	12000005 	beqz	s0,9d00c250 <__scan_s+0x100>
9d00c23c:	8fbf0034 	lw	ra,52(sp)
9d00c240:	16200015 	bnez	s1,9d00c298 <__scan_s+0x148>
9d00c244:	00000000 	nop
9d00c248:	0010102b 	sltu	v0,zero,s0
9d00c24c:	8fbf0034 	lw	ra,52(sp)
9d00c250:	8fb70030 	lw	s7,48(sp)
9d00c254:	8fb6002c 	lw	s6,44(sp)
9d00c258:	8fb50028 	lw	s5,40(sp)
9d00c25c:	8fb40024 	lw	s4,36(sp)
9d00c260:	8fb30020 	lw	s3,32(sp)
9d00c264:	8fb2001c 	lw	s2,28(sp)
9d00c268:	8fb10018 	lw	s1,24(sp)
9d00c26c:	8fb00014 	lw	s0,20(sp)
9d00c270:	03e00008 	jr	ra
9d00c274:	27bd0038 	addiu	sp,sp,56
9d00c278:	12200002 	beqz	s1,9d00c284 <__scan_s+0x134>
9d00c27c:	02301821 	addu	v1,s1,s0
9d00c280:	a0620000 	sb	v0,0(v1)
9d00c284:	8e420000 	lw	v0,0(s2)
9d00c288:	26100001 	addiu	s0,s0,1
9d00c28c:	24420001 	addiu	v0,v0,1
9d00c290:	1000ffc8 	b	9d00c1b4 <__scan_s+0x64>
9d00c294:	ae420000 	sw	v0,0(s2)
9d00c298:	1260ffec 	beqz	s3,9d00c24c <__scan_s+0xfc>
9d00c29c:	0010102b 	sltu	v0,zero,s0
9d00c2a0:	02308821 	addu	s1,s1,s0
9d00c2a4:	1000ffe8 	b	9d00c248 <__scan_s+0xf8>
9d00c2a8:	a2200000 	sb	zero,0(s1)

Disassembly of section .text.__fmt_d:

9d00c2ac <__fmt_d>:
9d00c2ac:	27bdffc0 	addiu	sp,sp,-64
9d00c2b0:	afb1002c 	sw	s1,44(sp)
9d00c2b4:	00808825 	move	s1,a0
9d00c2b8:	00c02025 	move	a0,a2
9d00c2bc:	8c870004 	lw	a3,4(a0)
9d00c2c0:	8ca20000 	lw	v0,0(a1)
9d00c2c4:	afb20030 	sw	s2,48(sp)
9d00c2c8:	000797c2 	srl	s2,a3,0x1f
9d00c2cc:	afb40038 	sw	s4,56(sp)
9d00c2d0:	afb30034 	sw	s3,52(sp)
9d00c2d4:	afb00028 	sw	s0,40(sp)
9d00c2d8:	afbf003c 	sw	ra,60(sp)
9d00c2dc:	00a08025 	move	s0,a1
9d00c2e0:	8ca30004 	lw	v1,4(a1)
9d00c2e4:	8cb30008 	lw	s3,8(a1)
9d00c2e8:	afa20020 	sw	v0,32(sp)
9d00c2ec:	8cb4000c 	lw	s4,12(a1)
9d00c2f0:	12400040 	beqz	s2,9d00c3f4 <__fmt_d+0x148>
9d00c2f4:	8cc60000 	lw	a2,0(a2)
9d00c2f8:	00063023 	negu	a2,a2
9d00c2fc:	0006202b 	sltu	a0,zero,a2
9d00c300:	00073823 	negu	a3,a3
9d00c304:	04600008 	bltz	v1,9d00c328 <__fmt_d+0x7c>
9d00c308:	00e43823 	subu	a3,a3,a0
9d00c30c:	7c020844 	ins	v0,zero,0x1,0x1
9d00c310:	16400005 	bnez	s2,9d00c328 <__fmt_d+0x7c>
9d00c314:	afa20020 	sw	v0,32(sp)
9d00c318:	8fa20020 	lw	v0,32(sp)
9d00c31c:	30430004 	andi	v1,v0,0x4
9d00c320:	1060002c 	beqz	v1,9d00c3d4 <__fmt_d+0x128>
9d00c324:	7c4200c0 	ext	v0,v0,0x3,0x1
9d00c328:	2662ffff 	addiu	v0,s3,-1
9d00c32c:	27a30020 	addiu	v1,sp,32
9d00c330:	afa30018 	sw	v1,24(sp)
9d00c334:	2403000a 	li	v1,10
9d00c338:	afa30014 	sw	v1,20(sp)
9d00c33c:	afa20010 	sw	v0,16(sp)
9d00c340:	0f4031ff 	jal	9d00c7fc <__cvt_u>
9d00c344:	02002025 	move	a0,s0
9d00c348:	16400006 	bnez	s2,9d00c364 <__fmt_d+0xb8>
9d00c34c:	2403002d 	li	v1,45
9d00c350:	8fa30020 	lw	v1,32(sp)
9d00c354:	30640004 	andi	a0,v1,0x4
9d00c358:	10800020 	beqz	a0,9d00c3dc <__fmt_d+0x130>
9d00c35c:	30630008 	andi	v1,v1,0x8
9d00c360:	2403002d 	li	v1,45
9d00c364:	2442ffff 	addiu	v0,v0,-1
9d00c368:	2404002b 	li	a0,43
9d00c36c:	0072200b 	movn	a0,v1,s2
9d00c370:	02821821 	addu	v1,s4,v0
9d00c374:	a0640000 	sb	a0,0(v1)
9d00c378:	8e060010 	lw	a2,16(s0)
9d00c37c:	8fa30020 	lw	v1,32(sp)
9d00c380:	02603825 	move	a3,s3
9d00c384:	24c6ffff 	addiu	a2,a2,-1
9d00c388:	afa30010 	sw	v1,16(sp)
9d00c38c:	00c23023 	subu	a2,a2,v0
9d00c390:	02822821 	addu	a1,s4,v0
9d00c394:	0f40348c 	jal	9d00d230 <__pad>
9d00c398:	02202025 	move	a0,s1
9d00c39c:	8e230004 	lw	v1,4(s1)
9d00c3a0:	30630100 	andi	v1,v1,0x100
9d00c3a4:	10600004 	beqz	v1,9d00c3b8 <__fmt_d+0x10c>
9d00c3a8:	8fbf003c 	lw	ra,60(sp)
9d00c3ac:	8e030004 	lw	v1,4(s0)
9d00c3b0:	0043202a 	slt	a0,v0,v1
9d00c3b4:	0064100b 	movn	v0,v1,a0
9d00c3b8:	8fb40038 	lw	s4,56(sp)
9d00c3bc:	8fb30034 	lw	s3,52(sp)
9d00c3c0:	8fb20030 	lw	s2,48(sp)
9d00c3c4:	8fb1002c 	lw	s1,44(sp)
9d00c3c8:	8fb00028 	lw	s0,40(sp)
9d00c3cc:	03e00008 	jr	ra
9d00c3d0:	27bd0040 	addiu	sp,sp,64
9d00c3d4:	1000ffd5 	b	9d00c32c <__fmt_d+0x80>
9d00c3d8:	02621023 	subu	v0,s3,v0
9d00c3dc:	5060ffe7 	beqzl	v1,9d00c37c <__fmt_d+0xd0>
9d00c3e0:	8e060010 	lw	a2,16(s0)
9d00c3e4:	2442ffff 	addiu	v0,v0,-1
9d00c3e8:	02821821 	addu	v1,s4,v0
9d00c3ec:	1000ffe1 	b	9d00c374 <__fmt_d+0xc8>
9d00c3f0:	24040020 	li	a0,32
9d00c3f4:	0463ffc6 	bgezl	v1,9d00c310 <__fmt_d+0x64>
9d00c3f8:	7c020844 	ins	v0,zero,0x1,0x1
9d00c3fc:	1000ffc7 	b	9d00c31c <__fmt_d+0x70>
9d00c400:	8fa20020 	lw	v0,32(sp)

Disassembly of section .text.__scan_o:

9d00c404 <__scan_o>:
9d00c404:	27bdffc0 	addiu	sp,sp,-64
9d00c408:	afb4002c 	sw	s4,44(sp)
9d00c40c:	00e0a025 	move	s4,a3
9d00c410:	afb60034 	sw	s6,52(sp)
9d00c414:	afb50030 	sw	s5,48(sp)
9d00c418:	afb30028 	sw	s3,40(sp)
9d00c41c:	afb20024 	sw	s2,36(sp)
9d00c420:	afb10020 	sw	s1,32(sp)
9d00c424:	afbf003c 	sw	ra,60(sp)
9d00c428:	afb70038 	sw	s7,56(sp)
9d00c42c:	afb0001c 	sw	s0,28(sp)
9d00c430:	00808825 	move	s1,a0
9d00c434:	00a0a825 	move	s5,a1
9d00c438:	8cd60008 	lw	s6,8(a2)
9d00c43c:	8cd30010 	lw	s3,16(a2)
9d00c440:	0f4036f6 	jal	9d00dbd8 <__skipws>
9d00c444:	8cd2000c 	lw	s2,12(a2)
9d00c448:	8e830000 	lw	v1,0(s4)
9d00c44c:	00621021 	addu	v0,v1,v0
9d00c450:	16c00002 	bnez	s6,9d00c45c <__scan_o+0x58>
9d00c454:	ae820000 	sw	v0,0(s4)
9d00c458:	2676ffff 	addiu	s6,s3,-1
9d00c45c:	00008025 	move	s0,zero
9d00c460:	2673ffff 	addiu	s3,s3,-1
9d00c464:	2417ffff 	li	s7,-1
9d00c468:	0216102a 	slt	v0,s0,s6
9d00c46c:	50400015 	beqzl	v0,9d00c4c4 <__scan_o+0xc0>
9d00c470:	02508021 	addu	s0,s2,s0
9d00c474:	0213102a 	slt	v0,s0,s3
9d00c478:	50400012 	beqzl	v0,9d00c4c4 <__scan_o+0xc0>
9d00c47c:	02508021 	addu	s0,s2,s0
9d00c480:	8e22003c 	lw	v0,60(s1)
9d00c484:	8e23004c 	lw	v1,76(s1)
9d00c488:	0043182b 	sltu	v1,v0,v1
9d00c48c:	1060001b 	beqz	v1,9d00c4fc <__scan_o+0xf8>
9d00c490:	24430001 	addiu	v1,v0,1
9d00c494:	ae23003c 	sw	v1,60(s1)
9d00c498:	90420000 	lbu	v0,0(v0)
9d00c49c:	2443ffd0 	addiu	v1,v0,-48
9d00c4a0:	2c630008 	sltiu	v1,v1,8
9d00c4a4:	14600026 	bnez	v1,9d00c540 <__scan_o+0x13c>
9d00c4a8:	02501821 	addu	v1,s2,s0
9d00c4ac:	8e22004c 	lw	v0,76(s1)
9d00c4b0:	10400004 	beqz	v0,9d00c4c4 <__scan_o+0xc0>
9d00c4b4:	02508021 	addu	s0,s2,s0
9d00c4b8:	8e22003c 	lw	v0,60(s1)
9d00c4bc:	2442ffff 	addiu	v0,v0,-1
9d00c4c0:	ae22003c 	sw	v0,60(s1)
9d00c4c4:	02402025 	move	a0,s2
9d00c4c8:	a2000000 	sb	zero,0(s0)
9d00c4cc:	24060008 	li	a2,8
9d00c4d0:	0f403ed2 	jal	9d00fb48 <strtoull>
9d00c4d4:	27a50010 	addiu	a1,sp,16
9d00c4d8:	aea20000 	sw	v0,0(s5)
9d00c4dc:	8fa20010 	lw	v0,16(sp)
9d00c4e0:	aea30004 	sw	v1,4(s5)
9d00c4e4:	2404fffe 	li	a0,-2
9d00c4e8:	00521026 	xor	v0,v0,s2
9d00c4ec:	24030001 	li	v1,1
9d00c4f0:	0082180a 	movz	v1,a0,v0
9d00c4f4:	10000007 	b	9d00c514 <__scan_o+0x110>
9d00c4f8:	00601025 	move	v0,v1
9d00c4fc:	0f403330 	jal	9d00ccc0 <__shgetc>
9d00c500:	02202025 	move	a0,s1
9d00c504:	1457ffe6 	bne	v0,s7,9d00c4a0 <__scan_o+0x9c>
9d00c508:	2443ffd0 	addiu	v1,v0,-48
9d00c50c:	1600ffed 	bnez	s0,9d00c4c4 <__scan_o+0xc0>
9d00c510:	02508021 	addu	s0,s2,s0
9d00c514:	8fbf003c 	lw	ra,60(sp)
9d00c518:	8fb70038 	lw	s7,56(sp)
9d00c51c:	8fb60034 	lw	s6,52(sp)
9d00c520:	8fb50030 	lw	s5,48(sp)
9d00c524:	8fb4002c 	lw	s4,44(sp)
9d00c528:	8fb30028 	lw	s3,40(sp)
9d00c52c:	8fb20024 	lw	s2,36(sp)
9d00c530:	8fb10020 	lw	s1,32(sp)
9d00c534:	8fb0001c 	lw	s0,28(sp)
9d00c538:	03e00008 	jr	ra
9d00c53c:	27bd0040 	addiu	sp,sp,64
9d00c540:	a0620000 	sb	v0,0(v1)
9d00c544:	8e820000 	lw	v0,0(s4)
9d00c548:	26100001 	addiu	s0,s0,1
9d00c54c:	24420001 	addiu	v0,v0,1
9d00c550:	1000ffc5 	b	9d00c468 <__scan_o+0x64>
9d00c554:	ae820000 	sw	v0,0(s4)

Disassembly of section .text._sbrk_init:

9d00c558 <_sbrk_init>:
9d00c558:	27bdffd8 	addiu	sp,sp,-40
9d00c55c:	afb40020 	sw	s4,32(sp)
9d00c560:	3c14a001 	lui	s4,0xa001
9d00c564:	8e823fb0 	lw	v0,16304(s4)
9d00c568:	afbf0024 	sw	ra,36(sp)
9d00c56c:	afb3001c 	sw	s3,28(sp)
9d00c570:	afb20018 	sw	s2,24(sp)
9d00c574:	afb10014 	sw	s1,20(sp)
9d00c578:	1440002e 	bnez	v0,9d00c634 <_sbrk_init+0xdc>
9d00c57c:	afb00010 	sw	s0,16(sp)
9d00c580:	3c12a001 	lui	s2,0xa001
9d00c584:	8e513fb8 	lw	s1,16312(s2)
9d00c588:	16200003 	bnez	s1,9d00c598 <_sbrk_init+0x40>
9d00c58c:	3c13a001 	lui	s3,0xa001
9d00c590:	3c11a001 	lui	s1,0xa001
9d00c594:	26313fc8 	addiu	s1,s1,16328
9d00c598:	8e703fb4 	lw	s0,16308(s3)
9d00c59c:	16000006 	bnez	s0,9d00c5b8 <_sbrk_init+0x60>
9d00c5a0:	00111f82 	srl	v1,s1,0x1e
9d00c5a4:	3c10a001 	lui	s0,0xa001
9d00c5a8:	3c020000 	lui	v0,0x0
9d00c5ac:	26103fc8 	addiu	s0,s0,16328
9d00c5b0:	24420000 	addiu	v0,v0,0
9d00c5b4:	02028021 	addu	s0,s0,v0
9d00c5b8:	24020002 	li	v0,2
9d00c5bc:	50620001 	beql	v1,v0,9d00c5c4 <_sbrk_init+0x6c>
9d00c5c0:	7e31e000 	ext	s1,s1,0x0,0x1d
9d00c5c4:	00101f82 	srl	v1,s0,0x1e
9d00c5c8:	24020002 	li	v0,2
9d00c5cc:	50620001 	beql	v1,v0,9d00c5d4 <_sbrk_init+0x7c>
9d00c5d0:	7e10e000 	ext	s0,s0,0x0,0x1d
9d00c5d4:	0f403f2a 	jal	9d00fca8 <_stub_sbd_memlayout>
9d00c5d8:	00000000 	nop
9d00c5dc:	8c430000 	lw	v1,0(v0)
9d00c5e0:	8c420004 	lw	v0,4(v0)
9d00c5e4:	0223202b 	sltu	a0,s1,v1
9d00c5e8:	14800004 	bnez	a0,9d00c5fc <_sbrk_init+0xa4>
9d00c5ec:	00621021 	addu	v0,v1,v0
9d00c5f0:	0222202b 	sltu	a0,s1,v0
9d00c5f4:	54800029 	bnezl	a0,9d00c69c <_sbrk_init+0x144>
9d00c5f8:	0211182b 	sltu	v1,s0,s1
9d00c5fc:	3c04a001 	lui	a0,0xa001
9d00c600:	24849d04 	addiu	a0,a0,-25340
9d00c604:	7c84e000 	ext	a0,a0,0x0,0x1d
9d00c608:	0064202b 	sltu	a0,v1,a0
9d00c60c:	14800009 	bnez	a0,9d00c634 <_sbrk_init+0xdc>
9d00c610:	0203202b 	sltu	a0,s0,v1
9d00c614:	14800005 	bnez	a0,9d00c62c <_sbrk_init+0xd4>
9d00c618:	0062202b 	sltu	a0,v1,v0
9d00c61c:	0202202b 	sltu	a0,s0,v0
9d00c620:	5480000c 	bnezl	a0,9d00c654 <_sbrk_init+0xfc>
9d00c624:	02001025 	move	v0,s0
9d00c628:	0062202b 	sltu	a0,v1,v0
9d00c62c:	1480000a 	bnez	a0,9d00c658 <_sbrk_init+0x100>
9d00c630:	3c04a001 	lui	a0,0xa001
9d00c634:	8fbf0024 	lw	ra,36(sp)
9d00c638:	8fb40020 	lw	s4,32(sp)
9d00c63c:	8fb3001c 	lw	s3,28(sp)
9d00c640:	8fb20018 	lw	s2,24(sp)
9d00c644:	8fb10014 	lw	s1,20(sp)
9d00c648:	8fb00010 	lw	s0,16(sp)
9d00c64c:	03e00008 	jr	ra
9d00c650:	27bd0028 	addiu	sp,sp,40
9d00c654:	3c04a001 	lui	a0,0xa001
9d00c658:	24849d04 	addiu	a0,a0,-25340
9d00c65c:	00042742 	srl	a0,a0,0x1d
9d00c660:	24050005 	li	a1,5
9d00c664:	14850009 	bne	a0,a1,9d00c68c <_sbrk_init+0x134>
9d00c668:	24050004 	li	a1,4
9d00c66c:	3c04a000 	lui	a0,0xa000
9d00c670:	00641825 	or	v1,v1,a0
9d00c674:	00441025 	or	v0,v0,a0
9d00c678:	ae433fb8 	sw	v1,16312(s2)
9d00c67c:	ae623fb4 	sw	v0,16308(s3)
9d00c680:	8e423fb8 	lw	v0,16312(s2)
9d00c684:	1000ffeb 	b	9d00c634 <_sbrk_init+0xdc>
9d00c688:	ae823fb0 	sw	v0,16304(s4)
9d00c68c:	5485fffc 	bnel	a0,a1,9d00c680 <_sbrk_init+0x128>
9d00c690:	ae423fb8 	sw	v0,16312(s2)
9d00c694:	1000fff6 	b	9d00c670 <_sbrk_init+0x118>
9d00c698:	3c048000 	lui	a0,0x8000
9d00c69c:	1460ffed 	bnez	v1,9d00c654 <_sbrk_init+0xfc>
9d00c6a0:	02201825 	move	v1,s1
9d00c6a4:	1000ffde 	b	9d00c620 <_sbrk_init+0xc8>
9d00c6a8:	0202202b 	sltu	a0,s0,v0

Disassembly of section .text.__read_int:

9d00c6ac <__read_int>:
9d00c6ac:	27bdffc8 	addiu	sp,sp,-56
9d00c6b0:	afb2001c 	sw	s2,28(sp)
9d00c6b4:	00c09025 	move	s2,a2
9d00c6b8:	afb50028 	sw	s5,40(sp)
9d00c6bc:	afb40024 	sw	s4,36(sp)
9d00c6c0:	afb30020 	sw	s3,32(sp)
9d00c6c4:	afb10018 	sw	s1,24(sp)
9d00c6c8:	afbf0034 	sw	ra,52(sp)
9d00c6cc:	afb70030 	sw	s7,48(sp)
9d00c6d0:	afb6002c 	sw	s6,44(sp)
9d00c6d4:	afb00014 	sw	s0,20(sp)
9d00c6d8:	00808825 	move	s1,a0
9d00c6dc:	8cb50008 	lw	s5,8(a1)
9d00c6e0:	8cb40010 	lw	s4,16(a1)
9d00c6e4:	0f4036f6 	jal	9d00dbd8 <__skipws>
9d00c6e8:	8cb3000c 	lw	s3,12(a1)
9d00c6ec:	8e430000 	lw	v1,0(s2)
9d00c6f0:	00621021 	addu	v0,v1,v0
9d00c6f4:	16a00002 	bnez	s5,9d00c700 <__read_int+0x54>
9d00c6f8:	ae420000 	sw	v0,0(s2)
9d00c6fc:	2695ffff 	addiu	s5,s4,-1
9d00c700:	00008025 	move	s0,zero
9d00c704:	2694ffff 	addiu	s4,s4,-1
9d00c708:	2416ffff 	li	s6,-1
9d00c70c:	2417fffd 	li	s7,-3
9d00c710:	0215102a 	slt	v0,s0,s5
9d00c714:	50400030 	beqzl	v0,9d00c7d8 <__read_int+0x12c>
9d00c718:	02708021 	addu	s0,s3,s0
9d00c71c:	0214102a 	slt	v0,s0,s4
9d00c720:	5040002d 	beqzl	v0,9d00c7d8 <__read_int+0x12c>
9d00c724:	02708021 	addu	s0,s3,s0
9d00c728:	8e22003c 	lw	v0,60(s1)
9d00c72c:	8e23004c 	lw	v1,76(s1)
9d00c730:	0043182b 	sltu	v1,v0,v1
9d00c734:	1060000e 	beqz	v1,9d00c770 <__read_int+0xc4>
9d00c738:	24430001 	addiu	v1,v0,1
9d00c73c:	ae23003c 	sw	v1,60(s1)
9d00c740:	90420000 	lbu	v0,0(v0)
9d00c744:	2443ffd5 	addiu	v1,v0,-43
9d00c748:	00771824 	and	v1,v1,s7
9d00c74c:	00701825 	or	v1,v1,s0
9d00c750:	14600018 	bnez	v1,9d00c7b4 <__read_int+0x108>
9d00c754:	2443ffd0 	addiu	v1,v0,-48
9d00c758:	a2620000 	sb	v0,0(s3)
9d00c75c:	8e420000 	lw	v0,0(s2)
9d00c760:	24100001 	li	s0,1
9d00c764:	24420001 	addiu	v0,v0,1
9d00c768:	1000ffe9 	b	9d00c710 <__read_int+0x64>
9d00c76c:	ae420000 	sw	v0,0(s2)
9d00c770:	0f403330 	jal	9d00ccc0 <__shgetc>
9d00c774:	02202025 	move	a0,s1
9d00c778:	1456fff3 	bne	v0,s6,9d00c748 <__read_int+0x9c>
9d00c77c:	2443ffd5 	addiu	v1,v0,-43
9d00c780:	16000015 	bnez	s0,9d00c7d8 <__read_int+0x12c>
9d00c784:	02708021 	addu	s0,s3,s0
9d00c788:	8fbf0034 	lw	ra,52(sp)
9d00c78c:	8fb70030 	lw	s7,48(sp)
9d00c790:	8fb6002c 	lw	s6,44(sp)
9d00c794:	8fb50028 	lw	s5,40(sp)
9d00c798:	8fb40024 	lw	s4,36(sp)
9d00c79c:	8fb30020 	lw	s3,32(sp)
9d00c7a0:	8fb2001c 	lw	s2,28(sp)
9d00c7a4:	8fb10018 	lw	s1,24(sp)
9d00c7a8:	8fb00014 	lw	s0,20(sp)
9d00c7ac:	03e00008 	jr	ra
9d00c7b0:	27bd0038 	addiu	sp,sp,56
9d00c7b4:	2c63000a 	sltiu	v1,v1,10
9d00c7b8:	1460000a 	bnez	v1,9d00c7e4 <__read_int+0x138>
9d00c7bc:	02702021 	addu	a0,s3,s0
9d00c7c0:	8e22004c 	lw	v0,76(s1)
9d00c7c4:	10400004 	beqz	v0,9d00c7d8 <__read_int+0x12c>
9d00c7c8:	02708021 	addu	s0,s3,s0
9d00c7cc:	8e22003c 	lw	v0,60(s1)
9d00c7d0:	2442ffff 	addiu	v0,v0,-1
9d00c7d4:	ae22003c 	sw	v0,60(s1)
9d00c7d8:	a2000000 	sb	zero,0(s0)
9d00c7dc:	1000ffea 	b	9d00c788 <__read_int+0xdc>
9d00c7e0:	00001025 	move	v0,zero
9d00c7e4:	a0820000 	sb	v0,0(a0)
9d00c7e8:	8e420000 	lw	v0,0(s2)
9d00c7ec:	26100001 	addiu	s0,s0,1
9d00c7f0:	24420001 	addiu	v0,v0,1
9d00c7f4:	1000ffc6 	b	9d00c710 <__read_int+0x64>
9d00c7f8:	ae420000 	sw	v0,0(s2)

Disassembly of section .text.__cvt_u:

9d00c7fc <__cvt_u>:
9d00c7fc:	27bdffc0 	addiu	sp,sp,-64
9d00c800:	8c820010 	lw	v0,16(a0)
9d00c804:	afb70034 	sw	s7,52(sp)
9d00c808:	8c880004 	lw	t0,4(a0)
9d00c80c:	8fb70058 	lw	s7,88(sp)
9d00c810:	2442ffff 	addiu	v0,v0,-1
9d00c814:	afbe0038 	sw	s8,56(sp)
9d00c818:	afb40028 	sw	s4,40(sp)
9d00c81c:	afb30024 	sw	s3,36(sp)
9d00c820:	afb20020 	sw	s2,32(sp)
9d00c824:	afb1001c 	sw	s1,28(sp)
9d00c828:	afb00018 	sw	s0,24(sp)
9d00c82c:	afbf003c 	sw	ra,60(sp)
9d00c830:	afb60030 	sw	s6,48(sp)
9d00c834:	afb5002c 	sw	s5,44(sp)
9d00c838:	00c08025 	move	s0,a2
9d00c83c:	00e08825 	move	s1,a3
9d00c840:	8fb30054 	lw	s3,84(sp)
9d00c844:	8c94000c 	lw	s4,12(a0)
9d00c848:	8efe0000 	lw	s8,0(s7)
9d00c84c:	05010002 	bgez	t0,9d00c858 <__cvt_u+0x5c>
9d00c850:	00409025 	move	s2,v0
9d00c854:	24080001 	li	t0,1
9d00c858:	02821021 	addu	v0,s4,v0
9d00c85c:	a0400000 	sb	zero,0(v0)
9d00c860:	0000a825 	move	s5,zero
9d00c864:	24090001 	li	t1,1
9d00c868:	33de0002 	andi	s8,s8,0x2
9d00c86c:	0013b7c3 	sra	s6,s3,0x1f
9d00c870:	1e400010 	bgtz	s2,9d00c8b4 <__cvt_u+0xb8>
9d00c874:	02111025 	or	v0,s0,s1
9d00c878:	5120002e 	beqzl	t1,9d00c934 <__cvt_u+0x138>
9d00c87c:	8ee20000 	lw	v0,0(s7)
9d00c880:	8fbf003c 	lw	ra,60(sp)
9d00c884:	02401025 	move	v0,s2
9d00c888:	8fbe0038 	lw	s8,56(sp)
9d00c88c:	8fb70034 	lw	s7,52(sp)
9d00c890:	8fb60030 	lw	s6,48(sp)
9d00c894:	8fb5002c 	lw	s5,44(sp)
9d00c898:	8fb40028 	lw	s4,40(sp)
9d00c89c:	8fb30024 	lw	s3,36(sp)
9d00c8a0:	8fb20020 	lw	s2,32(sp)
9d00c8a4:	8fb1001c 	lw	s1,28(sp)
9d00c8a8:	8fb00018 	lw	s0,24(sp)
9d00c8ac:	03e00008 	jr	ra
9d00c8b0:	27bd0040 	addiu	sp,sp,64
9d00c8b4:	1440000a 	bnez	v0,9d00c8e0 <__cvt_u+0xe4>
9d00c8b8:	02002025 	move	a0,s0
9d00c8bc:	01151023 	subu	v0,t0,s5
9d00c8c0:	1c400008 	bgtz	v0,9d00c8e4 <__cvt_u+0xe8>
9d00c8c4:	02202825 	move	a1,s1
9d00c8c8:	8fa20050 	lw	v0,80(sp)
9d00c8cc:	00551023 	subu	v0,v0,s5
9d00c8d0:	1840ffe9 	blez	v0,9d00c878 <__cvt_u+0x7c>
9d00c8d4:	00000000 	nop
9d00c8d8:	13c0ffe7 	beqz	s8,9d00c878 <__cvt_u+0x7c>
9d00c8dc:	00000000 	nop
9d00c8e0:	02202825 	move	a1,s1
9d00c8e4:	02603025 	move	a2,s3
9d00c8e8:	02c03825 	move	a3,s6
9d00c8ec:	afa80014 	sw	t0,20(sp)
9d00c8f0:	0f402418 	jal	9d009060 <__umoddi3>
9d00c8f4:	2652ffff 	addiu	s2,s2,-1
9d00c8f8:	afa20010 	sw	v0,16(sp)
9d00c8fc:	02921821 	addu	v1,s4,s2
9d00c900:	24420030 	addiu	v0,v0,48
9d00c904:	02002025 	move	a0,s0
9d00c908:	02202825 	move	a1,s1
9d00c90c:	a0620000 	sb	v0,0(v1)
9d00c910:	02603025 	move	a2,s3
9d00c914:	0f402516 	jal	9d009458 <__udivdi3>
9d00c918:	02c03825 	move	a3,s6
9d00c91c:	00408025 	move	s0,v0
9d00c920:	00608825 	move	s1,v1
9d00c924:	26b50001 	addiu	s5,s5,1
9d00c928:	8fa80014 	lw	t0,20(sp)
9d00c92c:	1000ffd0 	b	9d00c870 <__cvt_u+0x74>
9d00c930:	8fa90010 	lw	t1,16(sp)
9d00c934:	7c022104 	ins	v0,zero,0x4,0x1
9d00c938:	1000ffd1 	b	9d00c880 <__cvt_u+0x84>
9d00c93c:	aee20000 	sw	v0,0(s7)

Disassembly of section .text.dpcmp:

9d00c940 <__eqdf2>:
9d00c940:	2409fffe 00055040 00075840 01645825     ...$@P..@X..%Xd.
9d00c950:	01665825 014b5025 15400003 00000000     %Xf.%PK...@.....
9d00c960:	1000003c 24020000                       <......$

9d00c968 <i56>:
9d00c968:	10800002 	beqz	a0,9d00c974 <i57>
9d00c96c:	00054040 	sll	t0,a1,0x1
9d00c970:	25080001 	addiu	t0,t0,1

9d00c974 <i57>:
9d00c974:	3c01ffe0 	lui	at,0xffe0
9d00c978:	34210001 	ori	at,at,0x1
9d00c97c:	0101082b 	sltu	at,t0,at
9d00c980:	10200037 	beqz	at,9d00ca60 <Lnan>
9d00c984:	00000000 	nop
9d00c988:	10c00002 	beqz	a2,9d00c994 <i58>
9d00c98c:	00074040 	sll	t0,a3,0x1
9d00c990:	25080001 	addiu	t0,t0,1

9d00c994 <i58>:
9d00c994:	3c01ffe0 	lui	at,0xffe0
9d00c998:	34210001 	ori	at,at,0x1
9d00c99c:	0101082b 	sltu	at,t0,at
9d00c9a0:	1020002f 	beqz	at,9d00ca60 <Lnan>
9d00c9a4:	00000000 	nop
9d00c9a8:	04a10016 	bgez	a1,9d00ca04 <i59>
9d00c9ac:	00000000 	nop
9d00c9b0:	04e00003 	bltz	a3,9d00c9c0 <i60>
9d00c9b4:	00000000 	nop
9d00c9b8:	10000026 	b	9d00ca54 <L999>
9d00c9bc:	2402ffff 	li	v0,-1

9d00c9c0 <i60>:
9d00c9c0:	0086502b 	sltu	t2,a0,a2
9d00c9c4:	00862023 	subu	a0,a0,a2
9d00c9c8:	00aa582b 	sltu	t3,a1,t2
9d00c9cc:	00aa2823 	subu	a1,a1,t2
9d00c9d0:	00a7502b 	sltu	t2,a1,a3
9d00c9d4:	014b5025 	or	t2,t2,t3
9d00c9d8:	11400003 	beqz	t2,9d00c9e8 <i61>
9d00c9dc:	00a72823 	subu	a1,a1,a3
9d00c9e0:	1000001c 	b	9d00ca54 <L999>
9d00c9e4:	24020001 	li	v0,1

9d00c9e8 <i61>:
9d00c9e8:	00a45025 	or	t2,a1,a0
9d00c9ec:	11400003 	beqz	t2,9d00c9fc <i62>
9d00c9f0:	00000000 	nop
9d00c9f4:	10000017 	b	9d00ca54 <L999>
9d00c9f8:	2402ffff 	li	v0,-1

9d00c9fc <i62>:
9d00c9fc:	10000015 	b	9d00ca54 <L999>
9d00ca00:	24020000 	li	v0,0

9d00ca04 <i59>:
9d00ca04:	04e10003 	bgez	a3,9d00ca14 <i63>
9d00ca08:	00000000 	nop
9d00ca0c:	10000011 	b	9d00ca54 <L999>
9d00ca10:	24020001 	li	v0,1

9d00ca14 <i63>:
9d00ca14:	0086502b 	sltu	t2,a0,a2
9d00ca18:	00862023 	subu	a0,a0,a2
9d00ca1c:	00aa582b 	sltu	t3,a1,t2
9d00ca20:	00aa2823 	subu	a1,a1,t2
9d00ca24:	00a7502b 	sltu	t2,a1,a3
9d00ca28:	014b5025 	or	t2,t2,t3
9d00ca2c:	11400003 	beqz	t2,9d00ca3c <i64>
9d00ca30:	00a72823 	subu	a1,a1,a3
9d00ca34:	10000007 	b	9d00ca54 <L999>
9d00ca38:	2402ffff 	li	v0,-1

9d00ca3c <i64>:
9d00ca3c:	00a45025 	or	t2,a1,a0
9d00ca40:	11400003 	beqz	t2,9d00ca50 <i65>
9d00ca44:	00000000 	nop
9d00ca48:	10000002 	b	9d00ca54 <L999>
9d00ca4c:	24020001 	li	v0,1

9d00ca50 <i65>:
9d00ca50:	24020000 	li	v0,0

9d00ca54 <L999>:
9d00ca54:	03e00008 	jr	ra
9d00ca58:	00000000 	nop
9d00ca5c:	00000000 	nop

9d00ca60 <Lnan>:
9d00ca60:	1000fffc 	b	9d00ca54 <L999>
9d00ca64:	00091025 	or	v0,zero,t1
9d00ca68:	00000000 	nop

Disassembly of section .text.dfcmplt:

9d00ca6c <dpcmplt>:
9d00ca6c:	2409fffe 	li	t1,-2
9d00ca70:	00055040 	sll	t2,a1,0x1
9d00ca74:	00075840 	sll	t3,a3,0x1
9d00ca78:	01645825 	or	t3,t3,a0
9d00ca7c:	01665825 	or	t3,t3,a2
9d00ca80:	014b5025 	or	t2,t2,t3
9d00ca84:	15400003 	bnez	t2,9d00ca94 <dpcmplt+0x28>
9d00ca88:	00000000 	nop
9d00ca8c:	1000003c 	b	9d00cb80 <dpcmplt+0x114>
9d00ca90:	24020000 	li	v0,0
9d00ca94:	10800002 	beqz	a0,9d00caa0 <dpcmplt+0x34>
9d00ca98:	00054040 	sll	t0,a1,0x1
9d00ca9c:	25080001 	addiu	t0,t0,1
9d00caa0:	3c01ffe0 	lui	at,0xffe0
9d00caa4:	34210001 	ori	at,at,0x1
9d00caa8:	0101082b 	sltu	at,t0,at
9d00caac:	10200037 	beqz	at,9d00cb8c <dpcmplt+0x120>
9d00cab0:	00000000 	nop
9d00cab4:	10c00002 	beqz	a2,9d00cac0 <dpcmplt+0x54>
9d00cab8:	00074040 	sll	t0,a3,0x1
9d00cabc:	25080001 	addiu	t0,t0,1
9d00cac0:	3c01ffe0 	lui	at,0xffe0
9d00cac4:	34210001 	ori	at,at,0x1
9d00cac8:	0101082b 	sltu	at,t0,at
9d00cacc:	1020002f 	beqz	at,9d00cb8c <dpcmplt+0x120>
9d00cad0:	00000000 	nop
9d00cad4:	04a10016 	bgez	a1,9d00cb30 <dpcmplt+0xc4>
9d00cad8:	00000000 	nop
9d00cadc:	04e00003 	bltz	a3,9d00caec <dpcmplt+0x80>
9d00cae0:	00000000 	nop
9d00cae4:	10000026 	b	9d00cb80 <dpcmplt+0x114>
9d00cae8:	2402ffff 	li	v0,-1
9d00caec:	0086502b 	sltu	t2,a0,a2
9d00caf0:	00862023 	subu	a0,a0,a2
9d00caf4:	00aa582b 	sltu	t3,a1,t2
9d00caf8:	00aa2823 	subu	a1,a1,t2
9d00cafc:	00a7502b 	sltu	t2,a1,a3
9d00cb00:	014b5025 	or	t2,t2,t3
9d00cb04:	11400003 	beqz	t2,9d00cb14 <dpcmplt+0xa8>
9d00cb08:	00a72823 	subu	a1,a1,a3
9d00cb0c:	1000001c 	b	9d00cb80 <dpcmplt+0x114>
9d00cb10:	24020001 	li	v0,1
9d00cb14:	00a45025 	or	t2,a1,a0
9d00cb18:	11400003 	beqz	t2,9d00cb28 <dpcmplt+0xbc>
9d00cb1c:	00000000 	nop
9d00cb20:	10000017 	b	9d00cb80 <dpcmplt+0x114>
9d00cb24:	2402ffff 	li	v0,-1
9d00cb28:	10000015 	b	9d00cb80 <dpcmplt+0x114>
9d00cb2c:	24020000 	li	v0,0
9d00cb30:	04e10003 	bgez	a3,9d00cb40 <dpcmplt+0xd4>
9d00cb34:	00000000 	nop
9d00cb38:	10000011 	b	9d00cb80 <dpcmplt+0x114>
9d00cb3c:	24020001 	li	v0,1
9d00cb40:	0086502b 	sltu	t2,a0,a2
9d00cb44:	00862023 	subu	a0,a0,a2
9d00cb48:	00aa582b 	sltu	t3,a1,t2
9d00cb4c:	00aa2823 	subu	a1,a1,t2
9d00cb50:	00a7502b 	sltu	t2,a1,a3
9d00cb54:	014b5025 	or	t2,t2,t3
9d00cb58:	11400003 	beqz	t2,9d00cb68 <dpcmplt+0xfc>
9d00cb5c:	00a72823 	subu	a1,a1,a3
9d00cb60:	10000007 	b	9d00cb80 <dpcmplt+0x114>
9d00cb64:	2402ffff 	li	v0,-1
9d00cb68:	00a45025 	or	t2,a1,a0
9d00cb6c:	11400003 	beqz	t2,9d00cb7c <dpcmplt+0x110>
9d00cb70:	00000000 	nop
9d00cb74:	10000002 	b	9d00cb80 <dpcmplt+0x114>
9d00cb78:	24020001 	li	v0,1
9d00cb7c:	24020000 	li	v0,0
9d00cb80:	03e00008 	jr	ra
9d00cb84:	00000000 	nop
9d00cb88:	00000000 	nop
9d00cb8c:	1000fffc 	b	9d00cb80 <dpcmplt+0x114>
9d00cb90:	34020001 	li	v0,0x1
9d00cb94:	00000000 	nop

Disassembly of section .text._mon_putc:

9d00cb98 <_mon_putc>:
9d00cb98:	3c02a000 	lui	v0,0xa000
9d00cb9c:	8c430008 	lw	v1,8(v0)
9d00cba0:	14600013 	bnez	v1,9d00cbf0 <_mon_putc+0x58>
9d00cba4:	00803025 	move	a2,a0
9d00cba8:	3c020000 	lui	v0,0x0
9d00cbac:	27bdffe8 	addiu	sp,sp,-24
9d00cbb0:	24420000 	addiu	v0,v0,0
9d00cbb4:	10400006 	beqz	v0,9d00cbd0 <_mon_putc+0x38>
9d00cbb8:	afbf0014 	sw	ra,20(sp)
9d00cbbc:	0c000000 	jal	90000000 <_bmxdudba_address+0x8ffe0000>
9d00cbc0:	00000000 	nop
9d00cbc4:	8fbf0014 	lw	ra,20(sp)
9d00cbc8:	03e00008 	jr	ra
9d00cbcc:	27bd0018 	addiu	sp,sp,24
9d00cbd0:	3c020000 	lui	v0,0x0
9d00cbd4:	24420000 	addiu	v0,v0,0
9d00cbd8:	10400025 	beqz	v0,9d00cc70 <_mon_putc+0xd8>
9d00cbdc:	3c05bf80 	lui	a1,0xbf80
9d00cbe0:	0c000000 	jal	90000000 <_bmxdudba_address+0x8ffe0000>
9d00cbe4:	00000000 	nop
9d00cbe8:	1000fff7 	b	9d00cbc8 <_mon_putc+0x30>
9d00cbec:	8fbf0014 	lw	ra,20(sp)
9d00cbf0:	3c02bf80 	lui	v0,0xbf80
9d00cbf4:	24426010 	addiu	v0,v0,24592
9d00cbf8:	1040002f 	beqz	v0,9d00ccb8 <_mon_putc+0x120>
9d00cbfc:	00000000 	nop
9d00cc00:	24040001 	li	a0,1
9d00cc04:	14640012 	bne	v1,a0,9d00cc50 <_mon_putc+0xb8>
9d00cc08:	3c03bf80 	lui	v1,0xbf80
9d00cc0c:	3c03bf80 	lui	v1,0xbf80
9d00cc10:	3c04bf80 	lui	a0,0xbf80
9d00cc14:	3c05bf80 	lui	a1,0xbf80
9d00cc18:	24636020 	addiu	v1,v1,24608
9d00cc1c:	24846018 	addiu	a0,a0,24600
9d00cc20:	24a56008 	addiu	a1,a1,24584
9d00cc24:	34078000 	li	a3,0x8000
9d00cc28:	aca70000 	sw	a3,0(a1)
9d00cc2c:	24050400 	li	a1,1024
9d00cc30:	ac850000 	sw	a1,0(a0)
9d00cc34:	8c440000 	lw	a0,0(v0)
9d00cc38:	30840100 	andi	a0,a0,0x100
9d00cc3c:	1080fffd 	beqz	a0,9d00cc34 <_mon_putc+0x9c>
9d00cc40:	00000000 	nop
9d00cc44:	ac660000 	sw	a2,0(v1)
9d00cc48:	03e00008 	jr	ra
9d00cc4c:	00000000 	nop
9d00cc50:	3c04bf80 	lui	a0,0xbf80
9d00cc54:	3c05bf80 	lui	a1,0xbf80
9d00cc58:	3c02bf80 	lui	v0,0xbf80
9d00cc5c:	24636820 	addiu	v1,v1,26656
9d00cc60:	24846818 	addiu	a0,a0,26648
9d00cc64:	24a56808 	addiu	a1,a1,26632
9d00cc68:	1000ffee 	b	9d00cc24 <_mon_putc+0x8c>
9d00cc6c:	24426810 	addiu	v0,v0,26640
9d00cc70:	24a56808 	addiu	a1,a1,26632
9d00cc74:	3c04bf80 	lui	a0,0xbf80
9d00cc78:	34078000 	li	a3,0x8000
9d00cc7c:	aca70000 	sw	a3,0(a1)
9d00cc80:	3c03bf80 	lui	v1,0xbf80
9d00cc84:	24846818 	addiu	a0,a0,26648
9d00cc88:	3c02bf80 	lui	v0,0xbf80
9d00cc8c:	24050400 	li	a1,1024
9d00cc90:	24636820 	addiu	v1,v1,26656
9d00cc94:	24426810 	addiu	v0,v0,26640
9d00cc98:	ac850000 	sw	a1,0(a0)
9d00cc9c:	8c440000 	lw	a0,0(v0)
9d00cca0:	30840100 	andi	a0,a0,0x100
9d00cca4:	1080fffd 	beqz	a0,9d00cc9c <_mon_putc+0x104>
9d00cca8:	00000000 	nop
9d00ccac:	ac660000 	sw	a2,0(v1)
9d00ccb0:	1000ffc5 	b	9d00cbc8 <_mon_putc+0x30>
9d00ccb4:	8fbf0014 	lw	ra,20(sp)
9d00ccb8:	03e00008 	jr	ra
9d00ccbc:	00000000 	nop

Disassembly of section .text.__shgetc:

9d00ccc0 <__shgetc>:
9d00ccc0:	27bdffe8 	addiu	sp,sp,-24
9d00ccc4:	afb00010 	sw	s0,16(sp)
9d00ccc8:	00808025 	move	s0,a0
9d00cccc:	8e030054 	lw	v1,84(s0)
9d00ccd0:	8c840050 	lw	a0,80(a0)
9d00ccd4:	00831025 	or	v0,a0,v1
9d00ccd8:	10400011 	beqz	v0,9d00cd20 <__shgetc+0x60>
9d00ccdc:	afbf0014 	sw	ra,20(sp)
9d00cce0:	8e02005c 	lw	v0,92(s0)
9d00cce4:	0043282a 	slt	a1,v0,v1
9d00cce8:	14a0000d 	bnez	a1,9d00cd20 <__shgetc+0x60>
9d00ccec:	00000000 	nop
9d00ccf0:	54430006 	bnel	v0,v1,9d00cd0c <__shgetc+0x4c>
9d00ccf4:	ae00004c 	sw	zero,76(s0)
9d00ccf8:	8e020058 	lw	v0,88(s0)
9d00ccfc:	0044102b 	sltu	v0,v0,a0
9d00cd00:	14400007 	bnez	v0,9d00cd20 <__shgetc+0x60>
9d00cd04:	00000000 	nop
9d00cd08:	ae00004c 	sw	zero,76(s0)
9d00cd0c:	2402ffff 	li	v0,-1
9d00cd10:	8fbf0014 	lw	ra,20(sp)
9d00cd14:	8fb00010 	lw	s0,16(sp)
9d00cd18:	03e00008 	jr	ra
9d00cd1c:	27bd0018 	addiu	sp,sp,24
9d00cd20:	0f403ceb 	jal	9d00f3ac <__uflow>
9d00cd24:	02002025 	move	a0,s0
9d00cd28:	0442fff8 	bltzl	v0,9d00cd0c <__shgetc+0x4c>
9d00cd2c:	ae00004c 	sw	zero,76(s0)
9d00cd30:	8e040050 	lw	a0,80(s0)
9d00cd34:	8e060054 	lw	a2,84(s0)
9d00cd38:	8e030040 	lw	v1,64(s0)
9d00cd3c:	8e07003c 	lw	a3,60(s0)
9d00cd40:	00864025 	or	t0,a0,a2
9d00cd44:	11000014 	beqz	t0,9d00cd98 <__shgetc+0xd8>
9d00cd48:	00602825 	move	a1,v1
9d00cd4c:	8e090058 	lw	t1,88(s0)
9d00cd50:	8e05005c 	lw	a1,92(s0)
9d00cd54:	00894023 	subu	t0,a0,t1
9d00cd58:	0088502b 	sltu	t2,a0,t0
9d00cd5c:	00c52823 	subu	a1,a2,a1
9d00cd60:	00673023 	subu	a2,v1,a3
9d00cd64:	00aa2823 	subu	a1,a1,t2
9d00cd68:	000657c3 	sra	t2,a2,0x1f
9d00cd6c:	0145582a 	slt	t3,t2,a1
9d00cd70:	55600009 	bnezl	t3,9d00cd98 <__shgetc+0xd8>
9d00cd74:	00602825 	move	a1,v1
9d00cd78:	54aa0005 	bnel	a1,t2,9d00cd90 <__shgetc+0xd0>
9d00cd7c:	2484ffff 	addiu	a0,a0,-1
9d00cd80:	00c8402b 	sltu	t0,a2,t0
9d00cd84:	15000004 	bnez	t0,9d00cd98 <__shgetc+0xd8>
9d00cd88:	00602825 	move	a1,v1
9d00cd8c:	2484ffff 	addiu	a0,a0,-1
9d00cd90:	00892023 	subu	a0,a0,t1
9d00cd94:	00e42821 	addu	a1,a3,a0
9d00cd98:	1060000c 	beqz	v1,9d00cdcc <__shgetc+0x10c>
9d00cd9c:	ae05004c 	sw	a1,76(s0)
9d00cda0:	8e040058 	lw	a0,88(s0)
9d00cda4:	8e05005c 	lw	a1,92(s0)
9d00cda8:	00671823 	subu	v1,v1,a3
9d00cdac:	24630001 	addiu	v1,v1,1
9d00cdb0:	000337c3 	sra	a2,v1,0x1f
9d00cdb4:	00831821 	addu	v1,a0,v1
9d00cdb8:	0064202b 	sltu	a0,v1,a0
9d00cdbc:	00a62821 	addu	a1,a1,a2
9d00cdc0:	00852021 	addu	a0,a0,a1
9d00cdc4:	ae030058 	sw	v1,88(s0)
9d00cdc8:	ae04005c 	sw	a0,92(s0)
9d00cdcc:	90e3ffff 	lbu	v1,-1(a3)
9d00cdd0:	5462ffcf 	bnel	v1,v0,9d00cd10 <__shgetc+0x50>
9d00cdd4:	a0e2ffff 	sb	v0,-1(a3)
9d00cdd8:	1000ffce 	b	9d00cd14 <__shgetc+0x54>
9d00cddc:	8fbf0014 	lw	ra,20(sp)

Disassembly of section .text.logbl:

9d00cde0 <logbl>:
9d00cde0:	27bdffe0 	addiu	sp,sp,-32
9d00cde4:	afa50024 	sw	a1,36(sp)
9d00cde8:	afb20018 	sw	s2,24(sp)
9d00cdec:	87b20026 	lh	s2,38(sp)
9d00cdf0:	24037ff0 	li	v1,32752
9d00cdf4:	afbf001c 	sw	ra,28(sp)
9d00cdf8:	32427ff0 	andi	v0,s2,0x7ff0
9d00cdfc:	afb10014 	sw	s1,20(sp)
9d00ce00:	afb00010 	sw	s0,16(sp)
9d00ce04:	10430021 	beq	v0,v1,9d00ce8c <logbl+0xac>
9d00ce08:	afa40020 	sw	a0,32(sp)
9d00ce0c:	14400012 	bnez	v0,9d00ce58 <logbl+0x78>
9d00ce10:	00003025 	move	a2,zero
9d00ce14:	0f403250 	jal	9d00c940 <__eqdf2>
9d00ce18:	00003825 	move	a3,zero
9d00ce1c:	1440002e 	bnez	v0,9d00ced8 <logbl+0xf8>
9d00ce20:	3c029d00 	lui	v0,0x9d00
9d00ce24:	3c02a001 	lui	v0,0xa001
9d00ce28:	24030021 	li	v1,33
9d00ce2c:	00008025 	move	s0,zero
9d00ce30:	3c11ffc0 	lui	s1,0xffc0
9d00ce34:	ac433fbc 	sw	v1,16316(v0)
9d00ce38:	8fbf001c 	lw	ra,28(sp)
9d00ce3c:	02001025 	move	v0,s0
9d00ce40:	02201825 	move	v1,s1
9d00ce44:	8fb20018 	lw	s2,24(sp)
9d00ce48:	8fb10014 	lw	s1,20(sp)
9d00ce4c:	8fb00010 	lw	s0,16(sp)
9d00ce50:	03e00008 	jr	ra
9d00ce54:	27bd0020 	addiu	sp,sp,32
9d00ce58:	00022103 	sra	a0,v0,0x4
9d00ce5c:	0f403aee 	jal	9d00ebb8 <__floatsidf>
9d00ce60:	2484fc01 	addiu	a0,a0,-1023
9d00ce64:	8fbf001c 	lw	ra,28(sp)
9d00ce68:	00408025 	move	s0,v0
9d00ce6c:	00608825 	move	s1,v1
9d00ce70:	02001025 	move	v0,s0
9d00ce74:	02201825 	move	v1,s1
9d00ce78:	8fb20018 	lw	s2,24(sp)
9d00ce7c:	8fb10014 	lw	s1,20(sp)
9d00ce80:	8fb00010 	lw	s0,16(sp)
9d00ce84:	03e00008 	jr	ra
9d00ce88:	27bd0020 	addiu	sp,sp,32
9d00ce8c:	00803025 	move	a2,a0
9d00ce90:	00a03825 	move	a3,a1
9d00ce94:	00808025 	move	s0,a0
9d00ce98:	0f403250 	jal	9d00c940 <__eqdf2>
9d00ce9c:	00a08825 	move	s1,a1
9d00cea0:	1440ffe6 	bnez	v0,9d00ce3c <logbl+0x5c>
9d00cea4:	8fbf001c 	lw	ra,28(sp)
9d00cea8:	32527fff 	andi	s2,s2,0x7fff
9d00ceac:	a7b20026 	sh	s2,38(sp)
9d00ceb0:	8fb00020 	lw	s0,32(sp)
9d00ceb4:	8fb10024 	lw	s1,36(sp)
9d00ceb8:	8fbf001c 	lw	ra,28(sp)
9d00cebc:	02001025 	move	v0,s0
9d00cec0:	02201825 	move	v1,s1
9d00cec4:	8fb20018 	lw	s2,24(sp)
9d00cec8:	8fb10014 	lw	s1,20(sp)
9d00cecc:	8fb00010 	lw	s0,16(sp)
9d00ced0:	03e00008 	jr	ra
9d00ced4:	27bd0020 	addiu	sp,sp,32
9d00ced8:	8c511fac 	lw	s1,8108(v0)
9d00cedc:	8c501fa8 	lw	s0,8104(v0)
9d00cee0:	8fbf001c 	lw	ra,28(sp)
9d00cee4:	02201825 	move	v1,s1
9d00cee8:	02001025 	move	v0,s0
9d00ceec:	8fb20018 	lw	s2,24(sp)
9d00cef0:	8fb10014 	lw	s1,20(sp)
9d00cef4:	8fb00010 	lw	s0,16(sp)
9d00cef8:	03e00008 	jr	ra
9d00cefc:	27bd0020 	addiu	sp,sp,32

Disassembly of section .text.realloc:

9d00cf00 <realloc>:
9d00cf00:	27bdffd8 	addiu	sp,sp,-40
9d00cf04:	afbf0024 	sw	ra,36(sp)
9d00cf08:	afb40020 	sw	s4,32(sp)
9d00cf0c:	afb3001c 	sw	s3,28(sp)
9d00cf10:	afb20018 	sw	s2,24(sp)
9d00cf14:	afb10014 	sw	s1,20(sp)
9d00cf18:	afb00010 	sw	s0,16(sp)
9d00cf1c:	1480000d 	bnez	a0,9d00cf54 <realloc+0x54>
9d00cf20:	afa5002c 	sw	a1,44(sp)
9d00cf24:	0f402984 	jal	9d00a610 <malloc>
9d00cf28:	00a02025 	move	a0,a1
9d00cf2c:	00408825 	move	s1,v0
9d00cf30:	8fbf0024 	lw	ra,36(sp)
9d00cf34:	02201025 	move	v0,s1
9d00cf38:	8fb40020 	lw	s4,32(sp)
9d00cf3c:	8fb3001c 	lw	s3,28(sp)
9d00cf40:	8fb20018 	lw	s2,24(sp)
9d00cf44:	8fb10014 	lw	s1,20(sp)
9d00cf48:	8fb00010 	lw	s0,16(sp)
9d00cf4c:	03e00008 	jr	ra
9d00cf50:	27bd0028 	addiu	sp,sp,40
9d00cf54:	00808025 	move	s0,a0
9d00cf58:	0f403caa 	jal	9d00f2a8 <adjust_size>
9d00cf5c:	27a4002c 	addiu	a0,sp,44
9d00cf60:	0440002b 	bltz	v0,9d00d010 <realloc+0x110>
9d00cf64:	2413fffe 	li	s3,-2
9d00cf68:	8e02fffc 	lw	v0,-4(s0)
9d00cf6c:	2614fff8 	addiu	s4,s0,-8
9d00cf70:	00539024 	and	s2,v0,s3
9d00cf74:	02928821 	addu	s1,s4,s2
9d00cf78:	8e230000 	lw	v1,0(s1)
9d00cf7c:	10430003 	beq	v0,v1,9d00cf8c <realloc+0x8c>
9d00cf80:	8fa2002c 	lw	v0,44(sp)
9d00cf84:	a0000000 	sb	zero,0(zero)
9d00cf88:	00000034 	teq	zero,zero
9d00cf8c:	0242102b 	sltu	v0,s2,v0
9d00cf90:	10400009 	beqz	v0,9d00cfb8 <realloc+0xb8>
9d00cf94:	02401825 	move	v1,s2
9d00cf98:	0f403b9b 	jal	9d00ee6c <alloc_fwd>
9d00cf9c:	02202025 	move	a0,s1
9d00cfa0:	10400005 	beqz	v0,9d00cfb8 <realloc+0xb8>
9d00cfa4:	02401825 	move	v1,s2
9d00cfa8:	8e220004 	lw	v0,4(s1)
9d00cfac:	02629824 	and	s3,s3,v0
9d00cfb0:	02721821 	addu	v1,s3,s2
9d00cfb4:	02338821 	addu	s1,s1,s3
9d00cfb8:	8fa5002c 	lw	a1,44(sp)
9d00cfbc:	34620001 	ori	v0,v1,0x1
9d00cfc0:	ae02fffc 	sw	v0,-4(s0)
9d00cfc4:	0065182b 	sltu	v1,v1,a1
9d00cfc8:	14600005 	bnez	v1,9d00cfe0 <realloc+0xe0>
9d00cfcc:	ae220000 	sw	v0,0(s1)
9d00cfd0:	0f403cc0 	jal	9d00f300 <trim>
9d00cfd4:	02802025 	move	a0,s4
9d00cfd8:	1000ffd5 	b	9d00cf30 <realloc+0x30>
9d00cfdc:	02008825 	move	s1,s0
9d00cfe0:	0f402984 	jal	9d00a610 <malloc>
9d00cfe4:	24a4fff8 	addiu	a0,a1,-8
9d00cfe8:	1040ffd1 	beqz	v0,9d00cf30 <realloc+0x30>
9d00cfec:	00408825 	move	s1,v0
9d00cff0:	2646fff8 	addiu	a2,s2,-8
9d00cff4:	02002825 	move	a1,s0
9d00cff8:	0f403efe 	jal	9d00fbf8 <memcpy>
9d00cffc:	00402025 	move	a0,v0
9d00d000:	0f402e1c 	jal	9d00b870 <free>
9d00d004:	02002025 	move	a0,s0
9d00d008:	1000ffca 	b	9d00cf34 <realloc+0x34>
9d00d00c:	8fbf0024 	lw	ra,36(sp)
9d00d010:	1000ffc7 	b	9d00cf30 <realloc+0x30>
9d00d014:	00008825 	move	s1,zero

Disassembly of section .rodata:

9d00d018 <table-0xc>:
9d00d018:	04020100 	bltzl	zero,9d00d41c <i49+0x10>
9d00d01c:	05060307 	0x5060307
9d00d020:	00000000 	nop

9d00d024 <table>:
9d00d024:	ffffffff ffffffff ffffffff ffffffff     ................
9d00d034:	ffffffff ffffffff ffffffff ffffffff     ................
9d00d044:	ffffffff ffffffff ffffffff ffffffff     ................
9d00d054:	020100ff 06050403 ff090807 ffffffff     ................
9d00d064:	0b0affff 0f0e0d0c 13121110 17161514     ................
9d00d074:	1b1a1918 1f1e1d1c 23222120 ffffffff     ........ !"#....
9d00d084:	0b0affff 0f0e0d0c 13121110 17161514     ................
9d00d094:	1b1a1918 1f1e1d1c 23222120 ffffffff     ........ !"#....
9d00d0a4:	ffffffff ffffffff ffffffff ffffffff     ................
9d00d0b4:	ffffffff ffffffff ffffffff ffffffff     ................
9d00d0c4:	ffffffff ffffffff ffffffff ffffffff     ................
9d00d0d4:	ffffffff ffffffff ffffffff ffffffff     ................
9d00d0e4:	ffffffff ffffffff ffffffff ffffffff     ................
9d00d0f4:	ffffffff ffffffff ffffffff ffffffff     ................
9d00d104:	ffffffff ffffffff ffffffff ffffffff     ................
9d00d114:	ffffffff ffffffff ffffffff ffffffff     ................
9d00d124:	000000ff                                ....

Disassembly of section .text:

9d00d128 <dpfloor>:
9d00d128:	3c018000 00a13024 00053840 00073d42     ...<$0..@8..B=..
9d00d138:	240107ff 10e1002b 00000000 24090433     ...$+.......3..$
9d00d148:	01273823 2ce10035 1420000b 00000000     #8'.5..,.. .....
9d00d158:	04e00020 00000000 10c0002d 00000000      .......-.......
9d00d168:	00054840 01244825 15200026 00000000     @H..%H$.&. .....
9d00d178:	10000027 00000000                       '.......

9d00d180 <i1>:
9d00d180:	10c00005 	beqz	a2,9d00d198 <i3>
9d00d184:	00000000 	nop
9d00d188:	0004482b 	sltu	t1,zero,a0
9d00d18c:	00042023 	negu	a0,a0
9d00d190:	00052823 	negu	a1,a1
9d00d194:	00a92823 	subu	a1,a1,t1

9d00d198 <i3>:
9d00d198:	30e9001f 	andi	t1,a3,0x1f
9d00d19c:	24080001 	li	t0,1
9d00d1a0:	01284004 	sllv	t0,t0,t1
9d00d1a4:	00084023 	negu	t0,t0
9d00d1a8:	2ce10020 	sltiu	at,a3,32
9d00d1ac:	14200004 	bnez	at,9d00d1c0 <i4>
9d00d1b0:	00000000 	nop
9d00d1b4:	24040000 	li	a0,0
9d00d1b8:	10000002 	b	9d00d1c4 <e4>
9d00d1bc:	00a82824 	and	a1,a1,t0

9d00d1c0 <i4>:
9d00d1c0:	00882024 	and	a0,a0,t0

9d00d1c4 <e4>:
9d00d1c4:	10c00005 	beqz	a2,9d00d1dc <Aret>
9d00d1c8:	00000000 	nop
9d00d1cc:	0004482b 	sltu	t1,zero,a0
9d00d1d0:	00042023 	negu	a0,a0
9d00d1d4:	00052823 	negu	a1,a1
9d00d1d8:	00a92823 	subu	a1,a1,t1

9d00d1dc <Aret>:
9d00d1dc:	00041025 	or	v0,zero,a0
9d00d1e0:	00051825 	or	v1,zero,a1

9d00d1e4 <A999>:
9d00d1e4:	03e00008 	jr	ra
9d00d1e8:	00000000 	nop

9d00d1ec <Aspec>:
9d00d1ec:	3c01000f 	lui	at,0xf
9d00d1f0:	3421ffff 	ori	at,at,0xffff
9d00d1f4:	00a14824 	and	t1,a1,at
9d00d1f8:	01244825 	or	t1,t1,a0
9d00d1fc:	15200009 	bnez	t1,9d00d224 <Anan>
9d00d200:	00000000 	nop
9d00d204:	1000fff5 	b	9d00d1dc <Aret>
9d00d208:	00000000 	nop

9d00d20c <Amin1>:
9d00d20c:	3c05bff0 	lui	a1,0xbff0
9d00d210:	1000fff2 	b	9d00d1dc <Aret>
9d00d214:	24040000 	li	a0,0

9d00d218 <Azer>:
9d00d218:	00062825 	or	a1,zero,a2
9d00d21c:	1000ffef 	b	9d00d1dc <Aret>
9d00d220:	24040000 	li	a0,0

9d00d224 <Anan>:
9d00d224:	3c05fff8 	lui	a1,0xfff8
9d00d228:	1000ffec 	b	9d00d1dc <Aret>
9d00d22c:	24040000 	li	a0,0

Disassembly of section .text.__pad:

9d00d230 <__pad>:
9d00d230:	27bdffc0 	addiu	sp,sp,-64
9d00d234:	afb40030 	sw	s4,48(sp)
9d00d238:	8fb40050 	lw	s4,80(sp)
9d00d23c:	afb50034 	sw	s5,52(sp)
9d00d240:	afb3002c 	sw	s3,44(sp)
9d00d244:	32940001 	andi	s4,s4,0x1
9d00d248:	afb20028 	sw	s2,40(sp)
9d00d24c:	afb10024 	sw	s1,36(sp)
9d00d250:	afb00020 	sw	s0,32(sp)
9d00d254:	afbf003c 	sw	ra,60(sp)
9d00d258:	afb60038 	sw	s6,56(sp)
9d00d25c:	00809825 	move	s3,a0
9d00d260:	00a0a825 	move	s5,a1
9d00d264:	00c08825 	move	s1,a2
9d00d268:	00e09025 	move	s2,a3
9d00d26c:	16800024 	bnez	s4,9d00d300 <__pad+0xd0>
9d00d270:	00c7802a 	slt	s0,a2,a3
9d00d274:	12000023 	beqz	s0,9d00d304 <__pad+0xd4>
9d00d278:	02203025 	move	a2,s1
9d00d27c:	02518023 	subu	s0,s2,s1
9d00d280:	2e060011 	sltiu	a2,s0,17
9d00d284:	24020010 	li	v0,16
9d00d288:	0206100b 	movn	v0,s0,a2
9d00d28c:	00403025 	move	a2,v0
9d00d290:	24050020 	li	a1,32
9d00d294:	27a40010 	addiu	a0,sp,16
9d00d298:	0f403f85 	jal	9d00fe14 <memset>
9d00d29c:	0200b025 	move	s6,s0
9d00d2a0:	2a020010 	slti	v0,s0,16
9d00d2a4:	1040001e 	beqz	v0,9d00d320 <__pad+0xf0>
9d00d2a8:	24060010 	li	a2,16
9d00d2ac:	32c6000f 	andi	a2,s6,0xf
9d00d2b0:	27a50010 	addiu	a1,sp,16
9d00d2b4:	0f4039a2 	jal	9d00e688 <__out>
9d00d2b8:	02602025 	move	a0,s3
9d00d2bc:	16800006 	bnez	s4,9d00d2d8 <__pad+0xa8>
9d00d2c0:	8fbf003c 	lw	ra,60(sp)
9d00d2c4:	02203025 	move	a2,s1
9d00d2c8:	02a02825 	move	a1,s5
9d00d2cc:	0f4039a2 	jal	9d00e688 <__out>
9d00d2d0:	02602025 	move	a0,s3
9d00d2d4:	8fbf003c 	lw	ra,60(sp)
9d00d2d8:	02401025 	move	v0,s2
9d00d2dc:	8fb60038 	lw	s6,56(sp)
9d00d2e0:	8fb50034 	lw	s5,52(sp)
9d00d2e4:	8fb40030 	lw	s4,48(sp)
9d00d2e8:	8fb3002c 	lw	s3,44(sp)
9d00d2ec:	8fb20028 	lw	s2,40(sp)
9d00d2f0:	8fb10024 	lw	s1,36(sp)
9d00d2f4:	8fb00020 	lw	s0,32(sp)
9d00d2f8:	03e00008 	jr	ra
9d00d2fc:	27bd0040 	addiu	sp,sp,64
9d00d300:	02203025 	move	a2,s1
9d00d304:	02a02825 	move	a1,s5
9d00d308:	0f4039a2 	jal	9d00e688 <__out>
9d00d30c:	02602025 	move	a0,s3
9d00d310:	1600ffdb 	bnez	s0,9d00d280 <__pad+0x50>
9d00d314:	02518023 	subu	s0,s2,s1
9d00d318:	1000ffee 	b	9d00d2d4 <__pad+0xa4>
9d00d31c:	02209025 	move	s2,s1
9d00d320:	27a50010 	addiu	a1,sp,16
9d00d324:	0f4039a2 	jal	9d00e688 <__out>
9d00d328:	02602025 	move	a0,s3
9d00d32c:	1000ffdc 	b	9d00d2a0 <__pad+0x70>
9d00d330:	2610fff0 	addiu	s0,s0,-16

Disassembly of section .text.dptofp:

9d00d334 <__truncdfsf2>:
9d00d334:	00053ac0 00045d42 00eb3825 000432c0     .:..B]..%8...2..
9d00d344:	3c018000 00e13825 3c018000 00a14824     ...<%8.....<$H..
9d00d354:	00054040 00084542 2508fc80 250bffff     @@..BE.....%...%
9d00d364:	2d6100fe 10200012 00000000              ..a-.. .....

9d00d370 <Hlab1>:
9d00d370:	10c00002 	beqz	a2,9d00d37c <i45>
9d00d374:	00000000 	nop
9d00d378:	34e70001 	ori	a3,a3,0x1

9d00d37c <i45>:
9d00d37c:	24e70080 	addiu	a3,a3,128
9d00d380:	2ceb0080 	sltiu	t3,a3,128
9d00d384:	010b4021 	addu	t0,t0,t3
9d00d388:	00075a02 	srl	t3,a3,0x8
9d00d38c:	316b0001 	andi	t3,t3,0x1
9d00d390:	00eb3823 	subu	a3,a3,t3
9d00d394:	00073840 	sll	a3,a3,0x1
9d00d398:	00073a42 	srl	a3,a3,0x9
9d00d39c:	00085dc0 	sll	t3,t0,0x17
9d00d3a0:	00eb3825 	or	a3,a3,t3
9d00d3a4:	00e91025 	or	v0,a3,t1

9d00d3a8 <H999>:
9d00d3a8:	03e00008 	jr	ra
9d00d3ac:	00000000 	nop
9d00d3b0:	00000000 	nop

9d00d3b4 <Hspec>:
9d00d3b4:	2401047f 	li	at,1151
9d00d3b8:	15010007 	bne	t0,at,9d00d3d8 <i46>
9d00d3bc:	00000000 	nop
9d00d3c0:	00075840 	sll	t3,a3,0x1
9d00d3c4:	01665825 	or	t3,t3,a2
9d00d3c8:	11600003 	beqz	t3,9d00d3d8 <i46>
9d00d3cc:	00000000 	nop
9d00d3d0:	1000fff5 	b	9d00d3a8 <H999>
9d00d3d4:	3c02ffc0 	lui	v0,0xffc0

9d00d3d8 <i46>:
9d00d3d8:	290100ff 	slti	at,t0,255
9d00d3dc:	14200004 	bnez	at,9d00d3f0 <i48>
9d00d3e0:	00000000 	nop
9d00d3e4:	3c017f80 	lui	at,0x7f80
9d00d3e8:	1000ffef 	b	9d00d3a8 <H999>
9d00d3ec:	01211025 	or	v0,t1,at

9d00d3f0 <i48>:
9d00d3f0:	240a0001 	li	t2,1
9d00d3f4:	01485023 	subu	t2,t2,t0
9d00d3f8:	2d410020 	sltiu	at,t2,32
9d00d3fc:	14200003 	bnez	at,9d00d40c <i49>
9d00d400:	00000000 	nop
9d00d404:	1000ffe8 	b	9d00d3a8 <H999>
9d00d408:	00091025 	or	v0,zero,t1

9d00d40c <i49>:
9d00d40c:	240c0020 	li	t4,32
9d00d410:	018a6023 	subu	t4,t4,t2
9d00d414:	01875804 	sllv	t3,a3,t4
9d00d418:	00cb3025 	or	a2,a2,t3
9d00d41c:	01473806 	srlv	a3,a3,t2
9d00d420:	24080000 	li	t0,0
9d00d424:	3c018000 	lui	at,0x8000
9d00d428:	1000ffd1 	b	9d00d370 <Hlab1>
9d00d42c:	00e13825 	or	a3,a3,at
9d00d430:	00000000 	nop

Disassembly of section .text.__fmt_o:

9d00d434 <__fmt_o>:
9d00d434:	8ca20000 	lw	v0,0(a1)
9d00d438:	8ca30004 	lw	v1,4(a1)
9d00d43c:	27bdffc0 	addiu	sp,sp,-64
9d00d440:	afb30038 	sw	s3,56(sp)
9d00d444:	afb20034 	sw	s2,52(sp)
9d00d448:	afb10030 	sw	s1,48(sp)
9d00d44c:	afb0002c 	sw	s0,44(sp)
9d00d450:	afbf003c 	sw	ra,60(sp)
9d00d454:	00809025 	move	s2,a0
9d00d458:	00a08025 	move	s0,a1
9d00d45c:	8cb30008 	lw	s3,8(a1)
9d00d460:	afa20020 	sw	v0,32(sp)
9d00d464:	04600003 	bltz	v1,9d00d474 <__fmt_o+0x40>
9d00d468:	8cb1000c 	lw	s1,12(a1)
9d00d46c:	7c020844 	ins	v0,zero,0x1,0x1
9d00d470:	afa20020 	sw	v0,32(sp)
9d00d474:	27a20020 	addiu	v0,sp,32
9d00d478:	afa20018 	sw	v0,24(sp)
9d00d47c:	24020008 	li	v0,8
9d00d480:	afa20014 	sw	v0,20(sp)
9d00d484:	afb30010 	sw	s3,16(sp)
9d00d488:	8cc70004 	lw	a3,4(a2)
9d00d48c:	8cc60000 	lw	a2,0(a2)
9d00d490:	0f4031ff 	jal	9d00c7fc <__cvt_u>
9d00d494:	02002025 	move	a0,s0
9d00d498:	8fa30020 	lw	v1,32(sp)
9d00d49c:	30630010 	andi	v1,v1,0x10
9d00d4a0:	10600006 	beqz	v1,9d00d4bc <__fmt_o+0x88>
9d00d4a4:	8fa30020 	lw	v1,32(sp)
9d00d4a8:	2442ffff 	addiu	v0,v0,-1
9d00d4ac:	02221821 	addu	v1,s1,v0
9d00d4b0:	24040030 	li	a0,48
9d00d4b4:	a0640000 	sb	a0,0(v1)
9d00d4b8:	8fa30020 	lw	v1,32(sp)
9d00d4bc:	30630008 	andi	v1,v1,0x8
9d00d4c0:	50600006 	beqzl	v1,9d00d4dc <__fmt_o+0xa8>
9d00d4c4:	8e060010 	lw	a2,16(s0)
9d00d4c8:	2442ffff 	addiu	v0,v0,-1
9d00d4cc:	02221821 	addu	v1,s1,v0
9d00d4d0:	24040020 	li	a0,32
9d00d4d4:	a0640000 	sb	a0,0(v1)
9d00d4d8:	8e060010 	lw	a2,16(s0)
9d00d4dc:	8fa30020 	lw	v1,32(sp)
9d00d4e0:	02603825 	move	a3,s3
9d00d4e4:	24c6ffff 	addiu	a2,a2,-1
9d00d4e8:	afa30010 	sw	v1,16(sp)
9d00d4ec:	00c23023 	subu	a2,a2,v0
9d00d4f0:	02222821 	addu	a1,s1,v0
9d00d4f4:	0f40348c 	jal	9d00d230 <__pad>
9d00d4f8:	02402025 	move	a0,s2
9d00d4fc:	8e430004 	lw	v1,4(s2)
9d00d500:	30630100 	andi	v1,v1,0x100
9d00d504:	10600004 	beqz	v1,9d00d518 <__fmt_o+0xe4>
9d00d508:	8fbf003c 	lw	ra,60(sp)
9d00d50c:	8e030004 	lw	v1,4(s0)
9d00d510:	0043202a 	slt	a0,v0,v1
9d00d514:	0064100b 	movn	v0,v1,a0
9d00d518:	8fb30038 	lw	s3,56(sp)
9d00d51c:	8fb20034 	lw	s2,52(sp)
9d00d520:	8fb10030 	lw	s1,48(sp)
9d00d524:	8fb0002c 	lw	s0,44(sp)
9d00d528:	03e00008 	jr	ra
9d00d52c:	27bd0040 	addiu	sp,sp,64

Disassembly of section .text.scalbn:

9d00d530 <scalbn>:
9d00d530:	27bdffe0 	addiu	sp,sp,-32
9d00d534:	afb10014 	sw	s1,20(sp)
9d00d538:	00c08825 	move	s1,a2
9d00d53c:	28c60400 	slti	a2,a2,1024
9d00d540:	afbf001c 	sw	ra,28(sp)
9d00d544:	afb20018 	sw	s2,24(sp)
9d00d548:	14c00020 	bnez	a2,9d00d5cc <scalbn+0x9c>
9d00d54c:	afb00010 	sw	s0,16(sp)
9d00d550:	3c129d00 	lui	s2,0x9d00
9d00d554:	8e461fe8 	lw	a2,8168(s2)
9d00d558:	8e471fec 	lw	a3,8172(s2)
9d00d55c:	0f402611 	jal	9d009844 <__muldf3>
9d00d560:	2630fc01 	addiu	s0,s1,-1023
9d00d564:	2a040400 	slti	a0,s0,1024
9d00d568:	5480000b 	bnezl	a0,9d00d598 <scalbn+0x68>
9d00d56c:	261003ff 	addiu	s0,s0,1023
9d00d570:	8e461fe8 	lw	a2,8168(s2)
9d00d574:	8e471fec 	lw	a3,8172(s2)
9d00d578:	00402025 	move	a0,v0
9d00d57c:	00602825 	move	a1,v1
9d00d580:	0f402611 	jal	9d009844 <__muldf3>
9d00d584:	2630f802 	addiu	s0,s1,-2046
9d00d588:	2a050400 	slti	a1,s0,1024
9d00d58c:	240403ff 	li	a0,1023
9d00d590:	0085800a 	movz	s0,a0,a1
9d00d594:	261003ff 	addiu	s0,s0,1023
9d00d598:	00102500 	sll	a0,s0,0x14
9d00d59c:	00002825 	move	a1,zero
9d00d5a0:	00a03025 	move	a2,a1
9d00d5a4:	00803825 	move	a3,a0
9d00d5a8:	00602825 	move	a1,v1
9d00d5ac:	0f402611 	jal	9d009844 <__muldf3>
9d00d5b0:	00402025 	move	a0,v0
9d00d5b4:	8fbf001c 	lw	ra,28(sp)
9d00d5b8:	8fb20018 	lw	s2,24(sp)
9d00d5bc:	8fb10014 	lw	s1,20(sp)
9d00d5c0:	8fb00010 	lw	s0,16(sp)
9d00d5c4:	03e00008 	jr	ra
9d00d5c8:	27bd0020 	addiu	sp,sp,32
9d00d5cc:	2a26fc02 	slti	a2,s1,-1022
9d00d5d0:	00801025 	move	v0,a0
9d00d5d4:	00a01825 	move	v1,a1
9d00d5d8:	10c0ffee 	beqz	a2,9d00d594 <scalbn+0x64>
9d00d5dc:	02208025 	move	s0,s1
9d00d5e0:	3c129d00 	lui	s2,0x9d00
9d00d5e4:	8e461ff0 	lw	a2,8176(s2)
9d00d5e8:	8e471ff4 	lw	a3,8180(s2)
9d00d5ec:	0f402611 	jal	9d009844 <__muldf3>
9d00d5f0:	263003c9 	addiu	s0,s1,969
9d00d5f4:	2a04fc02 	slti	a0,s0,-1022
9d00d5f8:	5080ffe7 	beqzl	a0,9d00d598 <scalbn+0x68>
9d00d5fc:	261003ff 	addiu	s0,s0,1023
9d00d600:	8e461ff0 	lw	a2,8176(s2)
9d00d604:	8e471ff4 	lw	a3,8180(s2)
9d00d608:	00402025 	move	a0,v0
9d00d60c:	00602825 	move	a1,v1
9d00d610:	0f402611 	jal	9d009844 <__muldf3>
9d00d614:	26300792 	addiu	s0,s1,1938
9d00d618:	2a05fc02 	slti	a1,s0,-1022
9d00d61c:	2404fc02 	li	a0,-1022
9d00d620:	1000ffdc 	b	9d00d594 <scalbn+0x64>
9d00d624:	0085800b 	movn	s0,a0,a1

Disassembly of section .text.__pop_ptr:

9d00d628 <__pop_ptr>:
9d00d628:	24020084 	li	v0,132
9d00d62c:	50a20022 	beql	a1,v0,9d00d6b8 <__pop_ptr+0x90>
9d00d630:	8ce20000 	lw	v0,0(a3)
9d00d634:	28a20085 	slti	v0,a1,133
9d00d638:	10400011 	beqz	v0,9d00d680 <__pop_ptr+0x58>
9d00d63c:	24020090 	li	v0,144
9d00d640:	24020081 	li	v0,129
9d00d644:	50a20008 	beql	a1,v0,9d00d668 <__pop_ptr+0x40>
9d00d648:	8ce20000 	lw	v0,0(a3)
9d00d64c:	24020082 	li	v0,130
9d00d650:	50a20026 	beql	a1,v0,9d00d6ec <__pop_ptr+0xc4>
9d00d654:	8ce20000 	lw	v0,0(a3)
9d00d658:	24020080 	li	v0,128
9d00d65c:	14a20010 	bne	a1,v0,9d00d6a0 <__pop_ptr+0x78>
9d00d660:	00000000 	nop
9d00d664:	8ce20000 	lw	v0,0(a3)
9d00d668:	24430004 	addiu	v1,v0,4
9d00d66c:	ace30000 	sw	v1,0(a3)
9d00d670:	8c420000 	lw	v0,0(v0)
9d00d674:	ac820000 	sw	v0,0(a0)
9d00d678:	10000014 	b	9d00d6cc <__pop_ptr+0xa4>
9d00d67c:	ac460000 	sw	a2,0(v0)
9d00d680:	50a2001a 	beql	a1,v0,9d00d6ec <__pop_ptr+0xc4>
9d00d684:	8ce20000 	lw	v0,0(a3)
9d00d688:	28a20091 	slti	v0,a1,145
9d00d68c:	10400006 	beqz	v0,9d00d6a8 <__pop_ptr+0x80>
9d00d690:	240200a0 	li	v0,160
9d00d694:	24020088 	li	v0,136
9d00d698:	50a2000e 	beql	a1,v0,9d00d6d4 <__pop_ptr+0xac>
9d00d69c:	8ce20000 	lw	v0,0(a3)
9d00d6a0:	03e00008 	jr	ra
9d00d6a4:	00001025 	move	v0,zero
9d00d6a8:	50a2ffef 	beql	a1,v0,9d00d668 <__pop_ptr+0x40>
9d00d6ac:	8ce20000 	lw	v0,0(a3)
9d00d6b0:	1000ffea 	b	9d00d65c <__pop_ptr+0x34>
9d00d6b4:	240200c0 	li	v0,192
9d00d6b8:	24430004 	addiu	v1,v0,4
9d00d6bc:	ace30000 	sw	v1,0(a3)
9d00d6c0:	8c420000 	lw	v0,0(v0)
9d00d6c4:	ac820000 	sw	v0,0(a0)
9d00d6c8:	a4460000 	sh	a2,0(v0)
9d00d6cc:	03e00008 	jr	ra
9d00d6d0:	24020001 	li	v0,1
9d00d6d4:	24430004 	addiu	v1,v0,4
9d00d6d8:	ace30000 	sw	v1,0(a3)
9d00d6dc:	8c420000 	lw	v0,0(v0)
9d00d6e0:	ac820000 	sw	v0,0(a0)
9d00d6e4:	1000fff9 	b	9d00d6cc <__pop_ptr+0xa4>
9d00d6e8:	a0460000 	sb	a2,0(v0)
9d00d6ec:	24430004 	addiu	v1,v0,4
9d00d6f0:	ace30000 	sw	v1,0(a3)
9d00d6f4:	8c420000 	lw	v0,0(v0)
9d00d6f8:	ac820000 	sw	v0,0(a0)
9d00d6fc:	ac460000 	sw	a2,0(v0)
9d00d700:	000637c3 	sra	a2,a2,0x1f
9d00d704:	1000fff1 	b	9d00d6cc <__pop_ptr+0xa4>
9d00d708:	ac460004 	sw	a2,4(v0)

Disassembly of section .text.__stdio_seek_rw:

9d00d70c <__stdio_seek_rw>:
9d00d70c:	27bdffd0 	addiu	sp,sp,-48
9d00d710:	afb20028 	sw	s2,40(sp)
9d00d714:	8fb20040 	lw	s2,64(sp)
9d00d718:	24020001 	li	v0,1
9d00d71c:	afb10024 	sw	s1,36(sp)
9d00d720:	afb00020 	sw	s0,32(sp)
9d00d724:	afbf002c 	sw	ra,44(sp)
9d00d728:	00808025 	move	s0,a0
9d00d72c:	1642000a 	bne	s2,v0,9d00d758 <__stdio_seek_rw+0x4c>
9d00d730:	00c08825 	move	s1,a2
9d00d734:	8c83003c 	lw	v1,60(a0)
9d00d738:	8c820040 	lw	v0,64(a0)
9d00d73c:	00431023 	subu	v0,v0,v1
9d00d740:	000227c3 	sra	a0,v0,0x1f
9d00d744:	00c21023 	subu	v0,a2,v0
9d00d748:	00c2182b 	sltu	v1,a2,v0
9d00d74c:	00e43823 	subu	a3,a3,a0
9d00d750:	00408825 	move	s1,v0
9d00d754:	00e33823 	subu	a3,a3,v1
9d00d758:	8e020004 	lw	v0,4(s0)
9d00d75c:	30420020 	andi	v0,v0,0x20
9d00d760:	5040000a 	beqzl	v0,9d00d78c <__stdio_seek_rw+0x80>
9d00d764:	afb20010 	sw	s2,16(sp)
9d00d768:	8e020014 	lw	v0,20(s0)
9d00d76c:	8e030018 	lw	v1,24(s0)
9d00d770:	0062102b 	sltu	v0,v1,v0
9d00d774:	5440000e 	bnezl	v0,9d00d7b0 <__stdio_seek_rw+0xa4>
9d00d778:	8e02002c 	lw	v0,44(s0)
9d00d77c:	ae000028 	sw	zero,40(s0)
9d00d780:	ae000018 	sw	zero,24(s0)
9d00d784:	ae000014 	sw	zero,20(s0)
9d00d788:	afb20010 	sw	s2,16(sp)
9d00d78c:	02203025 	move	a2,s1
9d00d790:	0f403c94 	jal	9d00f250 <__stdio_seek_unbuffered>
9d00d794:	02002025 	move	a0,s0
9d00d798:	0460000d 	bltz	v1,9d00d7d0 <__stdio_seek_rw+0xc4>
9d00d79c:	00001025 	move	v0,zero
9d00d7a0:	ae000040 	sw	zero,64(s0)
9d00d7a4:	ae00003c 	sw	zero,60(s0)
9d00d7a8:	1000000b 	b	9d00d7d8 <__stdio_seek_rw+0xcc>
9d00d7ac:	00001825 	move	v1,zero
9d00d7b0:	00003025 	move	a2,zero
9d00d7b4:	00002825 	move	a1,zero
9d00d7b8:	02002025 	move	a0,s0
9d00d7bc:	0040f809 	jalr	v0
9d00d7c0:	afa70018 	sw	a3,24(sp)
9d00d7c4:	8e020014 	lw	v0,20(s0)
9d00d7c8:	1440ffec 	bnez	v0,9d00d77c <__stdio_seek_rw+0x70>
9d00d7cc:	8fa70018 	lw	a3,24(sp)
9d00d7d0:	2402ffff 	li	v0,-1
9d00d7d4:	2403ffff 	li	v1,-1
9d00d7d8:	8fbf002c 	lw	ra,44(sp)
9d00d7dc:	8fb20028 	lw	s2,40(sp)
9d00d7e0:	8fb10024 	lw	s1,36(sp)
9d00d7e4:	8fb00020 	lw	s0,32(sp)
9d00d7e8:	03e00008 	jr	ra
9d00d7ec:	27bd0030 	addiu	sp,sp,48

Disassembly of section .text.general_exception:

9d00d7f0 <_general_exception_context>:
9d00d7f0:	27bdffa8 	addiu	sp,sp,-88
9d00d7f4:	afa10004 	sw	at,4(sp)
9d00d7f8:	afa20008 	sw	v0,8(sp)
9d00d7fc:	afa3000c 	sw	v1,12(sp)
9d00d800:	afa40010 	sw	a0,16(sp)
9d00d804:	afa50014 	sw	a1,20(sp)
9d00d808:	afa60018 	sw	a2,24(sp)
9d00d80c:	afa7001c 	sw	a3,28(sp)
9d00d810:	afa80020 	sw	t0,32(sp)
9d00d814:	afa90024 	sw	t1,36(sp)
9d00d818:	afaa0028 	sw	t2,40(sp)
9d00d81c:	afab002c 	sw	t3,44(sp)
9d00d820:	afac0030 	sw	t4,48(sp)
9d00d824:	afad0034 	sw	t5,52(sp)
9d00d828:	afae0038 	sw	t6,56(sp)
9d00d82c:	afaf003c 	sw	t7,60(sp)
9d00d830:	afb80040 	sw	t8,64(sp)
9d00d834:	afb90044 	sw	t9,68(sp)
9d00d838:	afbf0048 	sw	ra,72(sp)
9d00d83c:	00004012 	mflo	t0
9d00d840:	afa8004c 	sw	t0,76(sp)
9d00d844:	00004010 	mfhi	t0
9d00d848:	afa80050 	sw	t0,80(sp)
9d00d84c:	3c1a9d01 	lui	k0,0x9d01
9d00d850:	275af61c 	addiu	k0,k0,-2532
9d00d854:	00000000 	nop
9d00d858:	40046800 	mfc0	a0,c0_cause
9d00d85c:	40056000 	mfc0	a1,c0_status
9d00d860:	0340f809 	jalr	k0
9d00d864:	00000000 	nop
9d00d868:	8fa80050 	lw	t0,80(sp)
9d00d86c:	01000011 	mthi	t0
9d00d870:	8fa8004c 	lw	t0,76(sp)
9d00d874:	01000013 	mtlo	t0
9d00d878:	8fa10004 	lw	at,4(sp)
9d00d87c:	8fa20008 	lw	v0,8(sp)
9d00d880:	8fa3000c 	lw	v1,12(sp)
9d00d884:	8fa40010 	lw	a0,16(sp)
9d00d888:	8fa50014 	lw	a1,20(sp)
9d00d88c:	8fa60018 	lw	a2,24(sp)
9d00d890:	8fa7001c 	lw	a3,28(sp)
9d00d894:	8fa80020 	lw	t0,32(sp)
9d00d898:	8fa90024 	lw	t1,36(sp)
9d00d89c:	8faa0028 	lw	t2,40(sp)
9d00d8a0:	8fab002c 	lw	t3,44(sp)
9d00d8a4:	8fac0030 	lw	t4,48(sp)
9d00d8a8:	8fad0034 	lw	t5,52(sp)
9d00d8ac:	8fae0038 	lw	t6,56(sp)
9d00d8b0:	8faf003c 	lw	t7,60(sp)
9d00d8b4:	8fb80040 	lw	t8,64(sp)
9d00d8b8:	8fb90044 	lw	t9,68(sp)
9d00d8bc:	8fbf0048 	lw	ra,72(sp)
9d00d8c0:	27bd0058 	addiu	sp,sp,88
9d00d8c4:	000000c0 	ehb
9d00d8c8:	42000018 	eret

Disassembly of section .text.__stdio_read:

9d00d8cc <__stdio_read>:
9d00d8cc:	8c83000c 	lw	v1,12(a0)
9d00d8d0:	27bdffd0 	addiu	sp,sp,-48
9d00d8d4:	afb00020 	sw	s0,32(sp)
9d00d8d8:	0003102b 	sltu	v0,zero,v1
9d00d8dc:	00c21023 	subu	v0,a2,v0
9d00d8e0:	00808025 	move	s0,a0
9d00d8e4:	afa20014 	sw	v0,20(sp)
9d00d8e8:	8c820008 	lw	v0,8(a0)
9d00d8ec:	8c840000 	lw	a0,0(a0)
9d00d8f0:	afb20028 	sw	s2,40(sp)
9d00d8f4:	afb10024 	sw	s1,36(sp)
9d00d8f8:	00a09025 	move	s2,a1
9d00d8fc:	00c08825 	move	s1,a2
9d00d900:	afa50010 	sw	a1,16(sp)
9d00d904:	24060002 	li	a2,2
9d00d908:	27a50010 	addiu	a1,sp,16
9d00d90c:	afbf002c 	sw	ra,44(sp)
9d00d910:	afa20018 	sw	v0,24(sp)
9d00d914:	0f403acf 	jal	9d00eb3c <readv>
9d00d918:	afa3001c 	sw	v1,28(sp)
9d00d91c:	1c400008 	bgtz	v0,9d00d940 <__stdio_read+0x74>
9d00d920:	8fa40014 	lw	a0,20(sp)
9d00d924:	30430018 	andi	v1,v0,0x18
9d00d928:	38640008 	xori	a0,v1,0x8
9d00d92c:	8e030004 	lw	v1,4(s0)
9d00d930:	00641825 	or	v1,v1,a0
9d00d934:	ae030004 	sw	v1,4(s0)
9d00d938:	10000010 	b	9d00d97c <__stdio_read+0xb0>
9d00d93c:	00408825 	move	s1,v0
9d00d940:	0082182b 	sltu	v1,a0,v0
9d00d944:	5060000d 	beqzl	v1,9d00d97c <__stdio_read+0xb0>
9d00d948:	00408825 	move	s1,v0
9d00d94c:	8e030008 	lw	v1,8(s0)
9d00d950:	00441023 	subu	v0,v0,a0
9d00d954:	00621021 	addu	v0,v1,v0
9d00d958:	ae020040 	sw	v0,64(s0)
9d00d95c:	8e02000c 	lw	v0,12(s0)
9d00d960:	10400006 	beqz	v0,9d00d97c <__stdio_read+0xb0>
9d00d964:	ae03003c 	sw	v1,60(s0)
9d00d968:	24620001 	addiu	v0,v1,1
9d00d96c:	ae02003c 	sw	v0,60(s0)
9d00d970:	90620000 	lbu	v0,0(v1)
9d00d974:	02519021 	addu	s2,s2,s1
9d00d978:	a242ffff 	sb	v0,-1(s2)
9d00d97c:	8fbf002c 	lw	ra,44(sp)
9d00d980:	02201025 	move	v0,s1
9d00d984:	8fb20028 	lw	s2,40(sp)
9d00d988:	8fb10024 	lw	s1,36(sp)
9d00d98c:	8fb00020 	lw	s0,32(sp)
9d00d990:	03e00008 	jr	ra
9d00d994:	27bd0030 	addiu	sp,sp,48

Disassembly of section .text.__stdio_close_rw:

9d00d998 <__stdio_close_rw>:
9d00d998:	54800003 	bnezl	a0,9d00d9a8 <__stdio_close_rw+0x10>
9d00d99c:	8c820004 	lw	v0,4(a0)
9d00d9a0:	03e00008 	jr	ra
9d00d9a4:	00001025 	move	v0,zero
9d00d9a8:	27bdffd8 	addiu	sp,sp,-40
9d00d9ac:	afb10020 	sw	s1,32(sp)
9d00d9b0:	30420020 	andi	v0,v0,0x20
9d00d9b4:	afb0001c 	sw	s0,28(sp)
9d00d9b8:	afbf0024 	sw	ra,36(sp)
9d00d9bc:	00808025 	move	s0,a0
9d00d9c0:	10400009 	beqz	v0,9d00d9e8 <__stdio_close_rw+0x50>
9d00d9c4:	00a08825 	move	s1,a1
9d00d9c8:	8c820014 	lw	v0,20(a0)
9d00d9cc:	8c830018 	lw	v1,24(a0)
9d00d9d0:	0062102b 	sltu	v0,v1,v0
9d00d9d4:	54400017 	bnezl	v0,9d00da34 <__stdio_close_rw+0x9c>
9d00d9d8:	8c82002c 	lw	v0,44(a0)
9d00d9dc:	ae000028 	sw	zero,40(s0)
9d00d9e0:	ae000018 	sw	zero,24(s0)
9d00d9e4:	ae000014 	sw	zero,20(s0)
9d00d9e8:	8e06003c 	lw	a2,60(s0)
9d00d9ec:	8e020040 	lw	v0,64(s0)
9d00d9f0:	00c2182b 	sltu	v1,a2,v0
9d00d9f4:	50600008 	beqzl	v1,9d00da18 <__stdio_close_rw+0x80>
9d00d9f8:	ae000040 	sw	zero,64(s0)
9d00d9fc:	00c23023 	subu	a2,a2,v0
9d00da00:	24020001 	li	v0,1
9d00da04:	afa20010 	sw	v0,16(sp)
9d00da08:	8e040000 	lw	a0,0(s0)
9d00da0c:	0f40408d 	jal	9d010234 <lseek>
9d00da10:	00063fc3 	sra	a3,a2,0x1f
9d00da14:	ae000040 	sw	zero,64(s0)
9d00da18:	ae00003c 	sw	zero,60(s0)
9d00da1c:	1220000b 	beqz	s1,9d00da4c <__stdio_close_rw+0xb4>
9d00da20:	00001025 	move	v0,zero
9d00da24:	0f40408f 	jal	9d01023c <close>
9d00da28:	8e040000 	lw	a0,0(s0)
9d00da2c:	10000008 	b	9d00da50 <__stdio_close_rw+0xb8>
9d00da30:	8fbf0024 	lw	ra,36(sp)
9d00da34:	00003025 	move	a2,zero
9d00da38:	0040f809 	jalr	v0
9d00da3c:	00002825 	move	a1,zero
9d00da40:	8e030014 	lw	v1,20(s0)
9d00da44:	1460ffe5 	bnez	v1,9d00d9dc <__stdio_close_rw+0x44>
9d00da48:	2402ffff 	li	v0,-1
9d00da4c:	8fbf0024 	lw	ra,36(sp)
9d00da50:	8fb10020 	lw	s1,32(sp)
9d00da54:	8fb0001c 	lw	s0,28(sp)
9d00da58:	03e00008 	jr	ra
9d00da5c:	27bd0028 	addiu	sp,sp,40

Disassembly of section .text.__fmt_u:

9d00da60 <__fmt_u>:
9d00da60:	8ca20000 	lw	v0,0(a1)
9d00da64:	8ca30004 	lw	v1,4(a1)
9d00da68:	27bdffc0 	addiu	sp,sp,-64
9d00da6c:	afb30038 	sw	s3,56(sp)
9d00da70:	afb20034 	sw	s2,52(sp)
9d00da74:	afb10030 	sw	s1,48(sp)
9d00da78:	afb0002c 	sw	s0,44(sp)
9d00da7c:	afbf003c 	sw	ra,60(sp)
9d00da80:	00808825 	move	s1,a0
9d00da84:	00a08025 	move	s0,a1
9d00da88:	8cb20008 	lw	s2,8(a1)
9d00da8c:	afa20020 	sw	v0,32(sp)
9d00da90:	04600003 	bltz	v1,9d00daa0 <__fmt_u+0x40>
9d00da94:	8cb3000c 	lw	s3,12(a1)
9d00da98:	7c020844 	ins	v0,zero,0x1,0x1
9d00da9c:	afa20020 	sw	v0,32(sp)
9d00daa0:	27a20020 	addiu	v0,sp,32
9d00daa4:	afa20018 	sw	v0,24(sp)
9d00daa8:	2402000a 	li	v0,10
9d00daac:	afa20014 	sw	v0,20(sp)
9d00dab0:	afb20010 	sw	s2,16(sp)
9d00dab4:	8cc70004 	lw	a3,4(a2)
9d00dab8:	8cc60000 	lw	a2,0(a2)
9d00dabc:	0f4031ff 	jal	9d00c7fc <__cvt_u>
9d00dac0:	02002025 	move	a0,s0
9d00dac4:	8e060010 	lw	a2,16(s0)
9d00dac8:	8fa30020 	lw	v1,32(sp)
9d00dacc:	02403825 	move	a3,s2
9d00dad0:	24c6ffff 	addiu	a2,a2,-1
9d00dad4:	afa30010 	sw	v1,16(sp)
9d00dad8:	00c23023 	subu	a2,a2,v0
9d00dadc:	02622821 	addu	a1,s3,v0
9d00dae0:	0f40348c 	jal	9d00d230 <__pad>
9d00dae4:	02202025 	move	a0,s1
9d00dae8:	8e230004 	lw	v1,4(s1)
9d00daec:	30630100 	andi	v1,v1,0x100
9d00daf0:	10600004 	beqz	v1,9d00db04 <__fmt_u+0xa4>
9d00daf4:	8fbf003c 	lw	ra,60(sp)
9d00daf8:	8e030004 	lw	v1,4(s0)
9d00dafc:	0043202a 	slt	a0,v0,v1
9d00db00:	0064100b 	movn	v0,v1,a0
9d00db04:	8fb30038 	lw	s3,56(sp)
9d00db08:	8fb20034 	lw	s2,52(sp)
9d00db0c:	8fb10030 	lw	s1,48(sp)
9d00db10:	8fb0002c 	lw	s0,44(sp)
9d00db14:	03e00008 	jr	ra
9d00db18:	27bd0040 	addiu	sp,sp,64

Disassembly of section .text.strtox:

9d00db1c <strtox>:
9d00db1c:	27bdff70 	addiu	sp,sp,-144
9d00db20:	afb20088 	sw	s2,136(sp)
9d00db24:	afb10084 	sw	s1,132(sp)
9d00db28:	afb00080 	sw	s0,128(sp)
9d00db2c:	afbf008c 	sw	ra,140(sp)
9d00db30:	00808025 	move	s0,a0
9d00db34:	00a08825 	move	s1,a1
9d00db38:	00c09025 	move	s2,a2
9d00db3c:	afa0001c 	sw	zero,28(sp)
9d00db40:	afa40054 	sw	a0,84(sp)
9d00db44:	afa40020 	sw	a0,32(sp)
9d00db48:	04800004 	bltz	a0,9d00db5c <strtox+0x40>
9d00db4c:	2402ffff 	li	v0,-1
9d00db50:	3c027fff 	lui	v0,0x7fff
9d00db54:	3442ffff 	ori	v0,v0,0xffff
9d00db58:	00821021 	addu	v0,a0,v0
9d00db5c:	00003025 	move	a2,zero
9d00db60:	00003825 	move	a3,zero
9d00db64:	27a40018 	addiu	a0,sp,24
9d00db68:	0f403d3c 	jal	9d00f4f0 <__shlim>
9d00db6c:	afa20058 	sw	v0,88(sp)
9d00db70:	8fa200a0 	lw	v0,160(sp)
9d00db74:	8fa300a4 	lw	v1,164(sp)
9d00db78:	02402825 	move	a1,s2
9d00db7c:	27a40018 	addiu	a0,sp,24
9d00db80:	afa20010 	sw	v0,16(sp)
9d00db84:	afa30014 	sw	v1,20(sp)
9d00db88:	0f401759 	jal	9d005d64 <__intscan>
9d00db8c:	24060001 	li	a2,1
9d00db90:	00402025 	move	a0,v0
9d00db94:	12200008 	beqz	s1,9d00dbb8 <strtox+0x9c>
9d00db98:	00602825 	move	a1,v1
9d00db9c:	8fa20058 	lw	v0,88(sp)
9d00dba0:	8fa30054 	lw	v1,84(sp)
9d00dba4:	00621823 	subu	v1,v1,v0
9d00dba8:	8fa20070 	lw	v0,112(sp)
9d00dbac:	00621821 	addu	v1,v1,v0
9d00dbb0:	02038021 	addu	s0,s0,v1
9d00dbb4:	ae300000 	sw	s0,0(s1)
9d00dbb8:	8fbf008c 	lw	ra,140(sp)
9d00dbbc:	00801025 	move	v0,a0
9d00dbc0:	00a01825 	move	v1,a1
9d00dbc4:	8fb20088 	lw	s2,136(sp)
9d00dbc8:	8fb10084 	lw	s1,132(sp)
9d00dbcc:	8fb00080 	lw	s0,128(sp)
9d00dbd0:	03e00008 	jr	ra
9d00dbd4:	27bd0090 	addiu	sp,sp,144

Disassembly of section .text.__skipws:

9d00dbd8 <__skipws>:
9d00dbd8:	27bdffd8 	addiu	sp,sp,-40
9d00dbdc:	afb30020 	sw	s3,32(sp)
9d00dbe0:	afb2001c 	sw	s2,28(sp)
9d00dbe4:	afb10018 	sw	s1,24(sp)
9d00dbe8:	afb00014 	sw	s0,20(sp)
9d00dbec:	afbf0024 	sw	ra,36(sp)
9d00dbf0:	00808025 	move	s0,a0
9d00dbf4:	00008825 	move	s1,zero
9d00dbf8:	2412ffff 	li	s2,-1
9d00dbfc:	24130020 	li	s3,32
9d00dc00:	8e02003c 	lw	v0,60(s0)
9d00dc04:	8e03004c 	lw	v1,76(s0)
9d00dc08:	0043182b 	sltu	v1,v0,v1
9d00dc0c:	10600018 	beqz	v1,9d00dc70 <__skipws+0x98>
9d00dc10:	24430001 	addiu	v1,v0,1
9d00dc14:	ae03003c 	sw	v1,60(s0)
9d00dc18:	90420000 	lbu	v0,0(v0)
9d00dc1c:	10530012 	beq	v0,s3,9d00dc68 <__skipws+0x90>
9d00dc20:	2442fff7 	addiu	v0,v0,-9
9d00dc24:	2c420005 	sltiu	v0,v0,5
9d00dc28:	5440fff5 	bnezl	v0,9d00dc00 <__skipws+0x28>
9d00dc2c:	26310001 	addiu	s1,s1,1
9d00dc30:	8e02004c 	lw	v0,76(s0)
9d00dc34:	10400005 	beqz	v0,9d00dc4c <__skipws+0x74>
9d00dc38:	8fbf0024 	lw	ra,36(sp)
9d00dc3c:	8e02003c 	lw	v0,60(s0)
9d00dc40:	2442ffff 	addiu	v0,v0,-1
9d00dc44:	ae02003c 	sw	v0,60(s0)
9d00dc48:	8fbf0024 	lw	ra,36(sp)
9d00dc4c:	02201025 	move	v0,s1
9d00dc50:	8fb30020 	lw	s3,32(sp)
9d00dc54:	8fb2001c 	lw	s2,28(sp)
9d00dc58:	8fb10018 	lw	s1,24(sp)
9d00dc5c:	8fb00014 	lw	s0,20(sp)
9d00dc60:	03e00008 	jr	ra
9d00dc64:	27bd0028 	addiu	sp,sp,40
9d00dc68:	1000ffe5 	b	9d00dc00 <__skipws+0x28>
9d00dc6c:	26310001 	addiu	s1,s1,1
9d00dc70:	0f403330 	jal	9d00ccc0 <__shgetc>
9d00dc74:	02002025 	move	a0,s0
9d00dc78:	1452ffe8 	bne	v0,s2,9d00dc1c <__skipws+0x44>
9d00dc7c:	8fbf0024 	lw	ra,36(sp)
9d00dc80:	1000fff3 	b	9d00dc50 <__skipws+0x78>
9d00dc84:	02201025 	move	v0,s1

Disassembly of section .text._sbrk:

9d00dc88 <_sbrk>:
9d00dc88:	27bdffe0 	addiu	sp,sp,-32
9d00dc8c:	afb00014 	sw	s0,20(sp)
9d00dc90:	3c10a001 	lui	s0,0xa001
9d00dc94:	8e023fb0 	lw	v0,16304(s0)
9d00dc98:	afb10018 	sw	s1,24(sp)
9d00dc9c:	afbf001c 	sw	ra,28(sp)
9d00dca0:	1440000f 	bnez	v0,9d00dce0 <_sbrk+0x58>
9d00dca4:	00808825 	move	s1,a0
9d00dca8:	0f403156 	jal	9d00c558 <_sbrk_init>
9d00dcac:	00000000 	nop
9d00dcb0:	8e023fb0 	lw	v0,16304(s0)
9d00dcb4:	1440000b 	bnez	v0,9d00dce4 <_sbrk+0x5c>
9d00dcb8:	00000000 	nop
9d00dcbc:	3c02a001 	lui	v0,0xa001
9d00dcc0:	2403000c 	li	v1,12
9d00dcc4:	ac433fbc 	sw	v1,16316(v0)
9d00dcc8:	2402ffff 	li	v0,-1
9d00dccc:	8fbf001c 	lw	ra,28(sp)
9d00dcd0:	8fb10018 	lw	s1,24(sp)
9d00dcd4:	8fb00014 	lw	s0,20(sp)
9d00dcd8:	03e00008 	jr	ra
9d00dcdc:	27bd0020 	addiu	sp,sp,32
9d00dce0:	8e023fb0 	lw	v0,16304(s0)
9d00dce4:	1a20000a 	blez	s1,9d00dd10 <_sbrk+0x88>
9d00dce8:	00511821 	addu	v1,v0,s1
9d00dcec:	0062202b 	sltu	a0,v1,v0
9d00dcf0:	1480fff2 	bnez	a0,9d00dcbc <_sbrk+0x34>
9d00dcf4:	3c04a001 	lui	a0,0xa001
9d00dcf8:	8c843fb4 	lw	a0,16308(a0)
9d00dcfc:	0083202b 	sltu	a0,a0,v1
9d00dd00:	5480ffef 	bnezl	a0,9d00dcc0 <_sbrk+0x38>
9d00dd04:	3c02a001 	lui	v0,0xa001
9d00dd08:	1000fff0 	b	9d00dccc <_sbrk+0x44>
9d00dd0c:	ae033fb0 	sw	v1,16304(s0)
9d00dd10:	0043202b 	sltu	a0,v0,v1
9d00dd14:	14800005 	bnez	a0,9d00dd2c <_sbrk+0xa4>
9d00dd18:	3c04a001 	lui	a0,0xa001
9d00dd1c:	8c843fb8 	lw	a0,16312(a0)
9d00dd20:	0064202b 	sltu	a0,v1,a0
9d00dd24:	5080ffe9 	beqzl	a0,9d00dccc <_sbrk+0x44>
9d00dd28:	ae033fb0 	sw	v1,16304(s0)
9d00dd2c:	3c02a001 	lui	v0,0xa001
9d00dd30:	1000ffe4 	b	9d00dcc4 <_sbrk+0x3c>
9d00dd34:	24030016 	li	v1,22

Disassembly of section .text.unbin:

9d00dd38 <unbin>:
9d00dd38:	27bdffe0 	addiu	sp,sp,-32
9d00dd3c:	afb20018 	sw	s2,24(sp)
9d00dd40:	afb10014 	sw	s1,20(sp)
9d00dd44:	8c92000c 	lw	s2,12(a0)
9d00dd48:	8c910008 	lw	s1,8(a0)
9d00dd4c:	afb00010 	sw	s0,16(sp)
9d00dd50:	afbf001c 	sw	ra,28(sp)
9d00dd54:	16510013 	bne	s2,s1,9d00dda4 <unbin+0x6c>
9d00dd58:	00808025 	move	s0,a0
9d00dd5c:	00a03025 	move	a2,a1
9d00dd60:	24040001 	li	a0,1
9d00dd64:	0f403e69 	jal	9d00f9a4 <__ashldi3>
9d00dd68:	00002825 	move	a1,zero
9d00dd6c:	00031827 	nor	v1,zero,v1
9d00dd70:	10400005 	beqz	v0,9d00dd88 <unbin+0x50>
9d00dd74:	00022827 	nor	a1,zero,v0
9d00dd78:	3c04a001 	lui	a0,0xa001
9d00dd7c:	8c823c70 	lw	v0,15472(a0)
9d00dd80:	00451024 	and	v0,v0,a1
9d00dd84:	ac823c70 	sw	v0,15472(a0)
9d00dd88:	2402ffff 	li	v0,-1
9d00dd8c:	10620005 	beq	v1,v0,9d00dda4 <unbin+0x6c>
9d00dd90:	3c02a001 	lui	v0,0xa001
9d00dd94:	24423c70 	addiu	v0,v0,15472
9d00dd98:	8c440004 	lw	a0,4(v0)
9d00dd9c:	00641824 	and	v1,v1,a0
9d00dda0:	ac430004 	sw	v1,4(v0)
9d00dda4:	8e020004 	lw	v0,4(s0)
9d00dda8:	ae510008 	sw	s1,8(s2)
9d00ddac:	ae32000c 	sw	s2,12(s1)
9d00ddb0:	34430001 	ori	v1,v0,0x1
9d00ddb4:	7c020004 	ins	v0,zero,0x0,0x1
9d00ddb8:	ae030004 	sw	v1,4(s0)
9d00ddbc:	02028021 	addu	s0,s0,v0
9d00ddc0:	8e020000 	lw	v0,0(s0)
9d00ddc4:	8fbf001c 	lw	ra,28(sp)
9d00ddc8:	8fb20018 	lw	s2,24(sp)
9d00ddcc:	34420001 	ori	v0,v0,0x1
9d00ddd0:	ae020000 	sw	v0,0(s0)
9d00ddd4:	8fb10014 	lw	s1,20(sp)
9d00ddd8:	8fb00010 	lw	s0,16(sp)
9d00dddc:	03e00008 	jr	ra
9d00dde0:	27bd0020 	addiu	sp,sp,32

Disassembly of section .text.fptodp:

9d00dde4 <__extendsfdf2>:
9d00dde4:	00043dc2 30e700ff 3c018000 00813024     .=.....0...<$0..
9d00ddf4:	24e9ffff 2d2100fe 1020000d 00000000     ...$..!-.. .....

9d00de04 <Glab1>:
9d00de04:	24e70380 	addiu	a3,a3,896
9d00de08:	00044a40 	sll	t1,a0,0x9
9d00de0c:	00094b02 	srl	t1,t1,0xc
9d00de10:	00c93025 	or	a2,a2,t1
9d00de14:	00042f40 	sll	a1,a0,0x1d

9d00de18 <Gret>:
9d00de18:	00074d00 	sll	t1,a3,0x14
9d00de1c:	00c93025 	or	a2,a2,t1
9d00de20:	00051025 	or	v0,zero,a1
9d00de24:	00061825 	or	v1,zero,a2

9d00de28 <G999>:
9d00de28:	03e00008 	jr	ra
9d00de2c:	00000000 	nop
9d00de30:	00000000 	nop

9d00de34 <Gspec>:
9d00de34:	24050000 	li	a1,0
9d00de38:	00842021 	addu	a0,a0,a0
9d00de3c:	1080fff6 	beqz	a0,9d00de18 <Gret>
9d00de40:	00000000 	nop
9d00de44:	14e00009 	bnez	a3,9d00de6c <i42>
9d00de48:	00000000 	nop

9d00de4c <b43>:
9d00de4c:	24e7ffff 	addiu	a3,a3,-1
9d00de50:	00842021 	addu	a0,a0,a0
9d00de54:	3c010080 	lui	at,0x80
9d00de58:	0081082b 	sltu	at,a0,at
9d00de5c:	1420fffb 	bnez	at,9d00de4c <b43>
9d00de60:	00000000 	nop
9d00de64:	1000ffe7 	b	9d00de04 <Glab1>
9d00de68:	00000000 	nop

9d00de6c <i42>:
9d00de6c:	240707ff 	li	a3,2047
9d00de70:	3c01ff00 	lui	at,0xff00
9d00de74:	34210001 	ori	at,at,0x1
9d00de78:	0081082b 	sltu	at,a0,at
9d00de7c:	1420ffe6 	bnez	at,9d00de18 <Gret>
9d00de80:	00000000 	nop
9d00de84:	1000ffe4 	b	9d00de18 <Gret>
9d00de88:	3c06fff8 	lui	a2,0xfff8
9d00de8c:	00000000 	nop

Disassembly of section .text.__fmt_s:

9d00de90 <__fmt_s>:
9d00de90:	3c036c75 	lui	v1,0x6c75
9d00de94:	27bdffc8 	addiu	sp,sp,-56
9d00de98:	24636e28 	addiu	v1,v1,28200
9d00de9c:	afa30018 	sw	v1,24(sp)
9d00dea0:	2403296c 	li	v1,10604
9d00dea4:	afb40030 	sw	s4,48(sp)
9d00dea8:	afb3002c 	sw	s3,44(sp)
9d00deac:	afb20028 	sw	s2,40(sp)
9d00deb0:	afb10024 	sw	s1,36(sp)
9d00deb4:	afb00020 	sw	s0,32(sp)
9d00deb8:	afbf0034 	sw	ra,52(sp)
9d00debc:	00809025 	move	s2,a0
9d00dec0:	00e01025 	move	v0,a3
9d00dec4:	a7a3001c 	sh	v1,28(sp)
9d00dec8:	a3a0001e 	sb	zero,30(sp)
9d00decc:	8cb10004 	lw	s1,4(a1)
9d00ded0:	8cb30008 	lw	s3,8(a1)
9d00ded4:	8cb40000 	lw	s4,0(a1)
9d00ded8:	10c00002 	beqz	a2,9d00dee4 <__fmt_s+0x54>
9d00dedc:	27b00018 	addiu	s0,sp,24
9d00dee0:	00c08025 	move	s0,a2
9d00dee4:	14400003 	bnez	v0,9d00def4 <__fmt_s+0x64>
9d00dee8:	00000000 	nop
9d00deec:	0f404054 	jal	9d010150 <strlen>
9d00def0:	02002025 	move	a0,s0
9d00def4:	06200002 	bltz	s1,9d00df00 <__fmt_s+0x70>
9d00def8:	0222182b 	sltu	v1,s1,v0
9d00defc:	0223100b 	movn	v0,s1,v1
9d00df00:	afb40010 	sw	s4,16(sp)
9d00df04:	02603825 	move	a3,s3
9d00df08:	02002825 	move	a1,s0
9d00df0c:	02402025 	move	a0,s2
9d00df10:	0f40348c 	jal	9d00d230 <__pad>
9d00df14:	00403025 	move	a2,v0
9d00df18:	8fbf0034 	lw	ra,52(sp)
9d00df1c:	8fb40030 	lw	s4,48(sp)
9d00df20:	8fb3002c 	lw	s3,44(sp)
9d00df24:	8fb20028 	lw	s2,40(sp)
9d00df28:	8fb10024 	lw	s1,36(sp)
9d00df2c:	8fb00020 	lw	s0,32(sp)
9d00df30:	03e00008 	jr	ra
9d00df34:	27bd0038 	addiu	sp,sp,56

Disassembly of section .text.strtox:

9d00df38 <strtox>:
9d00df38:	27bdff78 	addiu	sp,sp,-136
9d00df3c:	afb20080 	sw	s2,128(sp)
9d00df40:	afb1007c 	sw	s1,124(sp)
9d00df44:	afb00078 	sw	s0,120(sp)
9d00df48:	00c09025 	move	s2,a2
9d00df4c:	00808025 	move	s0,a0
9d00df50:	24060068 	li	a2,104
9d00df54:	27a40010 	addiu	a0,sp,16
9d00df58:	00a08825 	move	s1,a1
9d00df5c:	afbf0084 	sw	ra,132(sp)
9d00df60:	0f403f85 	jal	9d00fe14 <memset>
9d00df64:	00002825 	move	a1,zero
9d00df68:	2402ffff 	li	v0,-1
9d00df6c:	00003025 	move	a2,zero
9d00df70:	00003825 	move	a3,zero
9d00df74:	27a40010 	addiu	a0,sp,16
9d00df78:	afa20050 	sw	v0,80(sp)
9d00df7c:	afb00018 	sw	s0,24(sp)
9d00df80:	0f403d3c 	jal	9d00f4f0 <__shlim>
9d00df84:	afb0004c 	sw	s0,76(sp)
9d00df88:	02402825 	move	a1,s2
9d00df8c:	27a40010 	addiu	a0,sp,16
9d00df90:	0f400b6c 	jal	9d002db0 <__floatscan>
9d00df94:	24060001 	li	a2,1
9d00df98:	00402025 	move	a0,v0
9d00df9c:	12200008 	beqz	s1,9d00dfc0 <strtox+0x88>
9d00dfa0:	00602825 	move	a1,v1
9d00dfa4:	8fa20050 	lw	v0,80(sp)
9d00dfa8:	8fa3004c 	lw	v1,76(sp)
9d00dfac:	00621823 	subu	v1,v1,v0
9d00dfb0:	8fa20068 	lw	v0,104(sp)
9d00dfb4:	00621821 	addu	v1,v1,v0
9d00dfb8:	02038021 	addu	s0,s0,v1
9d00dfbc:	ae300000 	sw	s0,0(s1)
9d00dfc0:	8fbf0084 	lw	ra,132(sp)
9d00dfc4:	00801025 	move	v0,a0
9d00dfc8:	00a01825 	move	v1,a1
9d00dfcc:	8fb20080 	lw	s2,128(sp)
9d00dfd0:	8fb1007c 	lw	s1,124(sp)
9d00dfd4:	8fb00078 	lw	s0,120(sp)
9d00dfd8:	03e00008 	jr	ra
9d00dfdc:	27bd0088 	addiu	sp,sp,136

Disassembly of section .text.__push_float:

9d00dfe0 <__push_float>:
9d00dfe0:	24020081 	li	v0,129
9d00dfe4:	50a20012 	beql	a1,v0,9d00e030 <__push_float+0x50>
9d00dfe8:	8cc20000 	lw	v0,0(a2)
9d00dfec:	24020083 	li	v0,131
9d00dff0:	50a20006 	beql	a1,v0,9d00e00c <__push_float+0x2c>
9d00dff4:	8cc20000 	lw	v0,0(a2)
9d00dff8:	24020080 	li	v0,128
9d00dffc:	10a20012 	beq	a1,v0,9d00e048 <__push_float+0x68>
9d00e000:	00001025 	move	v0,zero
9d00e004:	03e00008 	jr	ra
9d00e008:	00000000 	nop
9d00e00c:	24430004 	addiu	v1,v0,4
9d00e010:	acc30000 	sw	v1,0(a2)
9d00e014:	8c850004 	lw	a1,4(a0)
9d00e018:	8c420000 	lw	v0,0(v0)
9d00e01c:	8c840000 	lw	a0,0(a0)
9d00e020:	ac440000 	sw	a0,0(v0)
9d00e024:	ac450004 	sw	a1,4(v0)
9d00e028:	03e00008 	jr	ra
9d00e02c:	24020001 	li	v0,1
9d00e030:	24430004 	addiu	v1,v0,4
9d00e034:	acc30000 	sw	v1,0(a2)
9d00e038:	8c850004 	lw	a1,4(a0)
9d00e03c:	8c420000 	lw	v0,0(v0)
9d00e040:	1000fff7 	b	9d00e020 <__push_float+0x40>
9d00e044:	8c840000 	lw	a0,0(a0)
9d00e048:	8cc20000 	lw	v0,0(a2)
9d00e04c:	8c850004 	lw	a1,4(a0)
9d00e050:	8c840000 	lw	a0,0(a0)
9d00e054:	24430004 	addiu	v1,v0,4
9d00e058:	27bdffe8 	addiu	sp,sp,-24
9d00e05c:	acc30000 	sw	v1,0(a2)
9d00e060:	afb00010 	sw	s0,16(sp)
9d00e064:	afbf0014 	sw	ra,20(sp)
9d00e068:	0f4034cd 	jal	9d00d334 <__truncdfsf2>
9d00e06c:	8c500000 	lw	s0,0(v0)
9d00e070:	8fbf0014 	lw	ra,20(sp)
9d00e074:	ae020000 	sw	v0,0(s0)
9d00e078:	24020001 	li	v0,1
9d00e07c:	8fb00010 	lw	s0,16(sp)
9d00e080:	03e00008 	jr	ra
9d00e084:	27bd0018 	addiu	sp,sp,24

Disassembly of section .text.normalize:

9d00e088 <normalize>:
9d00e088:	27bdffe0 	addiu	sp,sp,-32
9d00e08c:	afb00014 	sw	s0,20(sp)
9d00e090:	00808025 	move	s0,a0
9d00e094:	00072502 	srl	a0,a3,0x14
9d00e098:	afb10018 	sw	s1,24(sp)
9d00e09c:	30910800 	andi	s1,a0,0x800
9d00e0a0:	308407ff 	andi	a0,a0,0x7ff
9d00e0a4:	afbf001c 	sw	ra,28(sp)
9d00e0a8:	00c01025 	move	v0,a2
9d00e0ac:	1480000e 	bnez	a0,9d00e0e8 <normalize+0x60>
9d00e0b0:	00e02825 	move	a1,a3
9d00e0b4:	3c029d00 	lui	v0,0x9d00
9d00e0b8:	00c04025 	move	t0,a2
9d00e0bc:	00e01825 	move	v1,a3
9d00e0c0:	8c461fc8 	lw	a2,8136(v0)
9d00e0c4:	8c471fcc 	lw	a3,8140(v0)
9d00e0c8:	01002025 	move	a0,t0
9d00e0cc:	0f402611 	jal	9d009844 <__muldf3>
9d00e0d0:	00602825 	move	a1,v1
9d00e0d4:	00602825 	move	a1,v1
9d00e0d8:	7c635500 	ext	v1,v1,0x14,0xb
9d00e0dc:	10600002 	beqz	v1,9d00e0e8 <normalize+0x60>
9d00e0e0:	24040800 	li	a0,2048
9d00e0e4:	2464ffc1 	addiu	a0,v1,-63
9d00e0e8:	000237c2 	srl	a2,v0,0x1f
9d00e0ec:	00051840 	sll	v1,a1,0x1
9d00e0f0:	00021040 	sll	v0,v0,0x1
9d00e0f4:	00c31825 	or	v1,a2,v1
9d00e0f8:	8fbf001c 	lw	ra,28(sp)
9d00e0fc:	ae020000 	sw	v0,0(s0)
9d00e100:	7c63a000 	ext	v1,v1,0x0,0x15
9d00e104:	3c020020 	lui	v0,0x20
9d00e108:	00431825 	or	v1,v0,v1
9d00e10c:	2484fbcc 	addiu	a0,a0,-1076
9d00e110:	ae11000c 	sw	s1,12(s0)
9d00e114:	02001025 	move	v0,s0
9d00e118:	ae030004 	sw	v1,4(s0)
9d00e11c:	ae040008 	sw	a0,8(s0)
9d00e120:	8fb10018 	lw	s1,24(sp)
9d00e124:	8fb00014 	lw	s0,20(sp)
9d00e128:	03e00008 	jr	ra
9d00e12c:	27bd0020 	addiu	sp,sp,32

Disassembly of section .text.__string_read:

9d00e130 <__string_read>:
9d00e130:	27bdffd0 	addiu	sp,sp,-48
9d00e134:	afb00014 	sw	s0,20(sp)
9d00e138:	8c900038 	lw	s0,56(a0)
9d00e13c:	afb2001c 	sw	s2,28(sp)
9d00e140:	24d20100 	addiu	s2,a2,256
9d00e144:	afb50028 	sw	s5,40(sp)
9d00e148:	afb40024 	sw	s4,36(sp)
9d00e14c:	afb30020 	sw	s3,32(sp)
9d00e150:	00a0a825 	move	s5,a1
9d00e154:	00809825 	move	s3,a0
9d00e158:	00c0a025 	move	s4,a2
9d00e15c:	00002825 	move	a1,zero
9d00e160:	02403025 	move	a2,s2
9d00e164:	02002025 	move	a0,s0
9d00e168:	afbf002c 	sw	ra,44(sp)
9d00e16c:	0f403eba 	jal	9d00fae8 <memchr>
9d00e170:	afb10018 	sw	s1,24(sp)
9d00e174:	54400001 	bnezl	v0,9d00e17c <__string_read+0x4c>
9d00e178:	00509023 	subu	s2,v0,s0
9d00e17c:	0292882b 	sltu	s1,s4,s2
9d00e180:	0251a00a 	movz	s4,s2,s1
9d00e184:	02803025 	move	a2,s4
9d00e188:	02002825 	move	a1,s0
9d00e18c:	0f403efe 	jal	9d00fbf8 <memcpy>
9d00e190:	02a02025 	move	a0,s5
9d00e194:	8fbf002c 	lw	ra,44(sp)
9d00e198:	02141021 	addu	v0,s0,s4
9d00e19c:	02128021 	addu	s0,s0,s2
9d00e1a0:	ae62003c 	sw	v0,60(s3)
9d00e1a4:	ae700040 	sw	s0,64(s3)
9d00e1a8:	ae700038 	sw	s0,56(s3)
9d00e1ac:	02801025 	move	v0,s4
9d00e1b0:	8fb50028 	lw	s5,40(sp)
9d00e1b4:	8fb40024 	lw	s4,36(sp)
9d00e1b8:	8fb30020 	lw	s3,32(sp)
9d00e1bc:	8fb2001c 	lw	s2,28(sp)
9d00e1c0:	8fb10018 	lw	s1,24(sp)
9d00e1c4:	8fb00014 	lw	s0,20(sp)
9d00e1c8:	03e00008 	jr	ra
9d00e1cc:	27bd0030 	addiu	sp,sp,48

Disassembly of section .text.__stdio_seek:

9d00e1d0 <__stdio_seek>:
9d00e1d0:	8c820004 	lw	v0,4(a0)
9d00e1d4:	27bdffd8 	addiu	sp,sp,-40
9d00e1d8:	afb30020 	sw	s3,32(sp)
9d00e1dc:	30420020 	andi	v0,v0,0x20
9d00e1e0:	afb2001c 	sw	s2,28(sp)
9d00e1e4:	afb00018 	sw	s0,24(sp)
9d00e1e8:	afbf0024 	sw	ra,36(sp)
9d00e1ec:	00808025 	move	s0,a0
9d00e1f0:	00c09025 	move	s2,a2
9d00e1f4:	10400009 	beqz	v0,9d00e21c <__stdio_seek+0x4c>
9d00e1f8:	00e09825 	move	s3,a3
9d00e1fc:	8c820014 	lw	v0,20(a0)
9d00e200:	8c830018 	lw	v1,24(a0)
9d00e204:	0062102b 	sltu	v0,v1,v0
9d00e208:	5440000c 	bnezl	v0,9d00e23c <__stdio_seek+0x6c>
9d00e20c:	8c82002c 	lw	v0,44(a0)
9d00e210:	ae000028 	sw	zero,40(s0)
9d00e214:	ae000018 	sw	zero,24(s0)
9d00e218:	ae000014 	sw	zero,20(s0)
9d00e21c:	8fa20038 	lw	v0,56(sp)
9d00e220:	02403025 	move	a2,s2
9d00e224:	02603825 	move	a3,s3
9d00e228:	afa20010 	sw	v0,16(sp)
9d00e22c:	0f403c94 	jal	9d00f250 <__stdio_seek_unbuffered>
9d00e230:	02002025 	move	a0,s0
9d00e234:	10000009 	b	9d00e25c <__stdio_seek+0x8c>
9d00e238:	8fbf0024 	lw	ra,36(sp)
9d00e23c:	00003025 	move	a2,zero
9d00e240:	0040f809 	jalr	v0
9d00e244:	00002825 	move	a1,zero
9d00e248:	8e040014 	lw	a0,20(s0)
9d00e24c:	2402ffff 	li	v0,-1
9d00e250:	1480ffef 	bnez	a0,9d00e210 <__stdio_seek+0x40>
9d00e254:	2403ffff 	li	v1,-1
9d00e258:	8fbf0024 	lw	ra,36(sp)
9d00e25c:	8fb30020 	lw	s3,32(sp)
9d00e260:	8fb2001c 	lw	s2,28(sp)
9d00e264:	8fb00018 	lw	s0,24(sp)
9d00e268:	03e00008 	jr	ra
9d00e26c:	27bd0028 	addiu	sp,sp,40

Disassembly of section .text.fpcmp:

9d00e270 <__eqsf2>:
9d00e270:	2408fffe 00043040 00053840 00c74825     ...$@0..@8..%H..
9d00e280:	1120001b 00000000 3c01ff00 34210001     .. ........<..!4
9d00e290:	00c1082b 1020001a 00000000 3c01ff00     +..... ........<
9d00e2a0:	34210001 00e1082b 10200015 00000000     ..!4+..... .....
9d00e2b0:	04810002 00063042 00063023              ....B0..#0..

9d00e2bc <i48>:
9d00e2bc:	04a10002 	bgez	a1,9d00e2c8 <i49>
9d00e2c0:	00073842 	srl	a3,a3,0x1
9d00e2c4:	00073823 	negu	a3,a3

9d00e2c8 <i49>:
9d00e2c8:	00c7082a 	slt	at,a2,a3
9d00e2cc:	10200003 	beqz	at,9d00e2dc <i50>
9d00e2d0:	00000000 	nop
9d00e2d4:	10000007 	b	9d00e2f4 <J999>
9d00e2d8:	2402ffff 	li	v0,-1

9d00e2dc <i50>:
9d00e2dc:	00e6082a 	slt	at,a3,a2
9d00e2e0:	10200003 	beqz	at,9d00e2f0 <Jequ>
9d00e2e4:	00000000 	nop
9d00e2e8:	10000002 	b	9d00e2f4 <J999>
9d00e2ec:	24020001 	li	v0,1

9d00e2f0 <Jequ>:
9d00e2f0:	24020000 	li	v0,0

9d00e2f4 <J999>:
9d00e2f4:	03e00008 	jr	ra
9d00e2f8:	00000000 	nop
9d00e2fc:	00000000 	nop

9d00e300 <Jnan>:
9d00e300:	1000fffc 	b	9d00e2f4 <J999>
9d00e304:	00081025 	or	v0,zero,t0
9d00e308:	00000000 	nop

Disassembly of section .text.fpcmplt:

9d00e30c <fpcmplt>:
9d00e30c:	2408fffe 	li	t0,-2
9d00e310:	00043040 	sll	a2,a0,0x1
9d00e314:	00053840 	sll	a3,a1,0x1
9d00e318:	00c74825 	or	t1,a2,a3
9d00e31c:	1120001b 	beqz	t1,9d00e38c <fpcmplt+0x80>
9d00e320:	00000000 	nop
9d00e324:	3c01ff00 	lui	at,0xff00
9d00e328:	34210001 	ori	at,at,0x1
9d00e32c:	00c1082b 	sltu	at,a2,at
9d00e330:	1020001a 	beqz	at,9d00e39c <fpcmplt+0x90>
9d00e334:	00000000 	nop
9d00e338:	3c01ff00 	lui	at,0xff00
9d00e33c:	34210001 	ori	at,at,0x1
9d00e340:	00e1082b 	sltu	at,a3,at
9d00e344:	10200015 	beqz	at,9d00e39c <fpcmplt+0x90>
9d00e348:	00000000 	nop
9d00e34c:	04810002 	bgez	a0,9d00e358 <fpcmplt+0x4c>
9d00e350:	00063042 	srl	a2,a2,0x1
9d00e354:	00063023 	negu	a2,a2
9d00e358:	04a10002 	bgez	a1,9d00e364 <fpcmplt+0x58>
9d00e35c:	00073842 	srl	a3,a3,0x1
9d00e360:	00073823 	negu	a3,a3
9d00e364:	00c7082a 	slt	at,a2,a3
9d00e368:	10200003 	beqz	at,9d00e378 <fpcmplt+0x6c>
9d00e36c:	00000000 	nop
9d00e370:	10000007 	b	9d00e390 <fpcmplt+0x84>
9d00e374:	2402ffff 	li	v0,-1
9d00e378:	00e6082a 	slt	at,a3,a2
9d00e37c:	10200003 	beqz	at,9d00e38c <fpcmplt+0x80>
9d00e380:	00000000 	nop
9d00e384:	10000002 	b	9d00e390 <fpcmplt+0x84>
9d00e388:	24020001 	li	v0,1
9d00e38c:	24020000 	li	v0,0
9d00e390:	03e00008 	jr	ra
9d00e394:	00000000 	nop
9d00e398:	00000000 	nop
9d00e39c:	1000fffc 	b	9d00e390 <fpcmplt+0x84>
9d00e3a0:	34020001 	li	v0,0x1
9d00e3a4:	00000000 	nop

Disassembly of section .text.__stdio_close:

9d00e3a8 <__stdio_close>:
9d00e3a8:	54800003 	bnezl	a0,9d00e3b8 <__stdio_close+0x10>
9d00e3ac:	8c820004 	lw	v0,4(a0)
9d00e3b0:	03e00008 	jr	ra
9d00e3b4:	00001025 	move	v0,zero
9d00e3b8:	27bdffe0 	addiu	sp,sp,-32
9d00e3bc:	afb10018 	sw	s1,24(sp)
9d00e3c0:	30420020 	andi	v0,v0,0x20
9d00e3c4:	afb00014 	sw	s0,20(sp)
9d00e3c8:	afbf001c 	sw	ra,28(sp)
9d00e3cc:	00808025 	move	s0,a0
9d00e3d0:	1440000a 	bnez	v0,9d00e3fc <__stdio_close+0x54>
9d00e3d4:	00a08825 	move	s1,a1
9d00e3d8:	ae000028 	sw	zero,40(s0)
9d00e3dc:	ae000018 	sw	zero,24(s0)
9d00e3e0:	ae000014 	sw	zero,20(s0)
9d00e3e4:	12200011 	beqz	s1,9d00e42c <__stdio_close+0x84>
9d00e3e8:	00001025 	move	v0,zero
9d00e3ec:	0f40408f 	jal	9d01023c <close>
9d00e3f0:	8e040000 	lw	a0,0(s0)
9d00e3f4:	1000000e 	b	9d00e430 <__stdio_close+0x88>
9d00e3f8:	8fbf001c 	lw	ra,28(sp)
9d00e3fc:	8c820014 	lw	v0,20(a0)
9d00e400:	8c830018 	lw	v1,24(a0)
9d00e404:	0062102b 	sltu	v0,v1,v0
9d00e408:	5040fff4 	beqzl	v0,9d00e3dc <__stdio_close+0x34>
9d00e40c:	ae000028 	sw	zero,40(s0)
9d00e410:	8c82002c 	lw	v0,44(a0)
9d00e414:	00003025 	move	a2,zero
9d00e418:	0040f809 	jalr	v0
9d00e41c:	00002825 	move	a1,zero
9d00e420:	8e030014 	lw	v1,20(s0)
9d00e424:	1460ffec 	bnez	v1,9d00e3d8 <__stdio_close+0x30>
9d00e428:	2402ffff 	li	v0,-1
9d00e42c:	8fbf001c 	lw	ra,28(sp)
9d00e430:	8fb10018 	lw	s1,24(sp)
9d00e434:	8fb00014 	lw	s0,20(sp)
9d00e438:	03e00008 	jr	ra
9d00e43c:	27bd0020 	addiu	sp,sp,32

Disassembly of section .text.__overflow:

9d00e440 <__overflow>:
9d00e440:	8c820028 	lw	v0,40(a0)
9d00e444:	27bdffe0 	addiu	sp,sp,-32
9d00e448:	afb00018 	sw	s0,24(sp)
9d00e44c:	afbf001c 	sw	ra,28(sp)
9d00e450:	00808025 	move	s0,a0
9d00e454:	10400010 	beqz	v0,9d00e498 <__overflow+0x58>
9d00e458:	a3a50010 	sb	a1,16(sp)
9d00e45c:	8e030014 	lw	v1,20(s0)
9d00e460:	8e020028 	lw	v0,40(s0)
9d00e464:	0062102b 	sltu	v0,v1,v0
9d00e468:	14400014 	bnez	v0,9d00e4bc <__overflow+0x7c>
9d00e46c:	93a20010 	lbu	v0,16(sp)
9d00e470:	8e02002c 	lw	v0,44(s0)
9d00e474:	24060001 	li	a2,1
9d00e478:	27a50010 	addiu	a1,sp,16
9d00e47c:	0040f809 	jalr	v0
9d00e480:	02002025 	move	a0,s0
9d00e484:	24030001 	li	v1,1
9d00e488:	14430007 	bne	v0,v1,9d00e4a8 <__overflow+0x68>
9d00e48c:	93a20010 	lbu	v0,16(sp)
9d00e490:	10000007 	b	9d00e4b0 <__overflow+0x70>
9d00e494:	8fbf001c 	lw	ra,28(sp)
9d00e498:	0f403dde 	jal	9d00f778 <__towrite>
9d00e49c:	00000000 	nop
9d00e4a0:	5040ffef 	beqzl	v0,9d00e460 <__overflow+0x20>
9d00e4a4:	8e030014 	lw	v1,20(s0)
9d00e4a8:	2402ffff 	li	v0,-1
9d00e4ac:	8fbf001c 	lw	ra,28(sp)
9d00e4b0:	8fb00018 	lw	s0,24(sp)
9d00e4b4:	03e00008 	jr	ra
9d00e4b8:	27bd0020 	addiu	sp,sp,32
9d00e4bc:	82040034 	lb	a0,52(s0)
9d00e4c0:	5044ffec 	beql	v0,a0,9d00e474 <__overflow+0x34>
9d00e4c4:	8e02002c 	lw	v0,44(s0)
9d00e4c8:	24640001 	addiu	a0,v1,1
9d00e4cc:	ae040014 	sw	a0,20(s0)
9d00e4d0:	1000fff6 	b	9d00e4ac <__overflow+0x6c>
9d00e4d4:	a0620000 	sb	v0,0(v1)

Disassembly of section .text.__toread:

9d00e4d8 <__toread>:
9d00e4d8:	27bdffe8 	addiu	sp,sp,-24
9d00e4dc:	afb00010 	sw	s0,16(sp)
9d00e4e0:	afbf0014 	sw	ra,20(sp)
9d00e4e4:	80820048 	lb	v0,72(a0)
9d00e4e8:	2443ffff 	addiu	v1,v0,-1
9d00e4ec:	00431025 	or	v0,v0,v1
9d00e4f0:	a0820048 	sb	v0,72(a0)
9d00e4f4:	8c830018 	lw	v1,24(a0)
9d00e4f8:	8c820014 	lw	v0,20(a0)
9d00e4fc:	0062102b 	sltu	v0,v1,v0
9d00e500:	10400005 	beqz	v0,9d00e518 <__toread+0x40>
9d00e504:	00808025 	move	s0,a0
9d00e508:	8c82002c 	lw	v0,44(a0)
9d00e50c:	00003025 	move	a2,zero
9d00e510:	0040f809 	jalr	v0
9d00e514:	00002825 	move	a1,zero
9d00e518:	8e020004 	lw	v0,4(s0)
9d00e51c:	ae000028 	sw	zero,40(s0)
9d00e520:	ae000018 	sw	zero,24(s0)
9d00e524:	30430002 	andi	v1,v0,0x2
9d00e528:	10600008 	beqz	v1,9d00e54c <__toread+0x74>
9d00e52c:	ae000014 	sw	zero,20(s0)
9d00e530:	34420010 	ori	v0,v0,0x10
9d00e534:	ae020004 	sw	v0,4(s0)
9d00e538:	2402ffff 	li	v0,-1
9d00e53c:	8fbf0014 	lw	ra,20(sp)
9d00e540:	8fb00010 	lw	s0,16(sp)
9d00e544:	03e00008 	jr	ra
9d00e548:	27bd0018 	addiu	sp,sp,24
9d00e54c:	8e030008 	lw	v1,8(s0)
9d00e550:	8e04000c 	lw	a0,12(s0)
9d00e554:	7c4200c0 	ext	v0,v0,0x3,0x1
9d00e558:	00021023 	negu	v0,v0
9d00e55c:	00641821 	addu	v1,v1,a0
9d00e560:	ae030040 	sw	v1,64(s0)
9d00e564:	1000fff5 	b	9d00e53c <__toread+0x64>
9d00e568:	ae03003c 	sw	v1,60(s0)

Disassembly of section .text.dptoli:

9d00e56c <__fixdfsi>:
9d00e56c:	00053ac0 00045542 00ea3825 3c018000     .:..BU..%8.....<
9d00e57c:	00e13825 00055040 000a5542 2406041e     %8..@P..BU.....$
9d00e58c:	00ca3023 18c0000c 00000000 2cc10020     #0.......... ..,
9d00e59c:	14200002 00000000 34070000              .. ........4

9d00e5a8 <L42>:
9d00e5a8:	04a10002 	bgez	a1,9d00e5b4 <i50>
9d00e5ac:	00c73806 	srlv	a3,a3,a2
9d00e5b0:	00073823 	negu	a3,a3

9d00e5b4 <i50>:
9d00e5b4:	00071025 	or	v0,zero,a3

9d00e5b8 <I999>:
9d00e5b8:	03e00008 	jr	ra
9d00e5bc:	00000000 	nop
9d00e5c0:	00000000 	nop

9d00e5c4 <Inaninf>:
9d00e5c4:	10800002 	beqz	a0,9d00e5d0 <i51>
9d00e5c8:	00000000 	nop
9d00e5cc:	34a50001 	ori	a1,a1,0x1

9d00e5d0 <i51>:
9d00e5d0:	3c017ff0 	lui	at,0x7ff0
9d00e5d4:	34210001 	ori	at,at,0x1
9d00e5d8:	00a1082b 	sltu	at,a1,at
9d00e5dc:	14200003 	bnez	at,9d00e5ec <i52>
9d00e5e0:	00000000 	nop
9d00e5e4:	1000fff4 	b	9d00e5b8 <I999>
9d00e5e8:	3c028000 	lui	v0,0x8000

9d00e5ec <i52>:
9d00e5ec:	3c027fff 	lui	v0,0x7fff
9d00e5f0:	1000fff1 	b	9d00e5b8 <I999>
9d00e5f4:	3442ffff 	ori	v0,v0,0xffff
9d00e5f8:	00000000 	nop

Disassembly of section .text:

9d00e5fc <__pic32_data_init>:
9d00e5fc:	03e01825 	move	v1,ra

9d00e600 <_dinit_init>:
9d00e600:	3c089d01 	lui	t0,0x9d01
9d00e604:	2508b514 	addiu	t0,t0,-19180
9d00e608:	1100001b 	beqz	t0,9d00e678 <_dinit_end+0x18>
9d00e60c:	00000000 	nop
9d00e610:	8d090000 	lw	t1,0(t0)
9d00e614:	11200018 	beqz	t1,9d00e678 <_dinit_end+0x18>
9d00e618:	25080004 	addiu	t0,t0,4
9d00e61c:	8d0a0000 	lw	t2,0(t0)
9d00e620:	25080004 	addiu	t0,t0,4
9d00e624:	8d0b0000 	lw	t3,0(t0)
9d00e628:	11600009 	beqz	t3,9d00e650 <_dinit_clear>
9d00e62c:	25080004 	addiu	t0,t0,4

9d00e630 <_dinit_copy>:
9d00e630:	910c0000 	lbu	t4,0(t0)
9d00e634:	254affff 	addiu	t2,t2,-1
9d00e638:	25080001 	addiu	t0,t0,1
9d00e63c:	a12c0000 	sb	t4,0(t1)
9d00e640:	1540fffb 	bnez	t2,9d00e630 <_dinit_copy>
9d00e644:	25290001 	addiu	t1,t1,1
9d00e648:	10000005 	b	9d00e660 <_dinit_end>
9d00e64c:	00000000 	nop

9d00e650 <_dinit_clear>:
9d00e650:	a1200000 	sb	zero,0(t1)
9d00e654:	254affff 	addiu	t2,t2,-1
9d00e658:	1540fffd 	bnez	t2,9d00e650 <_dinit_clear>
9d00e65c:	25290001 	addiu	t1,t1,1

9d00e660 <_dinit_end>:
9d00e660:	25080003 	addiu	t0,t0,3
9d00e664:	240afffc 	li	t2,-4
9d00e668:	01484024 	and	t0,t2,t0
9d00e66c:	8d090000 	lw	t1,0(t0)
9d00e670:	1520ffe7 	bnez	t1,9d00e610 <_dinit_init+0x10>
9d00e674:	00000000 	nop
9d00e678:	0060f825 	move	ra,v1
9d00e67c:	03e00008 	jr	ra
9d00e680:	00000000 	nop
9d00e684:	00000000 	nop

Disassembly of section .text.__out:

9d00e688 <__out>:
9d00e688:	8c820004 	lw	v0,4(a0)
9d00e68c:	27bdffe0 	addiu	sp,sp,-32
9d00e690:	afbf001c 	sw	ra,28(sp)
9d00e694:	30470100 	andi	a3,v0,0x100
9d00e698:	afb10018 	sw	s1,24(sp)
9d00e69c:	10e00016 	beqz	a3,9d00e6f8 <__out+0x70>
9d00e6a0:	afb00014 	sw	s0,20(sp)
9d00e6a4:	8c820010 	lw	v0,16(a0)
9d00e6a8:	00808025 	move	s0,a0
9d00e6ac:	00c01825 	move	v1,a2
9d00e6b0:	00c2882b 	sltu	s1,a2,v0
9d00e6b4:	8c840014 	lw	a0,20(a0)
9d00e6b8:	0051180a 	movz	v1,v0,s1
9d00e6bc:	00603025 	move	a2,v1
9d00e6c0:	0f403efe 	jal	9d00fbf8 <memcpy>
9d00e6c4:	00608825 	move	s1,v1
9d00e6c8:	8e020014 	lw	v0,20(s0)
9d00e6cc:	8e030010 	lw	v1,16(s0)
9d00e6d0:	00511021 	addu	v0,v0,s1
9d00e6d4:	00718823 	subu	s1,v1,s1
9d00e6d8:	ae020014 	sw	v0,20(s0)
9d00e6dc:	ae110010 	sw	s1,16(s0)
9d00e6e0:	a0400000 	sb	zero,0(v0)
9d00e6e4:	8fbf001c 	lw	ra,28(sp)
9d00e6e8:	8fb10018 	lw	s1,24(sp)
9d00e6ec:	8fb00014 	lw	s0,20(sp)
9d00e6f0:	03e00008 	jr	ra
9d00e6f4:	27bd0020 	addiu	sp,sp,32
9d00e6f8:	30420010 	andi	v0,v0,0x10
9d00e6fc:	5440fffa 	bnezl	v0,9d00e6e8 <__out+0x60>
9d00e700:	8fbf001c 	lw	ra,28(sp)
9d00e704:	0f403ea0 	jal	9d00fa80 <__fwrite>
9d00e708:	00000000 	nop
9d00e70c:	1000fff6 	b	9d00e6e8 <__out+0x60>
9d00e710:	8fbf001c 	lw	ra,28(sp)

Disassembly of section .text.dptoul:

9d00e714 <__fixunsdfsi>:
9d00e714:	00053ac0 00045542 00ea3825 3c018000     .:..BU..%8.....<
9d00e724:	00e13825 00055040 000a5542 2406041e     %8..@P..BU.....$
9d00e734:	00ca3023 04c0000c 00000000 2cc10020     #0.......... ..,
9d00e744:	14200002 00000000 34070000              .. ........4

9d00e750 <L43>:
9d00e750:	04a10002 	bgez	a1,9d00e75c <i53>
9d00e754:	00c73806 	srlv	a3,a3,a2
9d00e758:	00073823 	negu	a3,a3

9d00e75c <i53>:
9d00e75c:	00071025 	or	v0,zero,a3

9d00e760 <K999>:
9d00e760:	03e00008 	jr	ra
9d00e764:	00000000 	nop
9d00e768:	00000000 	nop

9d00e76c <Knaninf>:
9d00e76c:	10800002 	beqz	a0,9d00e778 <i54>
9d00e770:	00000000 	nop
9d00e774:	34a50001 	ori	a1,a1,0x1

9d00e778 <i54>:
9d00e778:	3c017ff0 	lui	at,0x7ff0
9d00e77c:	34210001 	ori	at,at,0x1
9d00e780:	00a1082b 	sltu	at,a1,at
9d00e784:	14200003 	bnez	at,9d00e794 <i55>
9d00e788:	00000000 	nop
9d00e78c:	1000fff4 	b	9d00e760 <K999>
9d00e790:	3c028000 	lui	v0,0x8000

9d00e794 <i55>:
9d00e794:	1000fff2 	b	9d00e760 <K999>
9d00e798:	2402ffff 	li	v0,-1
9d00e79c:	00000000 	nop

Disassembly of section .text.copysignf:

9d00e7a0 <copysignf>:
9d00e7a0:	27bdffd0 	addiu	sp,sp,-48
9d00e7a4:	afb30028 	sw	s3,40(sp)
9d00e7a8:	afb20024 	sw	s2,36(sp)
9d00e7ac:	00e09825 	move	s3,a3
9d00e7b0:	00c09025 	move	s2,a2
9d00e7b4:	afbf002c 	sw	ra,44(sp)
9d00e7b8:	afb10020 	sw	s1,32(sp)
9d00e7bc:	0f4034cd 	jal	9d00d334 <__truncdfsf2>
9d00e7c0:	afb0001c 	sw	s0,28(sp)
9d00e7c4:	02602825 	move	a1,s3
9d00e7c8:	02402025 	move	a0,s2
9d00e7cc:	0f4034cd 	jal	9d00d334 <__truncdfsf2>
9d00e7d0:	00408825 	move	s1,v0
9d00e7d4:	00408025 	move	s0,v0
9d00e7d8:	0f403779 	jal	9d00dde4 <__extendsfdf2>
9d00e7dc:	02202025 	move	a0,s1
9d00e7e0:	02002025 	move	a0,s0
9d00e7e4:	afa20010 	sw	v0,16(sp)
9d00e7e8:	7c707400 	ext	s0,v1,0x10,0xf
9d00e7ec:	0f403779 	jal	9d00dde4 <__extendsfdf2>
9d00e7f0:	afa30014 	sw	v1,20(sp)
9d00e7f4:	00031c02 	srl	v1,v1,0x10
9d00e7f8:	7c037004 	ins	v1,zero,0x0,0xf
9d00e7fc:	02031825 	or	v1,s0,v1
9d00e800:	a7a30016 	sh	v1,22(sp)
9d00e804:	8fa40010 	lw	a0,16(sp)
9d00e808:	0f4034cd 	jal	9d00d334 <__truncdfsf2>
9d00e80c:	8fa50014 	lw	a1,20(sp)
9d00e810:	8fbf002c 	lw	ra,44(sp)
9d00e814:	8fb30028 	lw	s3,40(sp)
9d00e818:	8fb20024 	lw	s2,36(sp)
9d00e81c:	8fb10020 	lw	s1,32(sp)
9d00e820:	8fb0001c 	lw	s0,28(sp)
9d00e824:	03e00008 	jr	ra
9d00e828:	27bd0030 	addiu	sp,sp,48

Disassembly of section .text.__fopen_rw:

9d00e82c <__fopen_rw>:
9d00e82c:	27bdffe8 	addiu	sp,sp,-24
9d00e830:	afb00010 	sw	s0,16(sp)
9d00e834:	afbf0014 	sw	ra,20(sp)
9d00e838:	0f402984 	jal	9d00a610 <malloc>
9d00e83c:	24040470 	li	a0,1136
9d00e840:	10400017 	beqz	v0,9d00e8a0 <__fopen_rw+0x74>
9d00e844:	00408025 	move	s0,v0
9d00e848:	24060068 	li	a2,104
9d00e84c:	00002825 	move	a1,zero
9d00e850:	0f403f85 	jal	9d00fe14 <memset>
9d00e854:	00402025 	move	a0,v0
9d00e858:	3c029d01 	lui	v0,0x9d01
9d00e85c:	2442fea0 	addiu	v0,v0,-352
9d00e860:	ae02002c 	sw	v0,44(s0)
9d00e864:	3c029d01 	lui	v0,0x9d01
9d00e868:	2442d70c 	addiu	v0,v0,-10484
9d00e86c:	ae020030 	sw	v0,48(s0)
9d00e870:	3c029d01 	lui	v0,0x9d01
9d00e874:	2442d998 	addiu	v0,v0,-9832
9d00e878:	ae02001c 	sw	v0,28(s0)
9d00e87c:	3c029d01 	lui	v0,0x9d01
9d00e880:	2442d8cc 	addiu	v0,v0,-10036
9d00e884:	ae020044 	sw	v0,68(s0)
9d00e888:	2402ffff 	li	v0,-1
9d00e88c:	a2020034 	sb	v0,52(s0)
9d00e890:	26020070 	addiu	v0,s0,112
9d00e894:	ae020008 	sw	v0,8(s0)
9d00e898:	24020400 	li	v0,1024
9d00e89c:	ae02000c 	sw	v0,12(s0)
9d00e8a0:	8fbf0014 	lw	ra,20(sp)
9d00e8a4:	02001025 	move	v0,s0
9d00e8a8:	8fb00010 	lw	s0,16(sp)
9d00e8ac:	03e00008 	jr	ra
9d00e8b0:	27bd0018 	addiu	sp,sp,24

Disassembly of section .text.write:

9d00e8b4 <write>:
9d00e8b4:	27bdffe0 	addiu	sp,sp,-32
9d00e8b8:	afb10014 	sw	s1,20(sp)
9d00e8bc:	afbf001c 	sw	ra,28(sp)
9d00e8c0:	afb20018 	sw	s2,24(sp)
9d00e8c4:	afb00010 	sw	s0,16(sp)
9d00e8c8:	10a0000d 	beqz	a1,9d00e900 <write+0x4c>
9d00e8cc:	00008825 	move	s1,zero
9d00e8d0:	50c0000c 	beqzl	a2,9d00e904 <write+0x50>
9d00e8d4:	8fbf001c 	lw	ra,28(sp)
9d00e8d8:	2c840003 	sltiu	a0,a0,3
9d00e8dc:	10800008 	beqz	a0,9d00e900 <write+0x4c>
9d00e8e0:	00c08825 	move	s1,a2
9d00e8e4:	3c020000 	lui	v0,0x0
9d00e8e8:	24420000 	addiu	v0,v0,0
9d00e8ec:	1040000b 	beqz	v0,9d00e91c <write+0x68>
9d00e8f0:	00a08025 	move	s0,a1
9d00e8f4:	00c02825 	move	a1,a2
9d00e8f8:	0c000000 	jal	90000000 <_bmxdudba_address+0x8ffe0000>
9d00e8fc:	02002025 	move	a0,s0
9d00e900:	8fbf001c 	lw	ra,28(sp)
9d00e904:	02201025 	move	v0,s1
9d00e908:	8fb20018 	lw	s2,24(sp)
9d00e90c:	8fb10014 	lw	s1,20(sp)
9d00e910:	8fb00010 	lw	s0,16(sp)
9d00e914:	03e00008 	jr	ra
9d00e918:	27bd0020 	addiu	sp,sp,32
9d00e91c:	00a69021 	addu	s2,a1,a2
9d00e920:	82040000 	lb	a0,0(s0)
9d00e924:	0f4032e6 	jal	9d00cb98 <_mon_putc>
9d00e928:	26100001 	addiu	s0,s0,1
9d00e92c:	5650fffd 	bnel	s2,s0,9d00e924 <write+0x70>
9d00e930:	82040000 	lb	a0,0(s0)
9d00e934:	1000fff3 	b	9d00e904 <write+0x50>
9d00e938:	8fbf001c 	lw	ra,28(sp)

Disassembly of section .text.atoi:

9d00e93c <atoi>:
9d00e93c:	24050020 	li	a1,32
9d00e940:	80820000 	lb	v0,0(a0)
9d00e944:	1045000e 	beq	v0,a1,9d00e980 <atoi+0x44>
9d00e948:	2443fff7 	addiu	v1,v0,-9
9d00e94c:	2c630005 	sltiu	v1,v1,5
9d00e950:	5460fffb 	bnezl	v1,9d00e940 <atoi+0x4>
9d00e954:	24840001 	addiu	a0,a0,1
9d00e958:	2403002b 	li	v1,43
9d00e95c:	1043000a 	beq	v0,v1,9d00e988 <atoi+0x4c>
9d00e960:	2403002d 	li	v1,45
9d00e964:	14430003 	bne	v0,v1,9d00e974 <atoi+0x38>
9d00e968:	00002825 	move	a1,zero
9d00e96c:	24050001 	li	a1,1
9d00e970:	24840001 	addiu	a0,a0,1
9d00e974:	00001025 	move	v0,zero
9d00e978:	10000007 	b	9d00e998 <atoi+0x5c>
9d00e97c:	2407000a 	li	a3,10
9d00e980:	1000ffef 	b	9d00e940 <atoi+0x4>
9d00e984:	24840001 	addiu	a0,a0,1
9d00e988:	1000fff9 	b	9d00e970 <atoi+0x34>
9d00e98c:	00002825 	move	a1,zero
9d00e990:	24840001 	addiu	a0,a0,1
9d00e994:	00431023 	subu	v0,v0,v1
9d00e998:	80830000 	lb	v1,0(a0)
9d00e99c:	2463ffd0 	addiu	v1,v1,-48
9d00e9a0:	2c66000a 	sltiu	a2,v1,10
9d00e9a4:	54c0fffa 	bnezl	a2,9d00e990 <atoi+0x54>
9d00e9a8:	70471002 	mul	v0,v0,a3
9d00e9ac:	50a00001 	beqzl	a1,9d00e9b4 <atoi+0x78>
9d00e9b0:	00021023 	negu	v0,v0
9d00e9b4:	03e00008 	jr	ra
9d00e9b8:	00000000 	nop

Disassembly of section .text.__vsnprintf:

9d00e9bc <__vsnprintf>:
9d00e9bc:	27bdffc8 	addiu	sp,sp,-56
9d00e9c0:	2403ffff 	li	v1,-1
9d00e9c4:	afa30010 	sw	v1,16(sp)
9d00e9c8:	24030102 	li	v1,258
9d00e9cc:	00a01025 	move	v0,a1
9d00e9d0:	afbf0034 	sw	ra,52(sp)
9d00e9d4:	00c02825 	move	a1,a2
9d00e9d8:	afa30014 	sw	v1,20(sp)
9d00e9dc:	14800002 	bnez	a0,9d00e9e8 <__vsnprintf+0x2c>
9d00e9e0:	00e03025 	move	a2,a3
9d00e9e4:	27a4002c 	addiu	a0,sp,44
9d00e9e8:	afa40018 	sw	a0,24(sp)
9d00e9ec:	afa2001c 	sw	v0,28(sp)
9d00e9f0:	10400002 	beqz	v0,9d00e9fc <__vsnprintf+0x40>
9d00e9f4:	00001825 	move	v1,zero
9d00e9f8:	2443ffff 	addiu	v1,v0,-1
9d00e9fc:	04410008 	bgez	v0,9d00ea20 <__vsnprintf+0x64>
9d00ea00:	afa30020 	sw	v1,32(sp)
9d00ea04:	3c02a001 	lui	v0,0xa001
9d00ea08:	2403004f 	li	v1,79
9d00ea0c:	ac433fbc 	sw	v1,16316(v0)
9d00ea10:	2402ffff 	li	v0,-1
9d00ea14:	8fbf0034 	lw	ra,52(sp)
9d00ea18:	03e00008 	jr	ra
9d00ea1c:	27bd0038 	addiu	sp,sp,56
9d00ea20:	afa40028 	sw	a0,40(sp)
9d00ea24:	afa40024 	sw	a0,36(sp)
9d00ea28:	a0800000 	sb	zero,0(a0)
9d00ea2c:	0f403e3c 	jal	9d00f8f0 <__vfprintf>
9d00ea30:	27a40010 	addiu	a0,sp,16
9d00ea34:	1000fff8 	b	9d00ea18 <__vsnprintf+0x5c>
9d00ea38:	8fbf0034 	lw	ra,52(sp)

Disassembly of section .text.fptoli:

9d00ea3c <__fixsfsi>:
9d00ea3c:	00042a00 3c018000 00a12825 00043dc2     .*.....<%(...=..
9d00ea4c:	30e700ff 2406009e 00c73023 18c0000d     ...0...$#0......
9d00ea5c:	00000000 28c10020 14200003 00000000     .... ..(.. .....
9d00ea6c:	10000005 24020000                       .......$

9d00ea74 <i42>:
9d00ea74:	04810002 	bgez	a0,9d00ea80 <i43>
9d00ea78:	00c52806 	srlv	a1,a1,a2
9d00ea7c:	00052823 	negu	a1,a1

9d00ea80 <i43>:
9d00ea80:	00051025 	or	v0,zero,a1

9d00ea84 <G999>:
9d00ea84:	03e00008 	jr	ra
9d00ea88:	00000000 	nop
9d00ea8c:	00000000 	nop

9d00ea90 <Gspec>:
9d00ea90:	3c017f80 	lui	at,0x7f80
9d00ea94:	34210001 	ori	at,at,0x1
9d00ea98:	0081082b 	sltu	at,a0,at
9d00ea9c:	14200003 	bnez	at,9d00eaac <i44>
9d00eaa0:	00000000 	nop
9d00eaa4:	1000fff7 	b	9d00ea84 <G999>
9d00eaa8:	3c028000 	lui	v0,0x8000

9d00eaac <i44>:
9d00eaac:	3c027fff 	lui	v0,0x7fff
9d00eab0:	1000fff4 	b	9d00ea84 <G999>
9d00eab4:	3442ffff 	ori	v0,v0,0xffff
9d00eab8:	00000000 	nop

Disassembly of section .text.dremf:

9d00eabc <dremf>:
9d00eabc:	27bdffe0 	addiu	sp,sp,-32
9d00eac0:	afb10014 	sw	s1,20(sp)
9d00eac4:	afb00010 	sw	s0,16(sp)
9d00eac8:	00e08825 	move	s1,a3
9d00eacc:	00c08025 	move	s0,a2
9d00ead0:	afbf001c 	sw	ra,28(sp)
9d00ead4:	0f4034cd 	jal	9d00d334 <__truncdfsf2>
9d00ead8:	afb20018 	sw	s2,24(sp)
9d00eadc:	02202825 	move	a1,s1
9d00eae0:	02002025 	move	a0,s0
9d00eae4:	0f4034cd 	jal	9d00d334 <__truncdfsf2>
9d00eae8:	00409025 	move	s2,v0
9d00eaec:	0f403779 	jal	9d00dde4 <__extendsfdf2>
9d00eaf0:	00402025 	move	a0,v0
9d00eaf4:	02402025 	move	a0,s2
9d00eaf8:	00408025 	move	s0,v0
9d00eafc:	0f403779 	jal	9d00dde4 <__extendsfdf2>
9d00eb00:	00608825 	move	s1,v1
9d00eb04:	00402025 	move	a0,v0
9d00eb08:	02003025 	move	a2,s0
9d00eb0c:	02203825 	move	a3,s1
9d00eb10:	0f401ed7 	jal	9d007b5c <dreml>
9d00eb14:	00602825 	move	a1,v1
9d00eb18:	00402025 	move	a0,v0
9d00eb1c:	0f4034cd 	jal	9d00d334 <__truncdfsf2>
9d00eb20:	00602825 	move	a1,v1
9d00eb24:	8fbf001c 	lw	ra,28(sp)
9d00eb28:	8fb20018 	lw	s2,24(sp)
9d00eb2c:	8fb10014 	lw	s1,20(sp)
9d00eb30:	8fb00010 	lw	s0,16(sp)
9d00eb34:	03e00008 	jr	ra
9d00eb38:	27bd0020 	addiu	sp,sp,32

Disassembly of section .text.__readv:

9d00eb3c <readv>:
9d00eb3c:	27bdffd8 	addiu	sp,sp,-40
9d00eb40:	afb40020 	sw	s4,32(sp)
9d00eb44:	afb3001c 	sw	s3,28(sp)
9d00eb48:	afb20018 	sw	s2,24(sp)
9d00eb4c:	afb10014 	sw	s1,20(sp)
9d00eb50:	afb00010 	sw	s0,16(sp)
9d00eb54:	afbf0024 	sw	ra,36(sp)
9d00eb58:	0080a025 	move	s4,a0
9d00eb5c:	00c09825 	move	s3,a2
9d00eb60:	00a08025 	move	s0,a1
9d00eb64:	00008825 	move	s1,zero
9d00eb68:	00009025 	move	s2,zero
9d00eb6c:	0253102a 	slt	v0,s2,s3
9d00eb70:	5440000a 	bnezl	v0,9d00eb9c <readv+0x60>
9d00eb74:	8e060004 	lw	a2,4(s0)
9d00eb78:	8fbf0024 	lw	ra,36(sp)
9d00eb7c:	02201025 	move	v0,s1
9d00eb80:	8fb40020 	lw	s4,32(sp)
9d00eb84:	8fb3001c 	lw	s3,28(sp)
9d00eb88:	8fb20018 	lw	s2,24(sp)
9d00eb8c:	8fb10014 	lw	s1,20(sp)
9d00eb90:	8fb00010 	lw	s0,16(sp)
9d00eb94:	03e00008 	jr	ra
9d00eb98:	27bd0028 	addiu	sp,sp,40
9d00eb9c:	8e050000 	lw	a1,0(s0)
9d00eba0:	02802025 	move	a0,s4
9d00eba4:	0f404019 	jal	9d010064 <__read>
9d00eba8:	26520001 	addiu	s2,s2,1
9d00ebac:	02228821 	addu	s1,s1,v0
9d00ebb0:	1000ffee 	b	9d00eb6c <readv+0x30>
9d00ebb4:	26100008 	addiu	s0,s0,8

Disassembly of section .text.litodp:

9d00ebb8 <__floatsidf>:
9d00ebb8:	24050000 00054825 00053825 00043025     ...$%H..%8..%0..
9d00ebc8:	10c0000c 00000000 04c10006 00000000     ................
9d00ebd8:	3c098000 0005502b 00052823 00063023     ...<+P..#(..#0..
9d00ebe8:	00ca3023                                #0..

9d00ebec <i40>:
9d00ebec:	2407041e 	li	a3,1054
9d00ebf0:	70c84020 	clz	t0,a2
9d00ebf4:	00e83823 	subu	a3,a3,t0
9d00ebf8:	01063004 	sllv	a2,a2,t0

9d00ebfc <i39>:
9d00ebfc:	000542c2 	srl	t0,a1,0xb
9d00ec00:	00065540 	sll	t2,a2,0x15
9d00ec04:	010a4025 	or	t0,t0,t2
9d00ec08:	00065040 	sll	t2,a2,0x1
9d00ec0c:	000a5302 	srl	t2,t2,0xc
9d00ec10:	012a4825 	or	t1,t1,t2
9d00ec14:	00075500 	sll	t2,a3,0x14
9d00ec18:	012a4825 	or	t1,t1,t2
9d00ec1c:	00081025 	or	v0,zero,t0
9d00ec20:	00091825 	or	v1,zero,t1

9d00ec24 <E999>:
9d00ec24:	03e00008 	jr	ra
9d00ec28:	00000000 	nop
9d00ec2c:	00000000 	nop

Disassembly of section .text.__consumews:

9d00ec30 <__consumews>:
9d00ec30:	8ca20000 	lw	v0,0(a1)
9d00ec34:	24030020 	li	v1,32
9d00ec38:	80420000 	lb	v0,0(v0)
9d00ec3c:	10430004 	beq	v0,v1,9d00ec50 <__consumews+0x20>
9d00ec40:	2442fff7 	addiu	v0,v0,-9
9d00ec44:	2c430005 	sltiu	v1,v0,5
9d00ec48:	10600014 	beqz	v1,9d00ec9c <__consumews+0x6c>
9d00ec4c:	00001025 	move	v0,zero
9d00ec50:	27bdffe8 	addiu	sp,sp,-24
9d00ec54:	afb00010 	sw	s0,16(sp)
9d00ec58:	afbf0014 	sw	ra,20(sp)
9d00ec5c:	0f4036f6 	jal	9d00dbd8 <__skipws>
9d00ec60:	00a08025 	move	s0,a1
9d00ec64:	24040020 	li	a0,32
9d00ec68:	8e030000 	lw	v1,0(s0)
9d00ec6c:	24650001 	addiu	a1,v1,1
9d00ec70:	ae050000 	sw	a1,0(s0)
9d00ec74:	80630001 	lb	v1,1(v1)
9d00ec78:	1064fffb 	beq	v1,a0,9d00ec68 <__consumews+0x38>
9d00ec7c:	2463fff7 	addiu	v1,v1,-9
9d00ec80:	2c630005 	sltiu	v1,v1,5
9d00ec84:	5460fff9 	bnezl	v1,9d00ec6c <__consumews+0x3c>
9d00ec88:	8e030000 	lw	v1,0(s0)
9d00ec8c:	8fbf0014 	lw	ra,20(sp)
9d00ec90:	8fb00010 	lw	s0,16(sp)
9d00ec94:	03e00008 	jr	ra
9d00ec98:	27bd0018 	addiu	sp,sp,24
9d00ec9c:	03e00008 	jr	ra
9d00eca0:	00000000 	nop

Disassembly of section .text.__putc:

9d00eca4 <__putc>:
9d00eca4:	8ca20004 	lw	v0,4(a1)
9d00eca8:	27bdffe8 	addiu	sp,sp,-24
9d00ecac:	30420020 	andi	v0,v0,0x20
9d00ecb0:	14400006 	bnez	v0,9d00eccc <__putc+0x28>
9d00ecb4:	afbf0014 	sw	ra,20(sp)
9d00ecb8:	0f403c07 	jal	9d00f01c <__putc_unbuffered>
9d00ecbc:	00000000 	nop
9d00ecc0:	8fbf0014 	lw	ra,20(sp)
9d00ecc4:	03e00008 	jr	ra
9d00ecc8:	27bd0018 	addiu	sp,sp,24
9d00eccc:	00803025 	move	a2,a0
9d00ecd0:	308200ff 	andi	v0,a0,0xff
9d00ecd4:	80a40034 	lb	a0,52(a1)
9d00ecd8:	1082000a 	beq	a0,v0,9d00ed04 <__putc+0x60>
9d00ecdc:	00a01825 	move	v1,a1
9d00ece0:	8ca40014 	lw	a0,20(a1)
9d00ece4:	8ca50028 	lw	a1,40(a1)
9d00ece8:	0085282b 	sltu	a1,a0,a1
9d00ecec:	10a00006 	beqz	a1,9d00ed08 <__putc+0x64>
9d00ecf0:	00c02825 	move	a1,a2
9d00ecf4:	24850001 	addiu	a1,a0,1
9d00ecf8:	ac650014 	sw	a1,20(v1)
9d00ecfc:	1000fff0 	b	9d00ecc0 <__putc+0x1c>
9d00ed00:	a0860000 	sb	a2,0(a0)
9d00ed04:	00c02825 	move	a1,a2
9d00ed08:	0f403910 	jal	9d00e440 <__overflow>
9d00ed0c:	00602025 	move	a0,v1
9d00ed10:	1000ffec 	b	9d00ecc4 <__putc+0x20>
9d00ed14:	8fbf0014 	lw	ra,20(sp)

Disassembly of section .text.alloc_rev:

9d00ed18 <alloc_rev>:
9d00ed18:	8c860000 	lw	a2,0(a0)
9d00ed1c:	30c20001 	andi	v0,a2,0x1
9d00ed20:	10400008 	beqz	v0,9d00ed44 <alloc_rev+0x2c>
9d00ed24:	00803825 	move	a3,a0
9d00ed28:	03e00008 	jr	ra
9d00ed2c:	00001025 	move	v0,zero
9d00ed30:	30c20001 	andi	v0,a2,0x1
9d00ed34:	10400005 	beqz	v0,9d00ed4c <alloc_rev+0x34>
9d00ed38:	00001025 	move	v0,zero
9d00ed3c:	10000011 	b	9d00ed84 <alloc_rev+0x6c>
9d00ed40:	8fbf0014 	lw	ra,20(sp)
9d00ed44:	27bdffe8 	addiu	sp,sp,-24
9d00ed48:	afbf0014 	sw	ra,20(sp)
9d00ed4c:	0f403bee 	jal	9d00efb8 <bin_index>
9d00ed50:	00c02025 	move	a0,a2
9d00ed54:	00402025 	move	a0,v0
9d00ed58:	0f403e86 	jal	9d00fa18 <lock_bin>
9d00ed5c:	00404025 	move	t0,v0
9d00ed60:	8ce40000 	lw	a0,0(a3)
9d00ed64:	5486fff2 	bnel	a0,a2,9d00ed30 <alloc_rev+0x18>
9d00ed68:	8ce60000 	lw	a2,0(a3)
9d00ed6c:	7c040004 	ins	a0,zero,0x0,0x1
9d00ed70:	01002825 	move	a1,t0
9d00ed74:	0f40374e 	jal	9d00dd38 <unbin>
9d00ed78:	00e42023 	subu	a0,a3,a0
9d00ed7c:	24020001 	li	v0,1
9d00ed80:	8fbf0014 	lw	ra,20(sp)
9d00ed84:	03e00008 	jr	ra
9d00ed88:	27bd0018 	addiu	sp,sp,24

Disassembly of section .text.__scan_d:

9d00ed8c <__scan_d>:
9d00ed8c:	27bdffd8 	addiu	sp,sp,-40
9d00ed90:	afb10020 	sw	s1,32(sp)
9d00ed94:	afb0001c 	sw	s0,28(sp)
9d00ed98:	00a08825 	move	s1,a1
9d00ed9c:	8cd0000c 	lw	s0,12(a2)
9d00eda0:	00c02825 	move	a1,a2
9d00eda4:	afbf0024 	sw	ra,36(sp)
9d00eda8:	0f4031ab 	jal	9d00c6ac <__read_int>
9d00edac:	00e03025 	move	a2,a3
9d00edb0:	2403ffff 	li	v1,-1
9d00edb4:	1043000c 	beq	v0,v1,9d00ede8 <__scan_d+0x5c>
9d00edb8:	02002025 	move	a0,s0
9d00edbc:	2406000a 	li	a2,10
9d00edc0:	0f403edd 	jal	9d00fb74 <strtoll>
9d00edc4:	27a50010 	addiu	a1,sp,16
9d00edc8:	ae220000 	sw	v0,0(s1)
9d00edcc:	8fa20010 	lw	v0,16(sp)
9d00edd0:	ae230004 	sw	v1,4(s1)
9d00edd4:	2404fffe 	li	a0,-2
9d00edd8:	00501026 	xor	v0,v0,s0
9d00eddc:	24030001 	li	v1,1
9d00ede0:	0082180a 	movz	v1,a0,v0
9d00ede4:	00601025 	move	v0,v1
9d00ede8:	8fbf0024 	lw	ra,36(sp)
9d00edec:	8fb10020 	lw	s1,32(sp)
9d00edf0:	8fb0001c 	lw	s0,28(sp)
9d00edf4:	03e00008 	jr	ra
9d00edf8:	27bd0028 	addiu	sp,sp,40

Disassembly of section .text.__scan_u:

9d00edfc <__scan_u>:
9d00edfc:	27bdffd8 	addiu	sp,sp,-40
9d00ee00:	afb10020 	sw	s1,32(sp)
9d00ee04:	afb0001c 	sw	s0,28(sp)
9d00ee08:	00a08825 	move	s1,a1
9d00ee0c:	8cd0000c 	lw	s0,12(a2)
9d00ee10:	00c02825 	move	a1,a2
9d00ee14:	afbf0024 	sw	ra,36(sp)
9d00ee18:	0f4031ab 	jal	9d00c6ac <__read_int>
9d00ee1c:	00e03025 	move	a2,a3
9d00ee20:	2403ffff 	li	v1,-1
9d00ee24:	1043000c 	beq	v0,v1,9d00ee58 <__scan_u+0x5c>
9d00ee28:	02002025 	move	a0,s0
9d00ee2c:	2406000a 	li	a2,10
9d00ee30:	0f403ed2 	jal	9d00fb48 <strtoull>
9d00ee34:	27a50010 	addiu	a1,sp,16
9d00ee38:	ae220000 	sw	v0,0(s1)
9d00ee3c:	8fa20010 	lw	v0,16(sp)
9d00ee40:	ae230004 	sw	v1,4(s1)
9d00ee44:	2404fffe 	li	a0,-2
9d00ee48:	00501026 	xor	v0,v0,s0
9d00ee4c:	24030001 	li	v1,1
9d00ee50:	0082180a 	movz	v1,a0,v0
9d00ee54:	00601025 	move	v0,v1
9d00ee58:	8fbf0024 	lw	ra,36(sp)
9d00ee5c:	8fb10020 	lw	s1,32(sp)
9d00ee60:	8fb0001c 	lw	s0,28(sp)
9d00ee64:	03e00008 	jr	ra
9d00ee68:	27bd0028 	addiu	sp,sp,40

Disassembly of section .text.alloc_fwd:

9d00ee6c <alloc_fwd>:
9d00ee6c:	8c860004 	lw	a2,4(a0)
9d00ee70:	30c20001 	andi	v0,a2,0x1
9d00ee74:	10400008 	beqz	v0,9d00ee98 <alloc_fwd+0x2c>
9d00ee78:	00803825 	move	a3,a0
9d00ee7c:	03e00008 	jr	ra
9d00ee80:	00001025 	move	v0,zero
9d00ee84:	30c20001 	andi	v0,a2,0x1
9d00ee88:	10400005 	beqz	v0,9d00eea0 <alloc_fwd+0x34>
9d00ee8c:	00001025 	move	v0,zero
9d00ee90:	10000010 	b	9d00eed4 <alloc_fwd+0x68>
9d00ee94:	8fbf0014 	lw	ra,20(sp)
9d00ee98:	27bdffe8 	addiu	sp,sp,-24
9d00ee9c:	afbf0014 	sw	ra,20(sp)
9d00eea0:	0f403bee 	jal	9d00efb8 <bin_index>
9d00eea4:	00c02025 	move	a0,a2
9d00eea8:	00402025 	move	a0,v0
9d00eeac:	0f403e86 	jal	9d00fa18 <lock_bin>
9d00eeb0:	00404025 	move	t0,v0
9d00eeb4:	8ce20004 	lw	v0,4(a3)
9d00eeb8:	5446fff2 	bnel	v0,a2,9d00ee84 <alloc_fwd+0x18>
9d00eebc:	8ce60004 	lw	a2,4(a3)
9d00eec0:	01002825 	move	a1,t0
9d00eec4:	0f40374e 	jal	9d00dd38 <unbin>
9d00eec8:	00e02025 	move	a0,a3
9d00eecc:	24020001 	li	v0,1
9d00eed0:	8fbf0014 	lw	ra,20(sp)
9d00eed4:	03e00008 	jr	ra
9d00eed8:	27bd0018 	addiu	sp,sp,24

Disassembly of section .text.a_clz_64:

9d00eedc <a_clz_64>:
9d00eedc:	10a00003 	beqz	a1,9d00eeec <a_clz_64+0x10>
9d00eee0:	24030020 	li	v1,32
9d00eee4:	00a02025 	move	a0,a1
9d00eee8:	00001825 	move	v1,zero
9d00eeec:	00042c02 	srl	a1,a0,0x10
9d00eef0:	14a00004 	bnez	a1,9d00ef04 <a_clz_64+0x28>
9d00eef4:	00051202 	srl	v0,a1,0x8
9d00eef8:	34630010 	ori	v1,v1,0x10
9d00eefc:	00802825 	move	a1,a0
9d00ef00:	00051202 	srl	v0,a1,0x8
9d00ef04:	14400004 	bnez	v0,9d00ef18 <a_clz_64+0x3c>
9d00ef08:	00022102 	srl	a0,v0,0x4
9d00ef0c:	34630008 	ori	v1,v1,0x8
9d00ef10:	00a01025 	move	v0,a1
9d00ef14:	00022102 	srl	a0,v0,0x4
9d00ef18:	54800004 	bnezl	a0,9d00ef2c <a_clz_64+0x50>
9d00ef1c:	00041082 	srl	v0,a0,0x2
9d00ef20:	34630004 	ori	v1,v1,0x4
9d00ef24:	00402025 	move	a0,v0
9d00ef28:	00041082 	srl	v0,a0,0x2
9d00ef2c:	54400004 	bnezl	v0,9d00ef40 <a_clz_64+0x64>
9d00ef30:	00021042 	srl	v0,v0,0x1
9d00ef34:	34630002 	ori	v1,v1,0x2
9d00ef38:	00801025 	move	v0,a0
9d00ef3c:	00021042 	srl	v0,v0,0x1
9d00ef40:	38420001 	xori	v0,v0,0x1
9d00ef44:	03e00008 	jr	ra
9d00ef48:	00431025 	or	v0,v0,v1

Disassembly of section .text.__vsscanf:

9d00ef4c <__vsscanf>:
9d00ef4c:	27bdff78 	addiu	sp,sp,-136
9d00ef50:	afb20080 	sw	s2,128(sp)
9d00ef54:	afb1007c 	sw	s1,124(sp)
9d00ef58:	afb00078 	sw	s0,120(sp)
9d00ef5c:	00a08825 	move	s1,a1
9d00ef60:	00808025 	move	s0,a0
9d00ef64:	00c09025 	move	s2,a2
9d00ef68:	27a40010 	addiu	a0,sp,16
9d00ef6c:	24060068 	li	a2,104
9d00ef70:	afbf0084 	sw	ra,132(sp)
9d00ef74:	0f403f85 	jal	9d00fe14 <memset>
9d00ef78:	00002825 	move	a1,zero
9d00ef7c:	3c029d01 	lui	v0,0x9d01
9d00ef80:	2442ffd8 	addiu	v0,v0,-40
9d00ef84:	02403025 	move	a2,s2
9d00ef88:	02202825 	move	a1,s1
9d00ef8c:	27a40010 	addiu	a0,sp,16
9d00ef90:	afb00018 	sw	s0,24(sp)
9d00ef94:	afb00048 	sw	s0,72(sp)
9d00ef98:	0f403e1e 	jal	9d00f878 <__vfscanf>
9d00ef9c:	afa20054 	sw	v0,84(sp)
9d00efa0:	8fbf0084 	lw	ra,132(sp)
9d00efa4:	8fb20080 	lw	s2,128(sp)
9d00efa8:	8fb1007c 	lw	s1,124(sp)
9d00efac:	8fb00078 	lw	s0,120(sp)
9d00efb0:	03e00008 	jr	ra
9d00efb4:	27bd0088 	addiu	sp,sp,136

Disassembly of section .text.bin_index:

9d00efb8 <bin_index>:
9d00efb8:	00042102 	srl	a0,a0,0x4
9d00efbc:	2484ffff 	addiu	a0,a0,-1
9d00efc0:	2c820021 	sltiu	v0,a0,33
9d00efc4:	50400003 	beqzl	v0,9d00efd4 <bin_index+0x1c>
9d00efc8:	2c820200 	sltiu	v0,a0,512
9d00efcc:	03e00008 	jr	ra
9d00efd0:	00801025 	move	v0,a0
9d00efd4:	10400007 	beqz	v0,9d00eff4 <bin_index+0x3c>
9d00efd8:	2c831c01 	sltiu	v1,a0,7169
9d00efdc:	3c029d01 	lui	v0,0x9d01
9d00efe0:	2442f214 	addiu	v0,v0,-3564
9d00efe4:	000420c2 	srl	a0,a0,0x3
9d00efe8:	00822021 	addu	a0,a0,v0
9d00efec:	03e00008 	jr	ra
9d00eff0:	9082fffc 	lbu	v0,-4(a0)
9d00eff4:	10600007 	beqz	v1,9d00f014 <bin_index+0x5c>
9d00eff8:	2402003f 	li	v0,63
9d00effc:	3c029d01 	lui	v0,0x9d01
9d00f000:	2442f214 	addiu	v0,v0,-3564
9d00f004:	000421c2 	srl	a0,a0,0x7
9d00f008:	00822021 	addu	a0,a0,v0
9d00f00c:	9082fffc 	lbu	v0,-4(a0)
9d00f010:	24420010 	addiu	v0,v0,16
9d00f014:	03e00008 	jr	ra
9d00f018:	00000000 	nop

Disassembly of section .text.__putc_unbuffered:

9d00f01c <__putc_unbuffered>:
9d00f01c:	8ca20004 	lw	v0,4(a1)
9d00f020:	27bdffe0 	addiu	sp,sp,-32
9d00f024:	308300ff 	andi	v1,a0,0xff
9d00f028:	30420100 	andi	v0,v0,0x100
9d00f02c:	afbf001c 	sw	ra,28(sp)
9d00f030:	1040000a 	beqz	v0,9d00f05c <__putc_unbuffered+0x40>
9d00f034:	a3a30010 	sb	v1,16(sp)
9d00f038:	8ca20014 	lw	v0,20(a1)
9d00f03c:	308400ff 	andi	a0,a0,0xff
9d00f040:	24460001 	addiu	a2,v0,1
9d00f044:	aca60014 	sw	a2,20(a1)
9d00f048:	a0430000 	sb	v1,0(v0)
9d00f04c:	8fbf001c 	lw	ra,28(sp)
9d00f050:	00801025 	move	v0,a0
9d00f054:	03e00008 	jr	ra
9d00f058:	27bd0020 	addiu	sp,sp,32
9d00f05c:	00a02025 	move	a0,a1
9d00f060:	24060001 	li	a2,1
9d00f064:	0f403ea0 	jal	9d00fa80 <__fwrite>
9d00f068:	27a50010 	addiu	a1,sp,16
9d00f06c:	1040fff7 	beqz	v0,9d00f04c <__putc_unbuffered+0x30>
9d00f070:	2404ffff 	li	a0,-1
9d00f074:	1000fff5 	b	9d00f04c <__putc_unbuffered+0x30>
9d00f078:	93a40010 	lbu	a0,16(sp)

Disassembly of section .text.__fopen_std:

9d00f07c <__fopen_std>:
9d00f07c:	27bdffe8 	addiu	sp,sp,-24
9d00f080:	afb00010 	sw	s0,16(sp)
9d00f084:	afbf0014 	sw	ra,20(sp)
9d00f088:	0f402984 	jal	9d00a610 <malloc>
9d00f08c:	24040038 	li	a0,56
9d00f090:	1040000d 	beqz	v0,9d00f0c8 <__fopen_std+0x4c>
9d00f094:	00408025 	move	s0,v0
9d00f098:	24060038 	li	a2,56
9d00f09c:	00002825 	move	a1,zero
9d00f0a0:	0f403f85 	jal	9d00fe14 <memset>
9d00f0a4:	00402025 	move	a0,v0
9d00f0a8:	3c029d01 	lui	v0,0x9d01
9d00f0ac:	2442fea0 	addiu	v0,v0,-352
9d00f0b0:	ae02002c 	sw	v0,44(s0)
9d00f0b4:	3c029d01 	lui	v0,0x9d01
9d00f0b8:	2442e1d0 	addiu	v0,v0,-7728
9d00f0bc:	ae020030 	sw	v0,48(s0)
9d00f0c0:	2402ffff 	li	v0,-1
9d00f0c4:	a2020034 	sb	v0,52(s0)
9d00f0c8:	8fbf0014 	lw	ra,20(sp)
9d00f0cc:	02001025 	move	v0,s0
9d00f0d0:	8fb00010 	lw	s0,16(sp)
9d00f0d4:	03e00008 	jr	ra
9d00f0d8:	27bd0018 	addiu	sp,sp,24

Disassembly of section .text.sitofp:

9d00f0dc <__floatsisf>:
9d00f0dc:	3c018000 10800012 00813024 04810002     ...<....$0......
9d00f0ec:	00000000 00042023                       ....# ..

9d00f0f4 <i40>:
9d00f0f4:	2405009e 	li	a1,158
9d00f0f8:	70873820 	clz	a3,a0
9d00f0fc:	00a72823 	subu	a1,a1,a3
9d00f100:	00e42004 	sllv	a0,a0,a3
9d00f104:	24840080 	addiu	a0,a0,128
9d00f108:	2c880080 	sltiu	t0,a0,128
9d00f10c:	00a82821 	addu	a1,a1,t0
9d00f110:	00044203 	sra	t0,a0,0x8
9d00f114:	31080001 	andi	t0,t0,0x1
9d00f118:	00882023 	subu	a0,a0,t0
9d00f11c:	00042040 	sll	a0,a0,0x1
9d00f120:	00042242 	srl	a0,a0,0x9
9d00f124:	000545c0 	sll	t0,a1,0x17
9d00f128:	00882025 	or	a0,a0,t0

9d00f12c <i39>:
9d00f12c:	00861025 	or	v0,a0,a2

9d00f130 <E999>:
9d00f130:	03e00008 	jr	ra
9d00f134:	00000000 	nop
9d00f138:	00000000 	nop

Disassembly of section .text.__string_out:

9d00f13c <__string_out>:
9d00f13c:	8c820010 	lw	v0,16(a0)
9d00f140:	27bdffe0 	addiu	sp,sp,-32
9d00f144:	afb00014 	sw	s0,20(sp)
9d00f148:	00808025 	move	s0,a0
9d00f14c:	8c840014 	lw	a0,20(a0)
9d00f150:	afb10018 	sw	s1,24(sp)
9d00f154:	00c2882b 	sltu	s1,a2,v0
9d00f158:	0051300a 	movz	a2,v0,s1
9d00f15c:	afbf001c 	sw	ra,28(sp)
9d00f160:	0f403efe 	jal	9d00fbf8 <memcpy>
9d00f164:	00c08825 	move	s1,a2
9d00f168:	8e020014 	lw	v0,20(s0)
9d00f16c:	8e060010 	lw	a2,16(s0)
9d00f170:	00511021 	addu	v0,v0,s1
9d00f174:	00d18823 	subu	s1,a2,s1
9d00f178:	ae110010 	sw	s1,16(s0)
9d00f17c:	ae020014 	sw	v0,20(s0)
9d00f180:	a0400000 	sb	zero,0(v0)
9d00f184:	8fbf001c 	lw	ra,28(sp)
9d00f188:	8fb10018 	lw	s1,24(sp)
9d00f18c:	8fb00014 	lw	s0,20(sp)
9d00f190:	03e00008 	jr	ra
9d00f194:	27bd0020 	addiu	sp,sp,32

Disassembly of section .text.__fmt_state:

9d00f198 <__fmt_state>:
9d00f198:	3c069d01 	lui	a2,0x9d01
9d00f19c:	00001025 	move	v0,zero
9d00f1a0:	24c60138 	addiu	a2,a2,312
9d00f1a4:	00021840 	sll	v1,v0,0x1
9d00f1a8:	00661821 	addu	v1,v1,a2
9d00f1ac:	80670000 	lb	a3,0(v1)
9d00f1b0:	54e00003 	bnezl	a3,9d00f1c0 <__fmt_state+0x28>
9d00f1b4:	8c850000 	lw	a1,0(a0)
9d00f1b8:	03e00008 	jr	ra
9d00f1bc:	90620001 	lbu	v0,1(v1)
9d00f1c0:	80a80000 	lb	t0,0(a1)
9d00f1c4:	15070009 	bne	t0,a3,9d00f1ec <__fmt_state+0x54>
9d00f1c8:	24420001 	addiu	v0,v0,1
9d00f1cc:	90620001 	lbu	v0,1(v1)
9d00f1d0:	24a50001 	addiu	a1,a1,1
9d00f1d4:	ac850000 	sw	a1,0(a0)
9d00f1d8:	2c43000b 	sltiu	v1,v0,11
9d00f1dc:	1460fff2 	bnez	v1,9d00f1a8 <__fmt_state+0x10>
9d00f1e0:	00021840 	sll	v1,v0,0x1
9d00f1e4:	03e00008 	jr	ra
9d00f1e8:	00000000 	nop
9d00f1ec:	1000fffa 	b	9d00f1d8 <__fmt_state+0x40>
9d00f1f0:	304200ff 	andi	v0,v0,0xff

Disassembly of section .rodata:

9d00f1f4 <debruijn32.1766>:
9d00f1f4:	02170100 0313181d 0b191b1e 0d040814     ................
9d00f204:	121c161f 0c070a1a 06091115 0e0f0510     ................

9d00f214 <bin_tab>:
9d00f214:	23222120 25252424 27272626 28282828      !"#$$%%&&''((((
9d00f224:	29292929 2a2a2a2a 2b2b2b2b 2c2c2c2c     ))))****++++,,,,
9d00f234:	2c2c2c2c 2d2d2d2d 2d2d2d2d 2e2e2e2e     ,,,,--------....
9d00f244:	2e2e2e2e 2f2f2f2f 2f2f2f2f              ....////////

Disassembly of section .text.__stdio_seek_unbuffered:

9d00f250 <__stdio_seek_unbuffered>:
9d00f250:	27bdffe0 	addiu	sp,sp,-32
9d00f254:	8fa20030 	lw	v0,48(sp)
9d00f258:	afb00018 	sw	s0,24(sp)
9d00f25c:	00808025 	move	s0,a0
9d00f260:	afa20010 	sw	v0,16(sp)
9d00f264:	8c840000 	lw	a0,0(a0)
9d00f268:	afbf001c 	sw	ra,28(sp)
9d00f26c:	0f40408d 	jal	9d010234 <lseek>
9d00f270:	00000000 	nop
9d00f274:	0460000a 	bltz	v1,9d00f2a0 <__stdio_seek_unbuffered+0x50>
9d00f278:	2402ffff 	li	v0,-1
9d00f27c:	8e020004 	lw	v0,4(s0)
9d00f280:	00001825 	move	v1,zero
9d00f284:	7c0218c4 	ins	v0,zero,0x3,0x1
9d00f288:	ae020004 	sw	v0,4(s0)
9d00f28c:	00001025 	move	v0,zero
9d00f290:	8fbf001c 	lw	ra,28(sp)
9d00f294:	8fb00018 	lw	s0,24(sp)
9d00f298:	03e00008 	jr	ra
9d00f29c:	27bd0020 	addiu	sp,sp,32
9d00f2a0:	1000fffb 	b	9d00f290 <__stdio_seek_unbuffered+0x40>
9d00f2a4:	2403ffff 	li	v1,-1

Disassembly of section .text.adjust_size:

9d00f2a8 <adjust_size>:
9d00f2a8:	3c03a001 	lui	v1,0xa001
9d00f2ac:	8c663f7c 	lw	a2,16252(v1)
9d00f2b0:	8c820000 	lw	v0,0(a0)
9d00f2b4:	3c037fff 	lui	v1,0x7fff
9d00f2b8:	3463ffef 	ori	v1,v1,0xffef
9d00f2bc:	2445ffff 	addiu	a1,v0,-1
9d00f2c0:	00661823 	subu	v1,v1,a2
9d00f2c4:	0065182b 	sltu	v1,v1,a1
9d00f2c8:	5060000b 	beqzl	v1,9d00f2f8 <adjust_size+0x50>
9d00f2cc:	24420017 	addiu	v0,v0,23
9d00f2d0:	50400006 	beqzl	v0,9d00f2ec <adjust_size+0x44>
9d00f2d4:	24020010 	li	v0,16
9d00f2d8:	3c02a001 	lui	v0,0xa001
9d00f2dc:	2403000c 	li	v1,12
9d00f2e0:	ac433fbc 	sw	v1,16316(v0)
9d00f2e4:	03e00008 	jr	ra
9d00f2e8:	2402ffff 	li	v0,-1
9d00f2ec:	ac820000 	sw	v0,0(a0)
9d00f2f0:	03e00008 	jr	ra
9d00f2f4:	00001025 	move	v0,zero
9d00f2f8:	1000fffc 	b	9d00f2ec <adjust_size+0x44>
9d00f2fc:	7c021804 	ins	v0,zero,0x0,0x4

Disassembly of section .text.trim:

9d00f300 <trim>:
9d00f300:	8c820004 	lw	v0,4(a0)
9d00f304:	7c020004 	ins	v0,zero,0x0,0x1
9d00f308:	00451823 	subu	v1,v0,a1
9d00f30c:	2c660011 	sltiu	a2,v1,17
9d00f310:	14c0000f 	bnez	a2,9d00f350 <trim+0x50>
9d00f314:	00853021 	addu	a2,a0,a1
9d00f318:	27bdffe8 	addiu	sp,sp,-24
9d00f31c:	34a50001 	ori	a1,a1,0x1
9d00f320:	34630001 	ori	v1,v1,0x1
9d00f324:	00821021 	addu	v0,a0,v0
9d00f328:	afbf0014 	sw	ra,20(sp)
9d00f32c:	acc50000 	sw	a1,0(a2)
9d00f330:	acc30004 	sw	v1,4(a2)
9d00f334:	ac430000 	sw	v1,0(v0)
9d00f338:	ac850004 	sw	a1,4(a0)
9d00f33c:	0f402e1c 	jal	9d00b870 <free>
9d00f340:	24c40008 	addiu	a0,a2,8
9d00f344:	8fbf0014 	lw	ra,20(sp)
9d00f348:	03e00008 	jr	ra
9d00f34c:	27bd0018 	addiu	sp,sp,24
9d00f350:	03e00008 	jr	ra
9d00f354:	00000000 	nop

Disassembly of section .text.main_entry:

9d00f358 <_main_entry>:
9d00f358:	3c040000 	lui	a0,0x0
9d00f35c:	27bdffe8 	addiu	sp,sp,-24
9d00f360:	24840000 	addiu	a0,a0,0
9d00f364:	10800003 	beqz	a0,9d00f374 <_main_entry+0x1c>
9d00f368:	afbf0014 	sw	ra,20(sp)
9d00f36c:	0080f809 	jalr	a0
9d00f370:	00000000 	nop
9d00f374:	30840000 	andi	a0,a0,0x0
9d00f378:	30a50000 	andi	a1,a1,0x0
9d00f37c:	3c089d00 	lui	t0,0x9d00
9d00f380:	2508646c 	addiu	t0,t0,25708
9d00f384:	0100f809 	jalr	t0
9d00f388:	00000000 	nop

9d00f38c <__crt0_exit>:
9d00f38c:	3c020000 24420000 10400003 00000000     ...<..B$..@.....
9d00f39c:	0040f809 00000000 1000fff9 00000000     ..@.............

Disassembly of section .text.__uflow:

9d00f3ac <__uflow>:
9d00f3ac:	27bdffe0 	addiu	sp,sp,-32
9d00f3b0:	afb00018 	sw	s0,24(sp)
9d00f3b4:	afbf001c 	sw	ra,28(sp)
9d00f3b8:	0f403936 	jal	9d00e4d8 <__toread>
9d00f3bc:	00808025 	move	s0,a0
9d00f3c0:	50400006 	beqzl	v0,9d00f3dc <__uflow+0x30>
9d00f3c4:	8e020044 	lw	v0,68(s0)
9d00f3c8:	2402ffff 	li	v0,-1
9d00f3cc:	8fbf001c 	lw	ra,28(sp)
9d00f3d0:	8fb00018 	lw	s0,24(sp)
9d00f3d4:	03e00008 	jr	ra
9d00f3d8:	27bd0020 	addiu	sp,sp,32
9d00f3dc:	24060001 	li	a2,1
9d00f3e0:	27a50010 	addiu	a1,sp,16
9d00f3e4:	0040f809 	jalr	v0
9d00f3e8:	02002025 	move	a0,s0
9d00f3ec:	24030001 	li	v1,1
9d00f3f0:	1443fff5 	bne	v0,v1,9d00f3c8 <__uflow+0x1c>
9d00f3f4:	93a20010 	lbu	v0,16(sp)
9d00f3f8:	1000fff5 	b	9d00f3d0 <__uflow+0x24>
9d00f3fc:	8fbf001c 	lw	ra,28(sp)

Disassembly of section .text.__pop_float:

9d00f400 <__pop_float>:
9d00f400:	28a30080 	slti	v1,a1,128
9d00f404:	14600010 	bnez	v1,9d00f448 <__pop_float+0x48>
9d00f408:	00001025 	move	v0,zero
9d00f40c:	28a20082 	slti	v0,a1,130
9d00f410:	14400003 	bnez	v0,9d00f420 <__pop_float+0x20>
9d00f414:	24030083 	li	v1,131
9d00f418:	14a3000b 	bne	a1,v1,9d00f448 <__pop_float+0x48>
9d00f41c:	00001025 	move	v0,zero
9d00f420:	8cc20000 	lw	v0,0(a2)
9d00f424:	24420007 	addiu	v0,v0,7
9d00f428:	7c021004 	ins	v0,zero,0x0,0x3
9d00f42c:	24430008 	addiu	v1,v0,8
9d00f430:	acc30000 	sw	v1,0(a2)
9d00f434:	8c430004 	lw	v1,4(v0)
9d00f438:	8c420000 	lw	v0,0(v0)
9d00f43c:	ac830004 	sw	v1,4(a0)
9d00f440:	ac820000 	sw	v0,0(a0)
9d00f444:	24020001 	li	v0,1
9d00f448:	03e00008 	jr	ra
9d00f44c:	00000000 	nop

Disassembly of section .text.__ftello_adj_rw:

9d00f450 <__ftello_adj_rw>:
9d00f450:	8c830004 	lw	v1,4(a0)
9d00f454:	30620002 	andi	v0,v1,0x2
9d00f458:	14400004 	bnez	v0,9d00f46c <__ftello_adj_rw+0x1c>
9d00f45c:	00003025 	move	a2,zero
9d00f460:	8c820040 	lw	v0,64(a0)
9d00f464:	8c86003c 	lw	a2,60(a0)
9d00f468:	00463023 	subu	a2,v0,a2
9d00f46c:	8c870014 	lw	a3,20(a0)
9d00f470:	8c840018 	lw	a0,24(a0)
9d00f474:	30630040 	andi	v1,v1,0x40
9d00f478:	00e41023 	subu	v0,a3,a0
9d00f47c:	00461021 	addu	v0,v0,a2
9d00f480:	aca20000 	sw	v0,0(a1)
9d00f484:	000217c3 	sra	v0,v0,0x1f
9d00f488:	aca20004 	sw	v0,4(a1)
9d00f48c:	10600002 	beqz	v1,9d00f498 <__ftello_adj_rw+0x48>
9d00f490:	00001025 	move	v0,zero
9d00f494:	0087102b 	sltu	v0,a0,a3
9d00f498:	03e00008 	jr	ra
9d00f49c:	00000000 	nop

Disassembly of section .text.__malloc0:

9d00f4a0 <__malloc0>:
9d00f4a0:	27bdffe8 	addiu	sp,sp,-24
9d00f4a4:	afb00010 	sw	s0,16(sp)
9d00f4a8:	afbf0014 	sw	ra,20(sp)
9d00f4ac:	0f402984 	jal	9d00a610 <malloc>
9d00f4b0:	00808025 	move	s0,a0
9d00f4b4:	10400006 	beqz	v0,9d00f4d0 <__malloc0+0x30>
9d00f4b8:	26100003 	addiu	s0,s0,3
9d00f4bc:	7c100804 	ins	s0,zero,0x0,0x2
9d00f4c0:	00508021 	addu	s0,v0,s0
9d00f4c4:	00401825 	move	v1,v0
9d00f4c8:	54700005 	bnel	v1,s0,9d00f4e0 <__malloc0+0x40>
9d00f4cc:	8c640000 	lw	a0,0(v1)
9d00f4d0:	8fbf0014 	lw	ra,20(sp)
9d00f4d4:	8fb00010 	lw	s0,16(sp)
9d00f4d8:	03e00008 	jr	ra
9d00f4dc:	27bd0018 	addiu	sp,sp,24
9d00f4e0:	54800001 	bnezl	a0,9d00f4e8 <__malloc0+0x48>
9d00f4e4:	ac600000 	sw	zero,0(v1)
9d00f4e8:	1000fff7 	b	9d00f4c8 <__malloc0+0x28>
9d00f4ec:	24630004 	addiu	v1,v1,4

Disassembly of section .text.__shlim:

9d00f4f0 <__shlim>:
9d00f4f0:	8c830040 	lw	v1,64(a0)
9d00f4f4:	8c88003c 	lw	t0,60(a0)
9d00f4f8:	00c74825 	or	t1,a2,a3
9d00f4fc:	ac860050 	sw	a2,80(a0)
9d00f500:	00681023 	subu	v0,v1,t0
9d00f504:	00022fc3 	sra	a1,v0,0x1f
9d00f508:	ac870054 	sw	a3,84(a0)
9d00f50c:	ac820058 	sw	v0,88(a0)
9d00f510:	11200008 	beqz	t1,9d00f534 <__shlim+0x44>
9d00f514:	ac85005c 	sw	a1,92(a0)
9d00f518:	00e5482a 	slt	t1,a3,a1
9d00f51c:	55200005 	bnezl	t1,9d00f534 <__shlim+0x44>
9d00f520:	01061821 	addu	v1,t0,a2
9d00f524:	14a70003 	bne	a1,a3,9d00f534 <__shlim+0x44>
9d00f528:	00c2102b 	sltu	v0,a2,v0
9d00f52c:	54400001 	bnezl	v0,9d00f534 <__shlim+0x44>
9d00f530:	01061821 	addu	v1,t0,a2
9d00f534:	03e00008 	jr	ra
9d00f538:	ac83004c 	sw	v1,76(a0)

Disassembly of section .text.__stdio_exit:

9d00f53c <__stdio_exit>:
9d00f53c:	27bdffe8 	addiu	sp,sp,-24
9d00f540:	afbf0014 	sw	ra,20(sp)
9d00f544:	0f404081 	jal	9d010204 <__stdio_exit_ofl>
9d00f548:	00000000 	nop
9d00f54c:	3c02a001 	lui	v0,0xa001
9d00f550:	8c443c64 	lw	a0,15460(v0)
9d00f554:	0f403e78 	jal	9d00f9e0 <__fclose>
9d00f558:	00002825 	move	a1,zero
9d00f55c:	3c02a001 	lui	v0,0xa001
9d00f560:	8c443c64 	lw	a0,15460(v0)
9d00f564:	0f403e78 	jal	9d00f9e0 <__fclose>
9d00f568:	00002825 	move	a1,zero
9d00f56c:	3c02a001 	lui	v0,0xa001
9d00f570:	8c443c64 	lw	a0,15460(v0)
9d00f574:	0f403e78 	jal	9d00f9e0 <__fclose>
9d00f578:	00002825 	move	a1,zero
9d00f57c:	8fbf0014 	lw	ra,20(sp)
9d00f580:	03e00008 	jr	ra
9d00f584:	27bd0018 	addiu	sp,sp,24

Disassembly of section .text.sbrk:

9d00f588 <sbrk>:
9d00f588:	27bdffe8 	addiu	sp,sp,-24
9d00f58c:	afb00010 	sw	s0,16(sp)
9d00f590:	afbf0014 	sw	ra,20(sp)
9d00f594:	0f403722 	jal	9d00dc88 <_sbrk>
9d00f598:	00808025 	move	s0,a0
9d00f59c:	1a000008 	blez	s0,9d00f5c0 <sbrk+0x38>
9d00f5a0:	00401825 	move	v1,v0
9d00f5a4:	2402ffff 	li	v0,-1
9d00f5a8:	10620005 	beq	v1,v0,9d00f5c0 <sbrk+0x38>
9d00f5ac:	00602025 	move	a0,v1
9d00f5b0:	02003025 	move	a2,s0
9d00f5b4:	0f403f85 	jal	9d00fe14 <memset>
9d00f5b8:	00002825 	move	a1,zero
9d00f5bc:	00401825 	move	v1,v0
9d00f5c0:	8fbf0014 	lw	ra,20(sp)
9d00f5c4:	00601025 	move	v0,v1
9d00f5c8:	8fb00010 	lw	s0,16(sp)
9d00f5cc:	03e00008 	jr	ra
9d00f5d0:	27bd0018 	addiu	sp,sp,24

Disassembly of section .text._bootstrap_exception_handler:

9d00f5d4 <_bootstrap_exception_handler>:
9d00f5d4:	3c020000 	lui	v0,0x0
9d00f5d8:	24420000 	addiu	v0,v0,0
9d00f5dc:	10400005 	beqz	v0,9d00f5f4 <_bootstrap_exception_handler+0x20>
9d00f5e0:	3c020000 	lui	v0,0x0
9d00f5e4:	24420000 	addiu	v0,v0,0
9d00f5e8:	10400003 	beqz	v0,9d00f5f8 <_bootstrap_exception_handler+0x24>
9d00f5ec:	3c029d01 	lui	v0,0x9d01
9d00f5f0:	7000003f 	sdbbp
9d00f5f4:	3c029d01 	lui	v0,0x9d01
9d00f5f8:	2442f6ac 	addiu	v0,v0,-2388
9d00f5fc:	10400005 	beqz	v0,9d00f614 <_bootstrap_exception_handler+0x40>
9d00f600:	00000000 	nop
9d00f604:	27bdffe8 	addiu	sp,sp,-24
9d00f608:	afbf0014 	sw	ra,20(sp)
9d00f60c:	0040f809 	jalr	v0
9d00f610:	00000000 	nop
9d00f614:	1000ffff 	b	9d00f614 <_bootstrap_exception_handler+0x40>
9d00f618:	00000000 	nop

Disassembly of section .text._general_exception_handler:

9d00f61c <_general_exception_handler>:
9d00f61c:	3c020000 	lui	v0,0x0
9d00f620:	24420000 	addiu	v0,v0,0
9d00f624:	10400005 	beqz	v0,9d00f63c <_general_exception_handler+0x20>
9d00f628:	3c020000 	lui	v0,0x0
9d00f62c:	24420000 	addiu	v0,v0,0
9d00f630:	10400003 	beqz	v0,9d00f640 <_general_exception_handler+0x24>
9d00f634:	3c029d01 	lui	v0,0x9d01
9d00f638:	7000003f 	sdbbp
9d00f63c:	3c029d01 	lui	v0,0x9d01
9d00f640:	2442f6ac 	addiu	v0,v0,-2388
9d00f644:	10400005 	beqz	v0,9d00f65c <_general_exception_handler+0x40>
9d00f648:	00000000 	nop
9d00f64c:	27bdffe8 	addiu	sp,sp,-24
9d00f650:	afbf0014 	sw	ra,20(sp)
9d00f654:	0040f809 	jalr	v0
9d00f658:	00000000 	nop
9d00f65c:	1000ffff 	b	9d00f65c <_general_exception_handler+0x40>
9d00f660:	00000000 	nop

Disassembly of section .vector_default:

9d00f664 <_DefaultInterrupt>:
9d00f664:	3c020000 	lui	v0,0x0
9d00f668:	24420000 	addiu	v0,v0,0
9d00f66c:	10400007 	beqz	v0,9d00f68c <_DefaultInterrupt+0x28>
9d00f670:	3c020000 	lui	v0,0x0
9d00f674:	24420000 	addiu	v0,v0,0
9d00f678:	50400005 	beqzl	v0,9d00f690 <_DefaultInterrupt+0x2c>
9d00f67c:	3c029d01 	lui	v0,0x9d01
9d00f680:	7000003f 	sdbbp
9d00f684:	03e00008 	jr	ra
9d00f688:	00000000 	nop
9d00f68c:	3c029d01 	lui	v0,0x9d01
9d00f690:	2442f6ac 	addiu	v0,v0,-2388
9d00f694:	10400003 	beqz	v0,9d00f6a4 <_DefaultInterrupt+0x40>
9d00f698:	00000000 	nop
9d00f69c:	0040f809 	jalr	v0
9d00f6a0:	00000000 	nop
9d00f6a4:	03e00008 	jr	ra
9d00f6a8:	00000000 	nop

Disassembly of section .text:

9d00f6ac <__pic32_software_reset>:
9d00f6ac:	41606000 	di
9d00f6b0:	000000c0 	ehb
9d00f6b4:	3c03aa99 	lui	v1,0xaa99
9d00f6b8:	3c02bf81 	lui	v0,0xbf81
9d00f6bc:	24636655 	addiu	v1,v1,26197
9d00f6c0:	ac40f230 	sw	zero,-3536(v0)
9d00f6c4:	ac43f230 	sw	v1,-3536(v0)
9d00f6c8:	3c035566 	lui	v1,0x5566
9d00f6cc:	346399aa 	ori	v1,v1,0x99aa
9d00f6d0:	ac43f230 	sw	v1,-3536(v0)
9d00f6d4:	3c02bf81 	lui	v0,0xbf81
9d00f6d8:	24030001 	li	v1,1
9d00f6dc:	ac43f618 	sw	v1,-2536(v0)
9d00f6e0:	3c02bf81 	lui	v0,0xbf81
9d00f6e4:	8c42f610 	lw	v0,-2544(v0)
9d00f6e8:	0b403dad 	j	9d00f6b4 <__pic32_software_reset+0x8>
9d00f6ec:	00000000 	nop

Disassembly of section .text.__sio_sprintf_dfoux:

9d00f6f0 <__sio_sprintf_dfoux>:
9d00f6f0:	27bdffe8 	addiu	sp,sp,-24
9d00f6f4:	afbf0014 	sw	ra,20(sp)
9d00f6f8:	0f4030ab 	jal	9d00c2ac <__fmt_d>
9d00f6fc:	00000000 	nop
9d00f700:	0f40117e 	jal	9d0045f8 <__fmt_fp>
9d00f704:	00000000 	nop
9d00f708:	0f40350d 	jal	9d00d434 <__fmt_o>
9d00f70c:	00000000 	nop
9d00f710:	0f403698 	jal	9d00da60 <__fmt_u>
9d00f714:	00000000 	nop
9d00f718:	0f402b55 	jal	9d00ad54 <__fmt_x>
9d00f71c:	00000000 	nop
9d00f720:	0f4037a4 	jal	9d00de90 <__fmt_s>
9d00f724:	00000000 	nop
9d00f728:	8fbf0014 	lw	ra,20(sp)
9d00f72c:	03e00008 	jr	ra
9d00f730:	27bd0018 	addiu	sp,sp,24

Disassembly of section .text.__sio_sscanf_dfoux:

9d00f734 <__sio_sscanf_dfoux>:
9d00f734:	27bdffe8 	addiu	sp,sp,-24
9d00f738:	afbf0014 	sw	ra,20(sp)
9d00f73c:	0f403b63 	jal	9d00ed8c <__scan_d>
9d00f740:	00000000 	nop
9d00f744:	0f40231a 	jal	9d008c68 <__scan_fp>
9d00f748:	00000000 	nop
9d00f74c:	0f403101 	jal	9d00c404 <__scan_o>
9d00f750:	00000000 	nop
9d00f754:	0f403b7f 	jal	9d00edfc <__scan_u>
9d00f758:	00000000 	nop
9d00f75c:	0f402c5a 	jal	9d00b168 <__scan_x>
9d00f760:	00000000 	nop
9d00f764:	0f403054 	jal	9d00c150 <__scan_s>
9d00f768:	00000000 	nop
9d00f76c:	8fbf0014 	lw	ra,20(sp)
9d00f770:	03e00008 	jr	ra
9d00f774:	27bd0018 	addiu	sp,sp,24

Disassembly of section .text.__towrite:

9d00f778 <__towrite>:
9d00f778:	27bdffe8 	addiu	sp,sp,-24
9d00f77c:	afb00010 	sw	s0,16(sp)
9d00f780:	afbf0014 	sw	ra,20(sp)
9d00f784:	0f403e0f 	jal	9d00f83c <__towrite_rw>
9d00f788:	00808025 	move	s0,a0
9d00f78c:	14400008 	bnez	v0,9d00f7b0 <__towrite+0x38>
9d00f790:	8fbf0014 	lw	ra,20(sp)
9d00f794:	8e030008 	lw	v1,8(s0)
9d00f798:	8e04000c 	lw	a0,12(s0)
9d00f79c:	ae030018 	sw	v1,24(s0)
9d00f7a0:	ae030014 	sw	v1,20(s0)
9d00f7a4:	00641821 	addu	v1,v1,a0
9d00f7a8:	ae030028 	sw	v1,40(s0)
9d00f7ac:	8fbf0014 	lw	ra,20(sp)
9d00f7b0:	8fb00010 	lw	s0,16(sp)
9d00f7b4:	03e00008 	jr	ra
9d00f7b8:	27bd0018 	addiu	sp,sp,24

Disassembly of section .text:

9d00f7bc <__floatunsidf>:
9d00f7bc:	27bdffe8 	addiu	sp,sp,-24
9d00f7c0:	afb00010 	sw	s0,16(sp)
9d00f7c4:	afbf0014 	sw	ra,20(sp)
9d00f7c8:	0f403aee 	jal	9d00ebb8 <__floatsidf>
9d00f7cc:	00808025 	move	s0,a0
9d00f7d0:	06010008 	bgez	s0,9d00f7f4 <__floatunsidf+0x38>
9d00f7d4:	8fbf0014 	lw	ra,20(sp)
9d00f7d8:	3c049d00 	lui	a0,0x9d00
9d00f7dc:	8c861ff8 	lw	a2,8184(a0)
9d00f7e0:	8c871ffc 	lw	a3,8188(a0)
9d00f7e4:	00602825 	move	a1,v1
9d00f7e8:	0f402210 	jal	9d008840 <__adddf3>
9d00f7ec:	00402025 	move	a0,v0
9d00f7f0:	8fbf0014 	lw	ra,20(sp)
9d00f7f4:	8fb00010 	lw	s0,16(sp)
9d00f7f8:	03e00008 	jr	ra
9d00f7fc:	27bd0018 	addiu	sp,sp,24

Disassembly of section .text.__sio_sscanf_doux:

9d00f800 <__sio_sscanf_doux>:
9d00f800:	27bdffe8 	addiu	sp,sp,-24
9d00f804:	afbf0014 	sw	ra,20(sp)
9d00f808:	0f403b63 	jal	9d00ed8c <__scan_d>
9d00f80c:	00000000 	nop
9d00f810:	0f403101 	jal	9d00c404 <__scan_o>
9d00f814:	00000000 	nop
9d00f818:	0f403b7f 	jal	9d00edfc <__scan_u>
9d00f81c:	00000000 	nop
9d00f820:	0f402c5a 	jal	9d00b168 <__scan_x>
9d00f824:	00000000 	nop
9d00f828:	0f403054 	jal	9d00c150 <__scan_s>
9d00f82c:	00000000 	nop
9d00f830:	8fbf0014 	lw	ra,20(sp)
9d00f834:	03e00008 	jr	ra
9d00f838:	27bd0018 	addiu	sp,sp,24

Disassembly of section .text.__towrite_rw:

9d00f83c <__towrite_rw>:
9d00f83c:	80820048 	lb	v0,72(a0)
9d00f840:	2443ffff 	addiu	v1,v0,-1
9d00f844:	00431025 	or	v0,v0,v1
9d00f848:	a0820048 	sb	v0,72(a0)
9d00f84c:	8c820004 	lw	v0,4(a0)
9d00f850:	30430004 	andi	v1,v0,0x4
9d00f854:	50600005 	beqzl	v1,9d00f86c <__towrite_rw+0x30>
9d00f858:	ac800040 	sw	zero,64(a0)
9d00f85c:	34420010 	ori	v0,v0,0x10
9d00f860:	ac820004 	sw	v0,4(a0)
9d00f864:	03e00008 	jr	ra
9d00f868:	2402ffff 	li	v0,-1
9d00f86c:	ac80003c 	sw	zero,60(a0)
9d00f870:	03e00008 	jr	ra
9d00f874:	00001025 	move	v0,zero

Disassembly of section .text.__vfscanf:

9d00f878 <__vfscanf>:
9d00f878:	27bdffe0 	addiu	sp,sp,-32
9d00f87c:	afb00018 	sw	s0,24(sp)
9d00f880:	afa60010 	sw	a2,16(sp)
9d00f884:	00808025 	move	s0,a0
9d00f888:	afbf001c 	sw	ra,28(sp)
9d00f88c:	0f401580 	jal	9d005600 <__scanf_core>
9d00f890:	27a60010 	addiu	a2,sp,16
9d00f894:	8e030004 	lw	v1,4(s0)
9d00f898:	8fbf001c 	lw	ra,28(sp)
9d00f89c:	2404ffff 	li	a0,-1
9d00f8a0:	30630010 	andi	v1,v1,0x10
9d00f8a4:	0083100b 	movn	v0,a0,v1
9d00f8a8:	8fb00018 	lw	s0,24(sp)
9d00f8ac:	03e00008 	jr	ra
9d00f8b0:	27bd0020 	addiu	sp,sp,32

Disassembly of section .text.__expand_heap:

9d00f8b4 <__expand_heap>:
9d00f8b4:	8c840000 	lw	a0,0(a0)
9d00f8b8:	04810003 	bgez	a0,9d00f8c8 <__expand_heap+0x14>
9d00f8bc:	00001025 	move	v0,zero
9d00f8c0:	03e00008 	jr	ra
9d00f8c4:	00000000 	nop
9d00f8c8:	27bdffe8 	addiu	sp,sp,-24
9d00f8cc:	afbf0014 	sw	ra,20(sp)
9d00f8d0:	0f403722 	jal	9d00dc88 <_sbrk>
9d00f8d4:	00000000 	nop
9d00f8d8:	2403ffff 	li	v1,-1
9d00f8dc:	50430001 	beql	v0,v1,9d00f8e4 <__expand_heap+0x30>
9d00f8e0:	00001025 	move	v0,zero
9d00f8e4:	8fbf0014 	lw	ra,20(sp)
9d00f8e8:	03e00008 	jr	ra
9d00f8ec:	27bd0018 	addiu	sp,sp,24

Disassembly of section .text.__vfprintf:

9d00f8f0 <__vfprintf>:
9d00f8f0:	27bdffe0 	addiu	sp,sp,-32
9d00f8f4:	afb00018 	sw	s0,24(sp)
9d00f8f8:	afa60010 	sw	a2,16(sp)
9d00f8fc:	00808025 	move	s0,a0
9d00f900:	afbf001c 	sw	ra,28(sp)
9d00f904:	0f401c47 	jal	9d00711c <__printf_core>
9d00f908:	27a60010 	addiu	a2,sp,16
9d00f90c:	8e030004 	lw	v1,4(s0)
9d00f910:	8fbf001c 	lw	ra,28(sp)
9d00f914:	2404ffff 	li	a0,-1
9d00f918:	30630010 	andi	v1,v1,0x10
9d00f91c:	0083100b 	movn	v0,a0,v1
9d00f920:	8fb00018 	lw	s0,24(sp)
9d00f924:	03e00008 	jr	ra
9d00f928:	27bd0020 	addiu	sp,sp,32

Disassembly of section .text.logbf:

9d00f92c <logbf>:
9d00f92c:	27bdffe8 	addiu	sp,sp,-24
9d00f930:	afbf0014 	sw	ra,20(sp)
9d00f934:	0f4034cd 	jal	9d00d334 <__truncdfsf2>
9d00f938:	00000000 	nop
9d00f93c:	0f403779 	jal	9d00dde4 <__extendsfdf2>
9d00f940:	00402025 	move	a0,v0
9d00f944:	00402025 	move	a0,v0
9d00f948:	0f403378 	jal	9d00cde0 <logbl>
9d00f94c:	00602825 	move	a1,v1
9d00f950:	00402025 	move	a0,v0
9d00f954:	0f4034cd 	jal	9d00d334 <__truncdfsf2>
9d00f958:	00602825 	move	a1,v1
9d00f95c:	8fbf0014 	lw	ra,20(sp)
9d00f960:	03e00008 	jr	ra
9d00f964:	27bd0018 	addiu	sp,sp,24

Disassembly of section .text:

9d00f968 <__lshrdi3>:
9d00f968:	10c00008 	beqz	a2,9d00f98c <__lshrdi3+0x24>
9d00f96c:	00801025 	move	v0,a0
9d00f970:	24030020 	li	v1,32
9d00f974:	00661823 	subu	v1,v1,a2
9d00f978:	1c600006 	bgtz	v1,9d00f994 <__lshrdi3+0x2c>
9d00f97c:	00c52006 	srlv	a0,a1,a2
9d00f980:	00002025 	move	a0,zero
9d00f984:	00c51006 	srlv	v0,a1,a2
9d00f988:	00802825 	move	a1,a0
9d00f98c:	03e00008 	jr	ra
9d00f990:	00a01825 	move	v1,a1
9d00f994:	00c21006 	srlv	v0,v0,a2
9d00f998:	00652804 	sllv	a1,a1,v1
9d00f99c:	1000fffa 	b	9d00f988 <__lshrdi3+0x20>
9d00f9a0:	00451025 	or	v0,v0,a1

9d00f9a4 <__ashldi3>:
9d00f9a4:	10c00008 	beqz	a2,9d00f9c8 <__ashldi3+0x24>
9d00f9a8:	00801025 	move	v0,a0
9d00f9ac:	24040020 	li	a0,32
9d00f9b0:	00862023 	subu	a0,a0,a2
9d00f9b4:	5c800006 	bgtzl	a0,9d00f9d0 <__ashldi3+0x2c>
9d00f9b8:	00c21804 	sllv	v1,v0,a2
9d00f9bc:	00001825 	move	v1,zero
9d00f9c0:	00c22804 	sllv	a1,v0,a2
9d00f9c4:	00601025 	move	v0,v1
9d00f9c8:	03e00008 	jr	ra
9d00f9cc:	00a01825 	move	v1,a1
9d00f9d0:	00c52804 	sllv	a1,a1,a2
9d00f9d4:	00821006 	srlv	v0,v0,a0
9d00f9d8:	1000fffa 	b	9d00f9c4 <__ashldi3+0x20>
9d00f9dc:	00a22825 	or	a1,a1,v0

Disassembly of section .text.__fclose:

9d00f9e0 <__fclose>:
9d00f9e0:	1080000b 	beqz	a0,9d00fa10 <__fclose+0x30>
9d00f9e4:	00001025 	move	v0,zero
9d00f9e8:	8c83001c 	lw	v1,28(a0)
9d00f9ec:	10600008 	beqz	v1,9d00fa10 <__fclose+0x30>
9d00f9f0:	00000000 	nop
9d00f9f4:	27bdffe8 	addiu	sp,sp,-24
9d00f9f8:	afbf0014 	sw	ra,20(sp)
9d00f9fc:	0060f809 	jalr	v1
9d00fa00:	00000000 	nop
9d00fa04:	8fbf0014 	lw	ra,20(sp)
9d00fa08:	03e00008 	jr	ra
9d00fa0c:	27bd0018 	addiu	sp,sp,24
9d00fa10:	03e00008 	jr	ra
9d00fa14:	00000000 	nop

Disassembly of section .text.lock_bin:

9d00fa18 <lock_bin>:
9d00fa18:	24840001 	addiu	a0,a0,1
9d00fa1c:	000410c0 	sll	v0,a0,0x3
9d00fa20:	3c04a001 	lui	a0,0xa001
9d00fa24:	24843c70 	addiu	a0,a0,15472
9d00fa28:	00441821 	addu	v1,v0,a0
9d00fa2c:	8c650000 	lw	a1,0(v1)
9d00fa30:	14a00004 	bnez	a1,9d00fa44 <lock_bin+0x2c>
9d00fa34:	2442fff8 	addiu	v0,v0,-8
9d00fa38:	00822021 	addu	a0,a0,v0
9d00fa3c:	ac640004 	sw	a0,4(v1)
9d00fa40:	ac640000 	sw	a0,0(v1)
9d00fa44:	03e00008 	jr	ra
9d00fa48:	00000000 	nop

Disassembly of section .text.__dummy:

9d00fa4c <__dummy>:
9d00fa4c:	8c870014 	lw	a3,20(a0)
9d00fa50:	8c860018 	lw	a2,24(a0)
9d00fa54:	8c830004 	lw	v1,4(a0)
9d00fa58:	00e61023 	subu	v0,a3,a2
9d00fa5c:	aca20000 	sw	v0,0(a1)
9d00fa60:	30630040 	andi	v1,v1,0x40
9d00fa64:	000217c3 	sra	v0,v0,0x1f
9d00fa68:	aca20004 	sw	v0,4(a1)
9d00fa6c:	10600002 	beqz	v1,9d00fa78 <__dummy+0x2c>
9d00fa70:	00001025 	move	v0,zero
9d00fa74:	00c7102b 	sltu	v0,a2,a3
9d00fa78:	03e00008 	jr	ra
9d00fa7c:	00000000 	nop

Disassembly of section .text.__fwrite:

9d00fa80 <__fwrite>:
9d00fa80:	8c83002c 	lw	v1,44(a0)
9d00fa84:	27bdffe8 	addiu	sp,sp,-24
9d00fa88:	10600006 	beqz	v1,9d00faa4 <__fwrite+0x24>
9d00fa8c:	afbf0014 	sw	ra,20(sp)
9d00fa90:	0060f809 	jalr	v1
9d00fa94:	00000000 	nop
9d00fa98:	8fbf0014 	lw	ra,20(sp)
9d00fa9c:	03e00008 	jr	ra
9d00faa0:	27bd0018 	addiu	sp,sp,24
9d00faa4:	0f403a2d 	jal	9d00e8b4 <write>
9d00faa8:	8c840000 	lw	a0,0(a0)
9d00faac:	1000fffb 	b	9d00fa9c <__fwrite+0x1c>
9d00fab0:	8fbf0014 	lw	ra,20(sp)

Disassembly of section .text.finitef:

9d00fab4 <finitef>:
9d00fab4:	27bdffe8 	addiu	sp,sp,-24
9d00fab8:	afbf0014 	sw	ra,20(sp)
9d00fabc:	0f4034cd 	jal	9d00d334 <__truncdfsf2>
9d00fac0:	00000000 	nop
9d00fac4:	0f403779 	jal	9d00dde4 <__extendsfdf2>
9d00fac8:	00402025 	move	a0,v0
9d00facc:	00031403 	sra	v0,v1,0x10
9d00fad0:	8fbf0014 	lw	ra,20(sp)
9d00fad4:	30427ff0 	andi	v0,v0,0x7ff0
9d00fad8:	38427ff0 	xori	v0,v0,0x7ff0
9d00fadc:	0002102b 	sltu	v0,zero,v0
9d00fae0:	03e00008 	jr	ra
9d00fae4:	27bd0018 	addiu	sp,sp,24

Disassembly of section .text.memchr:

9d00fae8 <memchr>:
9d00fae8:	00801025 	move	v0,a0
9d00faec:	30a500ff 	andi	a1,a1,0xff
9d00faf0:	00863021 	addu	a2,a0,a2
9d00faf4:	54460004 	bnel	v0,a2,9d00fb08 <memchr+0x20>
9d00faf8:	90430000 	lbu	v1,0(v0)
9d00fafc:	00001025 	move	v0,zero
9d00fb00:	03e00008 	jr	ra
9d00fb04:	00000000 	nop
9d00fb08:	1065fffd 	beq	v1,a1,9d00fb00 <memchr+0x18>
9d00fb0c:	00000000 	nop
9d00fb10:	1000fff8 	b	9d00faf4 <memchr+0xc>
9d00fb14:	24420001 	addiu	v0,v0,1

Disassembly of section .text.copysign:

9d00fb18 <copysign>:
9d00fb18:	00071c02 	srl	v1,a3,0x10
9d00fb1c:	7c037004 	ins	v1,zero,0x0,0xf
9d00fb20:	7ca27400 	ext	v0,a1,0x10,0xf
9d00fb24:	27bdfff8 	addiu	sp,sp,-8
9d00fb28:	00431025 	or	v0,v0,v1
9d00fb2c:	afa50004 	sw	a1,4(sp)
9d00fb30:	afa40000 	sw	a0,0(sp)
9d00fb34:	a7a20006 	sh	v0,6(sp)
9d00fb38:	8fa30004 	lw	v1,4(sp)
9d00fb3c:	8fa20000 	lw	v0,0(sp)
9d00fb40:	03e00008 	jr	ra
9d00fb44:	27bd0008 	addiu	sp,sp,8

Disassembly of section .text.strtoull:

9d00fb48 <strtoull>:
9d00fb48:	27bdffe0 	addiu	sp,sp,-32
9d00fb4c:	2402ffff 	li	v0,-1
9d00fb50:	2403ffff 	li	v1,-1
9d00fb54:	afa20010 	sw	v0,16(sp)
9d00fb58:	afa30014 	sw	v1,20(sp)
9d00fb5c:	afbf001c 	sw	ra,28(sp)
9d00fb60:	0f4036c7 	jal	9d00db1c <strtox>
9d00fb64:	00000000 	nop
9d00fb68:	8fbf001c 	lw	ra,28(sp)
9d00fb6c:	03e00008 	jr	ra
9d00fb70:	27bd0020 	addiu	sp,sp,32

Disassembly of section .text.strtoll:

9d00fb74 <strtoll>:
9d00fb74:	27bdffe0 	addiu	sp,sp,-32
9d00fb78:	00001025 	move	v0,zero
9d00fb7c:	3c038000 	lui	v1,0x8000
9d00fb80:	afa20010 	sw	v0,16(sp)
9d00fb84:	afa30014 	sw	v1,20(sp)
9d00fb88:	afbf001c 	sw	ra,28(sp)
9d00fb8c:	0f4036c7 	jal	9d00db1c <strtox>
9d00fb90:	00000000 	nop
9d00fb94:	8fbf001c 	lw	ra,28(sp)
9d00fb98:	03e00008 	jr	ra
9d00fb9c:	27bd0020 	addiu	sp,sp,32

Disassembly of section .text.strtoul:

9d00fba0 <strtoul>:
9d00fba0:	27bdffe0 	addiu	sp,sp,-32
9d00fba4:	2402ffff 	li	v0,-1
9d00fba8:	00001825 	move	v1,zero
9d00fbac:	afa20010 	sw	v0,16(sp)
9d00fbb0:	afa30014 	sw	v1,20(sp)
9d00fbb4:	afbf001c 	sw	ra,28(sp)
9d00fbb8:	0f4036c7 	jal	9d00db1c <strtox>
9d00fbbc:	00000000 	nop
9d00fbc0:	8fbf001c 	lw	ra,28(sp)
9d00fbc4:	03e00008 	jr	ra
9d00fbc8:	27bd0020 	addiu	sp,sp,32

Disassembly of section .text.strtol:

9d00fbcc <strtol>:
9d00fbcc:	27bdffe0 	addiu	sp,sp,-32
9d00fbd0:	3c028000 	lui	v0,0x8000
9d00fbd4:	00001825 	move	v1,zero
9d00fbd8:	afa20010 	sw	v0,16(sp)
9d00fbdc:	afa30014 	sw	v1,20(sp)
9d00fbe0:	afbf001c 	sw	ra,28(sp)
9d00fbe4:	0f4036c7 	jal	9d00db1c <strtox>
9d00fbe8:	00000000 	nop
9d00fbec:	8fbf001c 	lw	ra,28(sp)
9d00fbf0:	03e00008 	jr	ra
9d00fbf4:	27bd0020 	addiu	sp,sp,32

Disassembly of section .text.memcpy:

9d00fbf8 <memcpy>:
9d00fbf8:	00801025 	move	v0,a0
9d00fbfc:	00001825 	move	v1,zero
9d00fc00:	14c30003 	bne	a2,v1,9d00fc10 <memcpy+0x18>
9d00fc04:	00a33821 	addu	a3,a1,v1
9d00fc08:	03e00008 	jr	ra
9d00fc0c:	00000000 	nop
9d00fc10:	90e70000 	lbu	a3,0(a3)
9d00fc14:	00432021 	addu	a0,v0,v1
9d00fc18:	24630001 	addiu	v1,v1,1
9d00fc1c:	1000fff8 	b	9d00fc00 <memcpy+0x8>
9d00fc20:	a0870000 	sb	a3,0(a0)

Disassembly of section .rodata:

9d00fc24 <CSWTCH.35>:
9d00fc24:	fbceff6b 0000fbce                       k.......

9d00fc2c <CSWTCH.34>:
9d00fc2c:	00353518                                .55.

9d00fc30 <p10s.2638>:
9d00fc30:	0000000a 00000064 000003e8 00002710     ....d........'..
9d00fc40:	000186a0 000f4240 00989680 05f5e100     ....@B..........

Disassembly of section .text.__init_stdio:

9d00fc50 <__init_stdio>:
9d00fc50:	27bdffe8 	addiu	sp,sp,-24
9d00fc54:	afbf0014 	sw	ra,20(sp)
9d00fc58:	0f404089 	jal	9d010224 <__init_stderr>
9d00fc5c:	00000000 	nop
9d00fc60:	0f404089 	jal	9d010224 <__init_stderr>
9d00fc64:	00000000 	nop
9d00fc68:	0f404089 	jal	9d010224 <__init_stderr>
9d00fc6c:	00000000 	nop
9d00fc70:	8fbf0014 	lw	ra,20(sp)
9d00fc74:	03e00008 	jr	ra
9d00fc78:	27bd0018 	addiu	sp,sp,24

Disassembly of section .text.copysignl:

9d00fc7c <copysignl>:
9d00fc7c:	afa50004 	sw	a1,4(sp)
9d00fc80:	97a20006 	lhu	v0,6(sp)
9d00fc84:	00073c02 	srl	a3,a3,0x10
9d00fc88:	7c077004 	ins	a3,zero,0x0,0xf
9d00fc8c:	30427fff 	andi	v0,v0,0x7fff
9d00fc90:	00471025 	or	v0,v0,a3
9d00fc94:	a7a20006 	sh	v0,6(sp)
9d00fc98:	afa40000 	sw	a0,0(sp)
9d00fc9c:	8fa20000 	lw	v0,0(sp)
9d00fca0:	03e00008 	jr	ra
9d00fca4:	8fa30004 	lw	v1,4(sp)

Disassembly of section .text._stub_sbd_memlayout:

9d00fca8 <_stub_sbd_memlayout>:
9d00fca8:	3c04a001 	lui	a0,0xa001
9d00fcac:	24823f98 	addiu	v0,a0,16280
9d00fcb0:	24030001 	li	v1,1
9d00fcb4:	ac430008 	sw	v1,8(v0)
9d00fcb8:	3c03a001 	lui	v1,0xa001
9d00fcbc:	24633fc8 	addiu	v1,v1,16328
9d00fcc0:	ac833f98 	sw	v1,16280(a0)
9d00fcc4:	3c030000 	lui	v1,0x0
9d00fcc8:	24630000 	addiu	v1,v1,0
9d00fccc:	03e00008 	jr	ra
9d00fcd0:	ac430004 	sw	v1,4(v0)

Disassembly of section .text.__wrap_sprintf:

9d00fcd4 <_dsprintf_cdeEfFgGnopuxX>:
9d00fcd4:	27bdffe0 	addiu	sp,sp,-32
9d00fcd8:	afa60028 	sw	a2,40(sp)
9d00fcdc:	27a60028 	addiu	a2,sp,40
9d00fce0:	afbf001c 	sw	ra,28(sp)
9d00fce4:	afa7002c 	sw	a3,44(sp)
9d00fce8:	0f403f71 	jal	9d00fdc4 <__vsprintf>
9d00fcec:	afa60010 	sw	a2,16(sp)
9d00fcf0:	8fbf001c 	lw	ra,28(sp)
9d00fcf4:	03e00008 	jr	ra
9d00fcf8:	27bd0020 	addiu	sp,sp,32

9d00fcfc <_dsprintf_eE>:
9d00fcfc:	27bdffe0 	addiu	sp,sp,-32
9d00fd00:	afa60028 	sw	a2,40(sp)
9d00fd04:	27a60028 	addiu	a2,sp,40
9d00fd08:	afbf001c 	sw	ra,28(sp)
9d00fd0c:	afa7002c 	sw	a3,44(sp)
9d00fd10:	0f403f71 	jal	9d00fdc4 <__vsprintf>
9d00fd14:	afa60010 	sw	a2,16(sp)
9d00fd18:	8fbf001c 	lw	ra,28(sp)
9d00fd1c:	03e00008 	jr	ra
9d00fd20:	27bd0020 	addiu	sp,sp,32

Disassembly of section .text.__wrap_sscanf:

9d00fd24 <_dsscanf_cdeEfFgGnopuxX>:
9d00fd24:	27bdffe0 	addiu	sp,sp,-32
9d00fd28:	afa60028 	sw	a2,40(sp)
9d00fd2c:	27a60028 	addiu	a2,sp,40
9d00fd30:	afbf001c 	sw	ra,28(sp)
9d00fd34:	afa7002c 	sw	a3,44(sp)
9d00fd38:	0f403bd3 	jal	9d00ef4c <__vsscanf>
9d00fd3c:	afa60010 	sw	a2,16(sp)
9d00fd40:	8fbf001c 	lw	ra,28(sp)
9d00fd44:	03e00008 	jr	ra
9d00fd48:	27bd0020 	addiu	sp,sp,32

9d00fd4c <_dsscanf_cdnopuxX>:
9d00fd4c:	27bdffe0 	addiu	sp,sp,-32
9d00fd50:	afa60028 	sw	a2,40(sp)
9d00fd54:	27a60028 	addiu	a2,sp,40
9d00fd58:	afbf001c 	sw	ra,28(sp)
9d00fd5c:	afa7002c 	sw	a3,44(sp)
9d00fd60:	0f403bd3 	jal	9d00ef4c <__vsscanf>
9d00fd64:	afa60010 	sw	a2,16(sp)
9d00fd68:	8fbf001c 	lw	ra,28(sp)
9d00fd6c:	03e00008 	jr	ra
9d00fd70:	27bd0020 	addiu	sp,sp,32

Disassembly of section .text.strtof:

9d00fd74 <strtof>:
9d00fd74:	27bdffe8 	addiu	sp,sp,-24
9d00fd78:	afbf0014 	sw	ra,20(sp)
9d00fd7c:	0f4037ce 	jal	9d00df38 <strtox>
9d00fd80:	00003025 	move	a2,zero
9d00fd84:	00402025 	move	a0,v0
9d00fd88:	0f4034cd 	jal	9d00d334 <__truncdfsf2>
9d00fd8c:	00602825 	move	a1,v1
9d00fd90:	8fbf0014 	lw	ra,20(sp)
9d00fd94:	03e00008 	jr	ra
9d00fd98:	27bd0018 	addiu	sp,sp,24

Disassembly of section .text.strcpy:

9d00fd9c <strcpy>:
9d00fd9c:	27bdffe8 	addiu	sp,sp,-24
9d00fda0:	afb00010 	sw	s0,16(sp)
9d00fda4:	afbf0014 	sw	ra,20(sp)
9d00fda8:	0f403fa0 	jal	9d00fe80 <stpcpy>
9d00fdac:	00808025 	move	s0,a0
9d00fdb0:	8fbf0014 	lw	ra,20(sp)
9d00fdb4:	02001025 	move	v0,s0
9d00fdb8:	8fb00010 	lw	s0,16(sp)
9d00fdbc:	03e00008 	jr	ra
9d00fdc0:	27bd0018 	addiu	sp,sp,24

Disassembly of section .text.__vsprintf:

9d00fdc4 <__vsprintf>:
9d00fdc4:	00c03825 	move	a3,a2
9d00fdc8:	00a03025 	move	a2,a1
9d00fdcc:	3c057fff 	lui	a1,0x7fff
9d00fdd0:	27bdffe8 	addiu	sp,sp,-24
9d00fdd4:	afbf0014 	sw	ra,20(sp)
9d00fdd8:	0f403a6f 	jal	9d00e9bc <__vsnprintf>
9d00fddc:	34a5ffff 	ori	a1,a1,0xffff
9d00fde0:	8fbf0014 	lw	ra,20(sp)
9d00fde4:	03e00008 	jr	ra
9d00fde8:	27bd0018 	addiu	sp,sp,24

Disassembly of section .text.__fseeko:

9d00fdec <__fseeko>:
9d00fdec:	27bdffe0 	addiu	sp,sp,-32
9d00fdf0:	8fa20030 	lw	v0,48(sp)
9d00fdf4:	afbf001c 	sw	ra,28(sp)
9d00fdf8:	afa20010 	sw	v0,16(sp)
9d00fdfc:	8c820030 	lw	v0,48(a0)
9d00fe00:	0040f809 	jalr	v0
9d00fe04:	00000000 	nop
9d00fe08:	8fbf001c 	lw	ra,28(sp)
9d00fe0c:	03e00008 	jr	ra
9d00fe10:	27bd0020 	addiu	sp,sp,32

Disassembly of section .text.memset:

9d00fe14 <memset>:
9d00fe14:	00801025 	move	v0,a0
9d00fe18:	00863021 	addu	a2,a0,a2
9d00fe1c:	00801825 	move	v1,a0
9d00fe20:	14660003 	bne	v1,a2,9d00fe30 <memset+0x1c>
9d00fe24:	24630001 	addiu	v1,v1,1
9d00fe28:	03e00008 	jr	ra
9d00fe2c:	00000000 	nop
9d00fe30:	1000fffb 	b	9d00fe20 <memset+0xc>
9d00fe34:	a065ffff 	sb	a1,-1(v1)

Disassembly of section .text.isxdigit:

9d00fe38 <isxdigit>:
9d00fe38:	2483ffd0 	addiu	v1,a0,-48
9d00fe3c:	2c63000a 	sltiu	v1,v1,10
9d00fe40:	14600004 	bnez	v1,9d00fe54 <isxdigit+0x1c>
9d00fe44:	24020001 	li	v0,1
9d00fe48:	34840020 	ori	a0,a0,0x20
9d00fe4c:	2482ff9f 	addiu	v0,a0,-97
9d00fe50:	2c420006 	sltiu	v0,v0,6
9d00fe54:	03e00008 	jr	ra
9d00fe58:	00000000 	nop

Disassembly of section .text.__syscall_ret:

9d00fe5c <__syscall_ret>:
9d00fe5c:	2c83f001 	sltiu	v1,a0,-4095
9d00fe60:	14600005 	bnez	v1,9d00fe78 <__syscall_ret+0x1c>
9d00fe64:	00801025 	move	v0,a0
9d00fe68:	00041023 	negu	v0,a0
9d00fe6c:	3c03a001 	lui	v1,0xa001
9d00fe70:	ac623fbc 	sw	v0,16316(v1)
9d00fe74:	2402ffff 	li	v0,-1
9d00fe78:	03e00008 	jr	ra
9d00fe7c:	00000000 	nop

Disassembly of section .text.stpcpy:

9d00fe80 <stpcpy>:
9d00fe80:	24a50001 	addiu	a1,a1,1
9d00fe84:	80a3ffff 	lb	v1,-1(a1)
9d00fe88:	00801025 	move	v0,a0
9d00fe8c:	24840001 	addiu	a0,a0,1
9d00fe90:	1460fffb 	bnez	v1,9d00fe80 <stpcpy>
9d00fe94:	a083ffff 	sb	v1,-1(a0)
9d00fe98:	03e00008 	jr	ra
9d00fe9c:	00000000 	nop

Disassembly of section .text.__fwrite_min:

9d00fea0 <__stdio_write>:
9d00fea0:	8c840000 	lw	a0,0(a0)
9d00fea4:	27bdffe8 	addiu	sp,sp,-24
9d00fea8:	afbf0014 	sw	ra,20(sp)
9d00feac:	0f403a2d 	jal	9d00e8b4 <write>
9d00feb0:	00000000 	nop
9d00feb4:	8fbf0014 	lw	ra,20(sp)
9d00feb8:	03e00008 	jr	ra
9d00febc:	27bd0018 	addiu	sp,sp,24

Disassembly of section .text.__sio_sprintf_f:

9d00fec0 <__sio_sprintf_f>:
9d00fec0:	27bdffe8 	addiu	sp,sp,-24
9d00fec4:	afbf0014 	sw	ra,20(sp)
9d00fec8:	0f40117e 	jal	9d0045f8 <__fmt_fp>
9d00fecc:	00000000 	nop
9d00fed0:	8fbf0014 	lw	ra,20(sp)
9d00fed4:	03e00008 	jr	ra
9d00fed8:	27bd0018 	addiu	sp,sp,24

Disassembly of section .text.strtod:

9d00fedc <strtod>:
9d00fedc:	27bdffe8 	addiu	sp,sp,-24
9d00fee0:	afbf0014 	sw	ra,20(sp)
9d00fee4:	0f4037ce 	jal	9d00df38 <strtox>
9d00fee8:	24060001 	li	a2,1
9d00feec:	8fbf0014 	lw	ra,20(sp)
9d00fef0:	03e00008 	jr	ra
9d00fef4:	27bd0018 	addiu	sp,sp,24

Disassembly of section .text.strtold:

9d00fef8 <strtold>:
9d00fef8:	27bdffe8 	addiu	sp,sp,-24
9d00fefc:	afbf0014 	sw	ra,20(sp)
9d00ff00:	0f4037ce 	jal	9d00df38 <strtox>
9d00ff04:	24060002 	li	a2,2
9d00ff08:	8fbf0014 	lw	ra,20(sp)
9d00ff0c:	03e00008 	jr	ra
9d00ff10:	27bd0018 	addiu	sp,sp,24

Disassembly of section .text.strtoimax:

9d00ff14 <strtoimax>:
9d00ff14:	27bdffe8 	addiu	sp,sp,-24
9d00ff18:	afbf0014 	sw	ra,20(sp)
9d00ff1c:	0f403edd 	jal	9d00fb74 <strtoll>
9d00ff20:	00000000 	nop
9d00ff24:	8fbf0014 	lw	ra,20(sp)
9d00ff28:	03e00008 	jr	ra
9d00ff2c:	27bd0018 	addiu	sp,sp,24

Disassembly of section .text.strtoumax:

9d00ff30 <strtoumax>:
9d00ff30:	27bdffe8 	addiu	sp,sp,-24
9d00ff34:	afbf0014 	sw	ra,20(sp)
9d00ff38:	0f403ed2 	jal	9d00fb48 <strtoull>
9d00ff3c:	00000000 	nop
9d00ff40:	8fbf0014 	lw	ra,20(sp)
9d00ff44:	03e00008 	jr	ra
9d00ff48:	27bd0018 	addiu	sp,sp,24

Disassembly of section .text.__isxdigit_l:

9d00ff4c <__isxdigit_l>:
9d00ff4c:	27bdffe8 	addiu	sp,sp,-24
9d00ff50:	afbf0014 	sw	ra,20(sp)
9d00ff54:	0f403f8e 	jal	9d00fe38 <isxdigit>
9d00ff58:	00000000 	nop
9d00ff5c:	8fbf0014 	lw	ra,20(sp)
9d00ff60:	03e00008 	jr	ra
9d00ff64:	27bd0018 	addiu	sp,sp,24

Disassembly of section .text.tolower:

9d00ff68 <tolower>:
9d00ff68:	2483ffbf 	addiu	v1,a0,-65
9d00ff6c:	2c63001a 	sltiu	v1,v1,26
9d00ff70:	10600002 	beqz	v1,9d00ff7c <tolower+0x14>
9d00ff74:	00801025 	move	v0,a0
9d00ff78:	34820020 	ori	v0,a0,0x20
9d00ff7c:	03e00008 	jr	ra
9d00ff80:	00000000 	nop

Disassembly of section .text.__tolower_l:

9d00ff84 <__tolower_l>:
9d00ff84:	27bdffe8 	addiu	sp,sp,-24
9d00ff88:	afbf0014 	sw	ra,20(sp)
9d00ff8c:	0f403fda 	jal	9d00ff68 <tolower>
9d00ff90:	00000000 	nop
9d00ff94:	8fbf0014 	lw	ra,20(sp)
9d00ff98:	03e00008 	jr	ra
9d00ff9c:	27bd0018 	addiu	sp,sp,24

Disassembly of section .text.toupper:

9d00ffa0 <toupper>:
9d00ffa0:	2483ff9f 	addiu	v1,a0,-97
9d00ffa4:	2c63001a 	sltiu	v1,v1,26
9d00ffa8:	10600002 	beqz	v1,9d00ffb4 <toupper+0x14>
9d00ffac:	00801025 	move	v0,a0
9d00ffb0:	3082005f 	andi	v0,a0,0x5f
9d00ffb4:	03e00008 	jr	ra
9d00ffb8:	00000000 	nop

Disassembly of section .text.__toupper_l:

9d00ffbc <__toupper_l>:
9d00ffbc:	27bdffe8 	addiu	sp,sp,-24
9d00ffc0:	afbf0014 	sw	ra,20(sp)
9d00ffc4:	0f403fe8 	jal	9d00ffa0 <toupper>
9d00ffc8:	00000000 	nop
9d00ffcc:	8fbf0014 	lw	ra,20(sp)
9d00ffd0:	03e00008 	jr	ra
9d00ffd4:	27bd0018 	addiu	sp,sp,24

Disassembly of section .text.do_read:

9d00ffd8 <do_read>:
9d00ffd8:	27bdffe8 	addiu	sp,sp,-24
9d00ffdc:	afbf0014 	sw	ra,20(sp)
9d00ffe0:	0f40384c 	jal	9d00e130 <__string_read>
9d00ffe4:	00000000 	nop
9d00ffe8:	8fbf0014 	lw	ra,20(sp)
9d00ffec:	03e00008 	jr	ra
9d00fff0:	27bd0018 	addiu	sp,sp,24

Disassembly of section .text.__toread_needs_stdio_exit:

9d00fff4 <__toread_needs_stdio_exit>:
9d00fff4:	27bdffe8 	addiu	sp,sp,-24
9d00fff8:	afbf0014 	sw	ra,20(sp)
9d00fffc:	0f403d4f 	jal	9d00f53c <__stdio_exit>
9d010000:	00000000 	nop
9d010004:	8fbf0014 	lw	ra,20(sp)
9d010008:	03e00008 	jr	ra
9d01000c:	27bd0018 	addiu	sp,sp,24

Disassembly of section .text.putc:

9d010010 <putc>:
9d010010:	27bdffe8 	addiu	sp,sp,-24
9d010014:	afbf0014 	sw	ra,20(sp)
9d010018:	0f403b29 	jal	9d00eca4 <__putc>
9d01001c:	00000000 	nop
9d010020:	8fbf0014 	lw	ra,20(sp)
9d010024:	03e00008 	jr	ra
9d010028:	27bd0018 	addiu	sp,sp,24

Disassembly of section .text.__fopen:

9d01002c <__fopen>:
9d01002c:	27bdffe8 	addiu	sp,sp,-24
9d010030:	afbf0014 	sw	ra,20(sp)
9d010034:	0f403a0b 	jal	9d00e82c <__fopen_rw>
9d010038:	00000000 	nop
9d01003c:	8fbf0014 	lw	ra,20(sp)
9d010040:	03e00008 	jr	ra
9d010044:	27bd0018 	addiu	sp,sp,24

Disassembly of section .text.__ftello_adj:

9d010048 <__ftello_adj>:
9d010048:	27bdffe8 	addiu	sp,sp,-24
9d01004c:	afbf0014 	sw	ra,20(sp)
9d010050:	0f403d14 	jal	9d00f450 <__ftello_adj_rw>
9d010054:	00000000 	nop
9d010058:	8fbf0014 	lw	ra,20(sp)
9d01005c:	03e00008 	jr	ra
9d010060:	27bd0018 	addiu	sp,sp,24

Disassembly of section .text.__read:

9d010064 <__read>:
9d010064:	27bdffe8 	addiu	sp,sp,-24
9d010068:	afbf0014 	sw	ra,20(sp)
9d01006c:	0f403f97 	jal	9d00fe5c <__syscall_ret>
9d010070:	2404fff7 	li	a0,-9
9d010074:	8fbf0014 	lw	ra,20(sp)
9d010078:	03e00008 	jr	ra
9d01007c:	27bd0018 	addiu	sp,sp,24

Disassembly of section .text.logb:

9d010080 <logb>:
9d010080:	27bdffe8 	addiu	sp,sp,-24
9d010084:	afbf0014 	sw	ra,20(sp)
9d010088:	0f403378 	jal	9d00cde0 <logbl>
9d01008c:	00000000 	nop
9d010090:	8fbf0014 	lw	ra,20(sp)
9d010094:	03e00008 	jr	ra
9d010098:	27bd0018 	addiu	sp,sp,24

Disassembly of section .text.drem:

9d01009c <drem>:
9d01009c:	27bdffe8 	addiu	sp,sp,-24
9d0100a0:	afbf0014 	sw	ra,20(sp)
9d0100a4:	0f401ed7 	jal	9d007b5c <dreml>
9d0100a8:	00000000 	nop
9d0100ac:	8fbf0014 	lw	ra,20(sp)
9d0100b0:	03e00008 	jr	ra
9d0100b4:	27bd0018 	addiu	sp,sp,24

Disassembly of section .text.fabsl:

9d0100b8 <fabsl>:
9d0100b8:	27bdffe8 	addiu	sp,sp,-24
9d0100bc:	afbf0014 	sw	ra,20(sp)
9d0100c0:	0f404064 	jal	9d010190 <fabs>
9d0100c4:	00000000 	nop
9d0100c8:	8fbf0014 	lw	ra,20(sp)
9d0100cc:	03e00008 	jr	ra
9d0100d0:	27bd0018 	addiu	sp,sp,24

Disassembly of section .text.scalbnl:

9d0100d4 <scalbnl>:
9d0100d4:	27bdffe8 	addiu	sp,sp,-24
9d0100d8:	afbf0014 	sw	ra,20(sp)
9d0100dc:	0f40354c 	jal	9d00d530 <scalbn>
9d0100e0:	00000000 	nop
9d0100e4:	8fbf0014 	lw	ra,20(sp)
9d0100e8:	03e00008 	jr	ra
9d0100ec:	27bd0018 	addiu	sp,sp,24

Disassembly of section .text:

9d010108 <set_operating_mode>:
#include "utilities.h"

static volatile int mode;

void set_operating_mode(int i){
    mode = i;
9d010108:	af848064 	sw	a0,-32668(gp)
}
9d01010c:	03e00008 	jr	ra
9d010110:	00000000 	nop

9d010114 <get_operating_mode>:

int get_operating_mode(){
    return mode;
9d010114:	8f828064 	lw	v0,-32668(gp)
9d010118:	03e00008 	jr	ra
9d01011c:	00000000 	nop

9d010120 <_nmi_handler>:
9d010120:	401a6000 	mfc0	k0,c0_status
9d010124:	3c1bffbf 	lui	k1,0xffbf
9d010128:	377bffff 	ori	k1,k1,0xffff
9d01012c:	035bd024 	and	k0,k0,k1
9d010130:	409a6000 	mtc0	k0,c0_status
9d010134:	42000018 	eret

Disassembly of section .rodata:

9d010138 <state_table>:
9d010138:	096c0768 906a834c c07aa074 88688000     h.l.L.j.t.z...h.
9d010148:	826c8400 00008100                       ..l.....

Disassembly of section .text.strlen:

9d010150 <strlen>:
9d010150:	00801025 	move	v0,a0
9d010154:	80430000 	lb	v1,0(v0)
9d010158:	5460fffe 	bnezl	v1,9d010154 <strlen+0x4>
9d01015c:	24420001 	addiu	v0,v0,1
9d010160:	03e00008 	jr	ra
9d010164:	00441023 	subu	v0,v0,a0

Disassembly of section .text.finitel:

9d010168 <finitel>:
9d010168:	00051403 	sra	v0,a1,0x10
9d01016c:	30427ff0 	andi	v0,v0,0x7ff0
9d010170:	38427ff0 	xori	v0,v0,0x7ff0
9d010174:	03e00008 	jr	ra
9d010178:	0002102b 	sltu	v0,zero,v0

Disassembly of section .text.finite:

9d01017c <finite>:
9d01017c:	00051403 	sra	v0,a1,0x10
9d010180:	30427ff0 	andi	v0,v0,0x7ff0
9d010184:	38427ff0 	xori	v0,v0,0x7ff0
9d010188:	03e00008 	jr	ra
9d01018c:	0002102b 	sltu	v0,zero,v0

Disassembly of section .text.fabs:

9d010190 <fabs>:
9d010190:	7ca6f000 	ext	a2,a1,0x0,0x1f
9d010194:	00801025 	move	v0,a0
9d010198:	03e00008 	jr	ra
9d01019c:	00c01825 	move	v1,a2

Disassembly of section .text.__get_stderr:

9d0101a0 <__get_stderr>:
9d0101a0:	3c02a001 	lui	v0,0xa001
9d0101a4:	03e00008 	jr	ra
9d0101a8:	24423e78 	addiu	v0,v0,15992

Disassembly of section .text.__get_stdout:

9d0101ac <__get_stdout>:
9d0101ac:	3c02a001 	lui	v0,0xa001
9d0101b0:	03e00008 	jr	ra
9d0101b4:	24423ee0 	addiu	v0,v0,16096

Disassembly of section .text.__dummy:

9d0101b8 <__dummy>:
9d0101b8:	00001025 	move	v0,zero
9d0101bc:	03e00008 	jr	ra
9d0101c0:	00001825 	move	v1,zero

Disassembly of section .text._on_reset:

9d0101c4 <_on_reset>:
9d0101c4:	03e00008 	jr	ra
9d0101c8:	00000000 	nop

Disassembly of section .text._on_bootstrap:

9d0101cc <_on_bootstrap>:
9d0101cc:	03e00008 	jr	ra
9d0101d0:	00000000 	nop

Disassembly of section .text.__dummy_fmt3:

9d0101d4 <__dummy_fmt3>:
9d0101d4:	03e00008 	jr	ra
9d0101d8:	00001025 	move	v0,zero

Disassembly of section .text.__dummy_fmt4:

9d0101dc <__fmt_a>:
9d0101dc:	03e00008 	jr	ra
9d0101e0:	00001025 	move	v0,zero

Disassembly of section .text.__dummy_fmts:

9d0101e4 <__dummy_fmts>:
9d0101e4:	03e00008 	jr	ra
9d0101e8:	00001025 	move	v0,zero

Disassembly of section .text.__dummy_scan:

9d0101ec <__scan_a>:
9d0101ec:	03e00008 	jr	ra
9d0101f0:	00001025 	move	v0,zero

Disassembly of section .text.__dummy_scan_s:

9d0101f4 <__dummy_scan_s>:
9d0101f4:	03e00008 	jr	ra
9d0101f8:	00001025 	move	v0,zero

Disassembly of section .text.__dummy:

9d0101fc <__dummy>:
9d0101fc:	03e00008 	jr	ra
9d010200:	00000000 	nop

9d010204 <__stdio_exit_ofl>:
9d010204:	03e00008 	jr	ra
9d010208:	00000000 	nop

Disassembly of section .text.__dummy1:

9d01020c <__dummy1>:
9d01020c:	03e00008 	jr	ra
9d010210:	00001025 	move	v0,zero

Disassembly of section .text.__dummy:

9d010214 <__dummy>:
9d010214:	03e00008 	jr	ra
9d010218:	00000000 	nop

9d01021c <__dummy>:
9d01021c:	03e00008 	jr	ra
9d010220:	00001025 	move	v0,zero

Disassembly of section .text.__dummy:

9d010224 <__init_stderr>:
9d010224:	03e00008 	jr	ra
9d010228:	00000000 	nop

Disassembly of section .text.getpagesize:

9d01022c <getpagesize>:
9d01022c:	03e00008 	jr	ra
9d010230:	24020080 	li	v0,128

Disassembly of section .text.lseek:

9d010234 <lseek>:
9d010234:	03e00008 	jr	ra
9d010238:	00001025 	move	v0,zero

Disassembly of section .text.close:

9d01023c <close>:
9d01023c:	03e00008 	jr	ra
9d010240:	00001025 	move	v0,zero
